0000000000001000	libcurl.dll:d000010.o	curl_easy_perform
0000000000001008	libcurl.dll:d000004.o	curl_easy_getinfo
0000000000001010	libcurl.dll:d000005.o	curl_easy_init
0000000000001018	libcurl.dll:d000074.o	curl_slist_append
0000000000001020	libcurl.dll:d000015.o	curl_easy_strerror
0000000000001028	libcurl.dll:d000075.o	curl_slist_free_all
0000000000001030	libcurl.dll:d000001.o	curl_easy_cleanup
0000000000001038	libcurl.dll:d000014.o	curl_easy_setopt
0000000000001370	wxbase33u:strconv.obj	??__FwxConvUTF32BE@@YAXXZ
0000000000001380	wxbase33u:strconv.obj	??__FwxConvUTF32LE@@YAXXZ
0000000000002ba0	jsonreader.obj	__local_stdio_scanf_options
0000000000002bb0	jsonreader.obj	sscanf
0000000000002c10	automation.obj	??1?$wxArgNormalizerWchar@V?$basic_string@DU?$char_traits@D@std@@V?$allocator@D@2@@std@@@@QEAA@XZ
0000000000002c10	jsonreader.obj	??1?$SubstrBufFromType@V?$wxScopedCharTypeBuffer@_W@@@wxString@@QEAA@XZ
0000000000002c10	jsonreader.obj	??1?$wxArgNormalizerWchar@PEBD@@QEAA@XZ
0000000000002c10	jsonreader.obj	??1?$wxCharTypeBuffer@_W@@QEAA@XZ
0000000000002c10	jsonreader.obj	??1wxCharBuffer@@QEAA@XZ
0000000000002c10	jsonreader.obj	??1wxWCharBuffer@@QEAA@XZ
0000000000002c70	jsonreader.obj	?ResizeIfNeeded@wxMemoryBufferData@@AEAAX_K@Z
0000000000002d50	jsonreader.obj	??1wxMemoryBuffer@@QEAA@XZ
0000000000002d90	jsonreader.obj	?SetDataLen@wxMemoryBuffer@@QEAAX_K@Z
0000000000002e00	jsonreader.obj	?AppendData@wxMemoryBuffer@@QEAAXPEBX_K@Z
0000000000002ec0	MSVCRT:argv_mode.obj	_get_startup_argv_mode
0000000000002ec0	jsonreader.obj	?GetMBNulLen@wxMBConv@@UEBA_KXZ
0000000000002ec0	jsonreader.obj	?GetMaxCharLen@wxMBConv@@UEBA_KXZ
0000000000002ec0	wxbase33u:appbase.obj	?GetEventCategory@wxEvent@@UEBA?AW4wxEventCategory@@XZ
0000000000002ed0	jsonreader.obj	?IsUTF8@wxMBConv@@UEBA_NXZ
0000000000002ed0	wxbase33u:any.obj	?ConvertValue@?$wxAnyValueTypeImpl@VwxAnyNullValue@@@@UEBA_NAEBTwxAnyValueBuffer@@PEAVwxAnyValueType@@AEAT2@@Z
0000000000002ed0	wxbase33u:any.obj	?ConvertValue@?$wxAnyValueTypeImpl@VwxDateTime@@@@UEBA_NAEBTwxAnyValueBuffer@@PEAVwxAnyValueType@@AEAT2@@Z
0000000000002ed0	wxbase33u:any.obj	?ConvertValue@?$wxAnyValueTypeImpl@VwxVariant@@@@UEBA_NAEBTwxAnyValueBuffer@@PEAVwxAnyValueType@@AEAT2@@Z
0000000000002ed0	wxbase33u:any.obj	?ConvertValue@wxAnyValueTypeImplVariantData@@UEBA_NAEBTwxAnyValueBuffer@@PEAVwxAnyValueType@@AEAT2@@Z
0000000000002ed0	wxbase33u:appbase.obj	?IsGUI@wxAppConsoleBase@@UEBA_NXZ
0000000000002ed0	wxbase33u:appbase.obj	?IsUsingUniversalWidgets@wxConsoleAppTraitsBase@@UEBA_NXZ
0000000000002ed0	wxbase33u:appbase.obj	?SafeMessageBox@wxConsoleAppTraitsBase@@UEAA_NAEBVwxString@@0@Z
0000000000002ed0	wxbase33u:dde.obj	?OnAdvise@wxConnectionBase@@UEAA_NAEBVwxString@@0PEBX_KW4wxIPCFormat@@@Z
0000000000002ed0	wxbase33u:dde.obj	?OnPoke@wxConnectionBase@@UEAA_NAEBVwxString@@0PEBX_KW4wxIPCFormat@@@Z
0000000000002ed0	wxbase33u:dde.obj	?OnStartAdvise@wxConnectionBase@@UEAA_NAEBVwxString@@0@Z
0000000000002ed0	wxbase33u:dde.obj	?OnStopAdvise@wxConnectionBase@@UEAA_NAEBVwxString@@0@Z
0000000000002ed0	wxbase33u:event.obj	?TryBefore@wxEvtHandler@@MEAA_NAEAVwxEvent@@@Z
0000000000002ed0	wxbase33u:stackwalk.obj	?GetParam@wxStackFrameBase@@UEBA_N_KPEAVwxString@@11@Z
0000000000002ed0	wxbase33u:stream.obj	?IsSeekable@wxStreamBase@@UEBA_NXZ
0000000000002ed0	wxbase33u:variant.obj	?ConvertValue@?$wxAnyValueTypeImpl@PEAVwxObject@@@@UEBA_NAEBTwxAnyValueBuffer@@PEAVwxAnyValueType@@AEAT2@@Z
0000000000002ed0	wxbase33u:variant.obj	?ConvertValue@?$wxAnyValueTypeImpl@PEAX@@UEBA_NAEBTwxAnyValueBuffer@@PEAVwxAnyValueType@@AEAT2@@Z
0000000000002ed0	wxbase33u:variant.obj	?ConvertValue@?$wxAnyValueTypeImpl@VwxAnyList@@@@UEBA_NAEBTwxAnyValueBuffer@@PEAVwxAnyValueType@@AEAT2@@Z
0000000000002ed0	wxbase33u:variant.obj	?ConvertValue@?$wxAnyValueTypeImpl@VwxArrayString@@@@UEBA_NAEBTwxAnyValueBuffer@@PEAVwxAnyValueType@@AEAT2@@Z
0000000000002ed0	wxbase33u:variant.obj	?ConvertValue@?$wxAnyValueTypeImpl@VwxUniChar@@@@UEBA_NAEBTwxAnyValueBuffer@@PEAVwxAnyValueType@@AEAT2@@Z
0000000000002ed0	wxbase33u:variant.obj	?Read@wxVariantDataArrayString@@UEAA_NAEAV?$basic_istream@DU?$char_traits@D@std@@@std@@@Z
0000000000002ed0	wxbase33u:variant.obj	?Read@wxVariantDataDateTime@@UEAA_NAEAV?$basic_istream@DU?$char_traits@D@std@@@std@@@Z
0000000000002ed0	wxbase33u:variant.obj	?Read@wxVariantDataString@@UEAA_NAEAV?$basic_istream@DU?$char_traits@D@std@@@std@@@Z
0000000000002ed0	wxbase33u:variant.obj	?Read@wxVariantDataVoidPtr@@UEAA_NAEAV?$basic_istream@DU?$char_traits@D@std@@@std@@@Z
0000000000002ed0	wxbase33u:variant.obj	?Read@wxVariantDataVoidPtr@@UEAA_NAEAVwxString@@@Z
0000000000002ed0	wxbase33u:variant.obj	?Read@wxVariantDataWxObjectPtr@@UEAA_NAEAV?$basic_istream@DU?$char_traits@D@std@@@std@@@Z
0000000000002ed0	wxbase33u:variant.obj	?Read@wxVariantDataWxObjectPtr@@UEAA_NAEAVwxString@@@Z
0000000000002ed0	wxbase33u:variant.obj	?Write@wxVariantDataArrayString@@UEBA_NAEAV?$basic_ostream@DU?$char_traits@D@std@@@std@@@Z
0000000000002ee0	jsonreader.obj	??1wxMBConv@@UEAA@XZ
0000000000002ee0	jsonreader.obj	??1wxMBConvUTF8@@UEAA@XZ
0000000000002ee0	wxbase33u:dde.obj	??1wxMBConvUTF16LE@@UEAA@XZ
0000000000002ee0	wxbase33u:dde.obj	??1wxMBConvUTF32LE@@UEAA@XZ
0000000000002ee0	wxbase33u:strconv.obj	??1wxMBConvUTF7@@UEAA@XZ
0000000000002ef0	jsonreader.obj	??_GwxMBConv@@UEAAPEAXI@Z
0000000000002ef0	jsonreader.obj	??_GwxMBConvStrictUTF8@@UEAAPEAXI@Z
0000000000002ef0	wxbase33u:strconv.obj	??_EwxMBConvUTF16BE@@UEAAPEAXI@Z
0000000000002ef0	wxbase33u:strconv.obj	??_EwxMBConvUTF16LE@@UEAAPEAXI@Z
0000000000002ef0	wxbase33u:strconv.obj	??_EwxMBConvUTF32BE@@UEAAPEAXI@Z
0000000000002ef0	wxbase33u:strconv.obj	??_EwxMBConvUTF32LE@@UEAAPEAXI@Z
0000000000002ef0	wxbase33u:strconv.obj	??_EwxWhateverWorksConv@@UEAAPEAXI@Z
0000000000002ef0	wxbase33u:strconv.obj	??_GwxMBConvUTF16BE@@UEAAPEAXI@Z
0000000000002ef0	wxbase33u:strconv.obj	??_GwxMBConvUTF16LE@@UEAAPEAXI@Z
0000000000002ef0	wxbase33u:strconv.obj	??_GwxMBConvUTF32BE@@UEAAPEAXI@Z
0000000000002ef0	wxbase33u:strconv.obj	??_GwxMBConvUTF32LE@@UEAAPEAXI@Z
0000000000002ef0	wxbase33u:strconv.obj	??_GwxWhateverWorksConv@@UEAAPEAXI@Z
0000000000002f20	jsonreader.obj	?GetMaxCharLen@wxMBConvStrictUTF8@@UEBA_KXZ
0000000000002f20	jsonreader.obj	?GetMaxCharLen@wxMBConvUTF8@@UEBA_KXZ
0000000000002f20	wxbase33u:strconv.obj	?GetMBNulLen@wxMBConvUTF32Base@@UEBA_KXZ
0000000000002f20	wxbase33u:strconv.obj	?GetMaxCharLen@wxMBConvUTF16BE@@UEBA_KXZ
0000000000002f20	wxbase33u:strconv.obj	?GetMaxCharLen@wxMBConvUTF16LE@@UEBA_KXZ
0000000000002f20	wxbase33u:strconv.obj	?GetMaxCharLen@wxMBConvUTF32BE@@UEBA_KXZ
0000000000002f20	wxbase33u:strconv.obj	?GetMaxCharLen@wxMBConvUTF32LE@@UEBA_KXZ
0000000000002f20	wxbase33u:strconv.obj	?GetMaxCharLen@wxMBConvUTF7@@UEBA_KXZ
0000000000002f20	wxbase33u:strconv.obj	?GetMaxCharLen@wxWhateverWorksConv@@UEBA_KXZ
0000000000002f30	jsonreader.obj	?Clone@wxMBConvStrictUTF8@@UEBAPEAVwxMBConv@@XZ
0000000000002f50	MSVCRT:env_mode.obj	_should_initialize_environment
0000000000002f50	MSVCRT:ucrt_stubs.obj	__acrt_initialize
0000000000002f50	MSVCRT:ucrt_stubs.obj	__acrt_uninitialize
0000000000002f50	MSVCRT:ucrt_stubs.obj	__scrt_stub_for_acrt_initialize
0000000000002f50	MSVCRT:ucrt_stubs.obj	__scrt_stub_for_acrt_uninitialize
0000000000002f50	MSVCRT:ucrt_stubs.obj	__vcrt_initialize
0000000000002f50	MSVCRT:ucrt_stubs.obj	__vcrt_uninitialize
0000000000002f50	jsonreader.obj	?IsUTF8@wxMBConvStrictUTF8@@UEBA_NXZ
0000000000002f50	wxbase33u:any.obj	?OnInit@wxAnyValueTypeGlobalsManager@@UEAA_NXZ
0000000000002f50	wxbase33u:appbase.obj	?CanUseStderr@wxConsoleAppTraits@@UEAA_NXZ
0000000000002f50	wxbase33u:appbase.obj	?HasStderr@wxConsoleAppTraitsBase@@UEAA_NXZ
0000000000002f50	wxbase33u:appbase.obj	?OnDynamicBind@wxEvtHandler@@MEAA_NAEAUwxDynamicEventTableEntry@@@Z
0000000000002f50	wxbase33u:basemsw.obj	?DoMessageFromThreadWait@wxConsoleAppTraits@@UEAA_NXZ
0000000000002f50	wxbase33u:basemsw.obj	?IsOk@wxEventLoopBase@@UEBA_NXZ
0000000000002f50	wxbase33u:dde.obj	?OnInit@wxDDEModule@@UEAA_NXZ
0000000000002f50	wxbase33u:dde.obj	?ValidHost@wxDDEClient@@UEAA_NAEBVwxString@@@Z
0000000000002f50	wxbase33u:fmapbase.obj	?IsDummy@wxFontMapperBase@@UEAA_NXZ
0000000000002f50	wxbase33u:init.obj	?DoYield@wxDummyConsoleApp@@UEAA_N_NJ@Z
0000000000002f50	wxbase33u:intl.obj	?OnInit@wxLocaleModule@@UEAA_NXZ
0000000000002f50	wxbase33u:mstream.obj	?Close@wxOutputStream@@UEAA_NXZ
0000000000002f50	wxbase33u:mstream.obj	?IsSeekable@wxMemoryInputStream@@UEBA_NXZ
0000000000002f50	wxbase33u:mstream.obj	?IsSeekable@wxMemoryOutputStream@@UEBA_NXZ
0000000000002f50	wxbase33u:regconf.obj	?Flush@wxRegConfig@@UEAA_N_N@Z
0000000000002f50	wxbase33u:stream.obj	?IsOk@wxCountingOutputStream@@UEBA_NXZ
0000000000002f50	wxbase33u:timer.obj	?OnInit@wxTimerHiddenWindowModule@@UEAA_NXZ
0000000000002f50	wxbase33u:translation.obj	?OnInit@wxTranslationsModule@@UEAA_NXZ
0000000000002f50	wxbase33u:utilsexc.obj	?OnInit@wxExecuteModule@@UEAA_NXZ
0000000000002f50	wxbase33u:xlocale.obj	?OnInit@wxXLocaleModule@@UEAA_NXZ
0000000000002f60	jsonreader.obj	?Clone@wxMBConvUTF8@@UEBAPEAVwxMBConv@@XZ
0000000000002f90	jsonreader.obj	?IsUTF8@wxMBConvUTF8@@UEBA_NXZ
0000000000002fa0	jsonreader.obj	??_GwxMBConvUTF8@@UEAAPEAXI@Z
0000000000002fd0	jsonreader.obj	??0exception@std@@QEAA@AEBV01@@Z
0000000000003010	jsonreader.obj	?what@exception@std@@UEBAPEBDXZ
0000000000003030	jsonreader.obj	??_Gbad_alloc@std@@UEAAPEAXI@Z
0000000000003030	jsonreader.obj	??_Gbad_array_new_length@std@@UEAAPEAXI@Z
0000000000003030	jsonreader.obj	??_Gexception@std@@UEAAPEAXI@Z
0000000000003080	jsonreader.obj	??1bad_alloc@std@@UEAA@XZ
0000000000003080	jsonreader.obj	??1bad_array_new_length@std@@UEAA@XZ
00000000000030a0	jsonreader.obj	??0bad_array_new_length@std@@QEAA@XZ
00000000000030d0	MSVCRT:throw_bad_alloc.obj	?__scrt_throw_std_bad_array_new_length@@YAXXZ
00000000000030d0	jsonreader.obj	?_Throw_bad_array_new_length@std@@YAXXZ
00000000000030f0	jsonreader.obj	??0bad_array_new_length@std@@QEAA@AEBV01@@Z
0000000000003130	jsonreader.obj	??0bad_alloc@std@@QEAA@AEBV01@@Z
0000000000003170	jsonreader.obj	?_Xlen_string@std@@YAXXZ
0000000000003190	jsonreader.obj	??0wxFormatString@@QEAA@PEB_W@Z
00000000000031f0	jsonreader.obj	??0?$wxArgNormalizerWchar@PEBD@@QEAA@PEBDPEBVwxFormatString@@I@Z
0000000000003310	jsonreader.obj	??0wxString@@QEAA@XZ
0000000000003330	jsonreader.obj	??0wxString@@QEAA@AEBV0@@Z
0000000000003480	jsonreader.obj	??0wxString@@QEAA@PEBDAEBVwxMBConv@@_K@Z
0000000000003580	jsonreader.obj	??0wxString@@QEAA@PEB_W@Z
00000000000035c0	jsonreader.obj	?c_str@wxString@@QEBA?AVwxCStrData@@XZ
00000000000035e0	jsonreader.obj	?utf8_str@wxString@@QEBA?BV?$wxScopedCharTypeBuffer@D@@XZ
0000000000003620	jsonreader.obj	?mb_str@wxString@@QEBA?BV?$wxScopedCharTypeBuffer@D@@AEBVwxMBConv@@@Z
0000000000003710	jsonreader.obj	??4wxString@@QEAAAEAV0@AEBV0@@Z
0000000000003730	jsonreader.obj	?append@wxString@@QEAAAEAV1@_KVwxUniChar@@@Z
0000000000003850	jsonreader.obj	?clear@wxString@@QEAAXXZ
0000000000003870	jsonreader.obj	??1wxString@@QEAA@XZ
00000000000038e0	jsonreader.obj	??1wxFormatString@@QEAA@XZ
00000000000039d0	jsonreader.obj	??1wxCStrData@@QEAA@XZ
0000000000003a10	jsonreader.obj	??1wxArrayString@@QEAA@XZ
0000000000003a10	wxbase33u:stdpbase.obj	??1wxPathList@@QEAA@XZ
0000000000003a20	jsonreader.obj	??1wxLogRecordInfo@@QEAA@XZ
0000000000003b00	jsonreader.obj	??0ExtraData@wxLogRecordInfo@@QEAA@XZ
0000000000003c70	jsonreader.obj	??1ExtraData@wxLogRecordInfo@@QEAA@XZ
0000000000003d30	jsonreader.obj	??1?$_Hash@V?$_Umap_traits@VwxString@@_KV?$_Uhash_compare@VwxString@@UwxStringHash@@UwxStringEqual@@@std@@V?$allocator@U?$pair@$$CBVwxString@@_K@std@@@3@$0A@@std@@@std@@QEAA@XZ
0000000000003d30	jsonreader.obj	??1?$unordered_map@VwxString@@_KUwxStringHash@@UwxStringEqual@@V?$allocator@U?$pair@$$CBVwxString@@_K@std@@@std@@@std@@QEAA@XZ
0000000000003da0	jsonreader.obj	??1?$_Hash@V?$_Umap_traits@VwxString@@V1@V?$_Uhash_compare@VwxString@@UwxStringHash@@UwxStringEqual@@@std@@V?$allocator@U?$pair@$$CBVwxString@@V1@@std@@@3@$0A@@std@@@std@@QEAA@XZ
0000000000003e10	jsonreader.obj	?IsLevelEnabled@wxLog@@SA_NKAEBVwxString@@@Z
0000000000003e70	jsonreader.obj	??0wxLogger@@QEAA@KPEBDH00@Z
0000000000003ee0	jsonreader.obj	?DoLogTrace@wxLogger@@AEAAXAEBVwxString@@PEB_WZZ
00000000000040f0	jsonreader.obj	??1wxLogger@@QEAA@XZ
0000000000004110	jsonreader.obj	??_GwxJSONReader@@UEAAPEAXI@Z
0000000000004170	jsonreader.obj	??1wxJSONReader@@UEAA@XZ
00000000000041b0	jsonreader.obj	?Parse@wxJSONReader@@QEAAHAEBVwxString@@PEAVwxJSONValue@@@Z
0000000000004400	jsonreader.obj	?Parse@wxJSONReader@@QEAAHAEAVwxInputStream@@PEAVwxJSONValue@@@Z
0000000000004780	jsonreader.obj	?DoRead@wxJSONReader@@IEAAHAEAVwxInputStream@@AEAVwxJSONValue@@@Z
00000000000054c8	jsonreader.obj	$LN3189
00000000000054fc	jsonreader.obj	$LN3188
0000000000005580	jsonreader.obj	?StoreValue@wxJSONReader@@IEAAXHAEBVwxString@@AEAVwxJSONValue@@1@Z
00000000000067e0	jsonreader.obj	?AddError@wxJSONReader@@IEAAXAEBVwxString@@@Z
0000000000006c80	jsonreader.obj	?AddError@wxJSONReader@@IEAAXAEBVwxString@@0@Z
0000000000006e80	jsonreader.obj	?AddError@wxJSONReader@@IEAAXAEBVwxString@@_W@Z
0000000000007040	jsonreader.obj	?AddWarning@wxJSONReader@@IEAAXHAEBVwxString@@@Z
0000000000007500	jsonreader.obj	?SkipWhiteSpace@wxJSONReader@@IEAAHAEAVwxInputStream@@@Z
0000000000007800	jsonreader.obj	?SkipComment@wxJSONReader@@IEAAHAEAVwxInputStream@@@Z
0000000000008d60	jsonreader.obj	?ReadString@wxJSONReader@@IEAAHAEAVwxInputStream@@AEAVwxJSONValue@@@Z
000000000000a5b0	jsonreader.obj	$LN1493
000000000000a5dc	jsonreader.obj	$LN1492
000000000000a660	jsonreader.obj	?ReadToken@wxJSONReader@@IEAAHAEAVwxInputStream@@HAEAVwxString@@@Z
000000000000b08c	jsonreader.obj	$LN712
000000000000b094	jsonreader.obj	$LN711
000000000000b110	jsonreader.obj	?ReadValue@wxJSONReader@@IEAAHAEAVwxInputStream@@HAEAVwxJSONValue@@@Z
000000000000d5d4	jsonreader.obj	$LN2823
000000000000d610	jsonreader.obj	?AppendUES@wxJSONReader@@IEAAHAEAVwxMemoryBuffer@@PEBD@Z
000000000000da40	jsonreader.obj	?StoreComment@wxJSONReader@@IEAAXPEBVwxJSONValue@@@Z
000000000000ee60	jsonreader.obj	?ReadMemoryBuff@wxJSONReader@@IEAAHAEAVwxInputStream@@AEAVwxJSONValue@@@Z
000000000000fa30	jsonreader.obj	??1?$_Hash_vec@V?$allocator@V?$_List_unchecked_iterator@V?$_List_val@U?$_List_simple_types@U?$pair@$$CBVwxString@@V1@@std@@@std@@@std@@@std@@@std@@@std@@QEAA@XZ
000000000000fa30	jsonreader.obj	??1?$_Hash_vec@V?$allocator@V?$_List_unchecked_iterator@V?$_List_val@U?$_List_simple_types@U?$pair@$$CBVwxString@@_K@std@@@std@@@std@@@std@@@std@@@std@@QEAA@XZ
000000000000fa30	jsonval.obj	??1?$_Hash_vec@V?$allocator@V?$_List_unchecked_iterator@V?$_List_val@U?$_List_simple_types@U?$pair@$$CBVwxString@@VwxJSONValue@@@std@@@std@@@std@@@std@@@std@@@std@@QEAA@XZ
000000000000fa30	wxbase33u:any.obj	??1?$_Hash_vec@V?$allocator@V?$_List_unchecked_iterator@V?$_List_val@U?$_List_simple_types@U?$pair@QEAVwxAnyValueType@@P6APEAVwxVariantData@@AEBVwxAny@@@Z@std@@@std@@@std@@@std@@@std@@@std@@QEAA@XZ
000000000000fa30	wxbase33u:dde.obj	??1?$_Hash_vec@V?$allocator@V?$_List_unchecked_iterator@V?$_List_val@U?$_List_simple_types@U?$pair@$$CBVwxString@@PEAUHSZ__@@@std@@@std@@@std@@@std@@@std@@@std@@QEAA@XZ
000000000000fa30	wxbase33u:strconv.obj	??1?$_Hash_vec@V?$allocator@V?$_List_unchecked_iterator@V?$_List_val@U?$_List_simple_types@U?$pair@$$CBW4wxFontEncoding@@VwxString@@@std@@@std@@@std@@@std@@@std@@@std@@QEAA@XZ
000000000000fa30	wxbase33u:threadinfo.obj	??1?$_Hash_vec@V?$allocator@V?$_List_unchecked_const_iterator@V?$_List_val@U?$_List_simple_types@VwxString@@@std@@@std@@U_Iterator_base0@2@@std@@@std@@@std@@QEAA@XZ
000000000000fa30	wxbase33u:timer.obj	??1?$_Hash_vec@V?$allocator@V?$_List_unchecked_iterator@V?$_List_val@U?$_List_simple_types@U?$pair@$$CB_KPEAVwxMSWTimerImpl@@@std@@@std@@@std@@@std@@@std@@@std@@QEAA@XZ
000000000000fa90	jsonreader.obj	??1?$list@U?$pair@$$CBVwxString@@V1@@std@@V?$allocator@U?$pair@$$CBVwxString@@V1@@std@@@2@@std@@QEAA@XZ
000000000000fb10	jsonreader.obj	??1?$list@U?$pair@$$CBVwxString@@_K@std@@V?$allocator@U?$pair@$$CBVwxString@@_K@std@@@2@@std@@QEAA@XZ
000000000000fb80	jsonreader.obj	?clear@?$vector@VwxString@@V?$allocator@VwxString@@@std@@@std@@QEAAXXZ
000000000000fbd0	jsonreader.obj	??1?$vector@VwxString@@V?$allocator@VwxString@@@std@@@std@@QEAA@XZ
000000000000fbd0	jsonreader.obj	?_Tidy@?$vector@VwxString@@V?$allocator@VwxString@@@std@@@std@@AEAAXXZ
000000000000fc90	jsonreader.obj	??1?$ConvertedBuffer@D@wxString@@QEAA@XZ
000000000000fca0	jsonreader.obj	?assign@?$basic_string@_WU?$char_traits@_W@std@@V?$allocator@_W@2@@std@@QEAAAEAV12@QEB_W_K@Z
000000000000fd10	jsonreader.obj	?append@?$basic_string@_WU?$char_traits@_W@std@@V?$allocator@_W@2@@std@@QEAAAEAV12@QEB_W_K@Z
000000000000fd90	jsonreader.obj	??4?$basic_string@_WU?$char_traits@_W@std@@V?$allocator@_W@2@@std@@QEAAAEAV01@AEBV01@@Z
000000000000fe10	jsonreader.obj	??1?$basic_string@_WU?$char_traits@_W@std@@V?$allocator@_W@2@@std@@QEAA@XZ
000000000000fe10	jsonreader.obj	?_Tidy_deallocate@?$basic_string@_WU?$char_traits@_W@std@@V?$allocator@_W@2@@std@@AEAAXXZ
000000000000fe80	jsonreader.obj	??0?$basic_string@_WU?$char_traits@_W@std@@V?$allocator@_W@2@@std@@QEAA@QEB_W@Z
000000000000ffd0	jsonreader.obj	??0?$basic_string@_WU?$char_traits@_W@std@@V?$allocator@_W@2@@std@@QEAA@AEBV01@@Z
0000000000010100	jsonreader.obj	??1?$wxScopedCharTypeBuffer@D@@QEAA@XZ
0000000000010100	jsonreader.obj	??1?$wxScopedCharTypeBuffer@_W@@QEAA@XZ
0000000000010160	jsonreader.obj	?CreateNonOwned@?$wxScopedCharTypeBuffer@_W@@SA?BV1@PEB_W_K@Z
0000000000010200	jsonreader.obj	?CreateNonOwned@?$wxScopedCharTypeBuffer@D@@SA?BV1@PEBD_K@Z
00000000000102a0	jsonreader.obj	?_Xlength@?$vector@VwxString@@V?$allocator@VwxString@@@std@@@std@@CAXXZ
00000000000102a0	jsonval.obj	?_Xlength@?$vector@PEAVwxJSONValue@@V?$allocator@PEAVwxJSONValue@@@std@@@std@@CAXXZ
00000000000102c0	jsonreader.obj	?insert@?$vector@VwxString@@V?$allocator@VwxString@@@std@@@std@@QEAA?AV?$_Vector_iterator@V?$_Vector_val@U?$_Simple_types@VwxString@@@std@@@std@@@2@V?$_Vector_const_iterator@V?$_Vector_val@U?$_Simple_types@VwxString@@@std@@@std@@@2@_KAEBVwxString@@@Z
00000000000106e0	jsonreader.obj	?DecRef@?$wxScopedCharTypeBuffer@D@@IEAAXXZ
00000000000106e0	jsonreader.obj	?DecRef@?$wxScopedCharTypeBuffer@_W@@IEAAXXZ
0000000000010740	jsonreader.obj	?StrCopy@?$wxScopedCharTypeBuffer@D@@KAPEADPEBD_K@Z
0000000000010790	jsonreader.obj	??1?$_Alloc_temporary2@V?$allocator@VwxString@@@std@@@std@@QEAA@XZ
00000000000107a0	jsonreader.obj	?_Assign_grow@?$_Hash_vec@V?$allocator@V?$_List_unchecked_iterator@V?$_List_val@U?$_List_simple_types@U?$pair@$$CBVwxString@@V1@@std@@@std@@@std@@@std@@@std@@@std@@QEAAX_KV?$_List_unchecked_iterator@V?$_List_val@U?$_List_simple_types@U?$pair@$$CBVwxString@@V1@@std@@@std@@@std@@@2@@Z
00000000000107a0	jsonreader.obj	?_Assign_grow@?$_Hash_vec@V?$allocator@V?$_List_unchecked_iterator@V?$_List_val@U?$_List_simple_types@U?$pair@$$CBVwxString@@_K@std@@@std@@@std@@@std@@@std@@@std@@QEAAX_KV?$_List_unchecked_iterator@V?$_List_val@U?$_List_simple_types@U?$pair@$$CBVwxString@@_K@std@@@std@@@std@@@2@@Z
00000000000107a0	jsonval.obj	?_Assign_grow@?$_Hash_vec@V?$allocator@V?$_List_unchecked_iterator@V?$_List_val@U?$_List_simple_types@U?$pair@$$CBVwxString@@VwxJSONValue@@@std@@@std@@@std@@@std@@@std@@@std@@QEAAX_KV?$_List_unchecked_iterator@V?$_List_val@U?$_List_simple_types@U?$pair@$$CBVwxString@@VwxJSONValue@@@std@@@std@@@std@@@2@@Z
00000000000108e0	jsonreader.obj	?_Change_array@?$vector@VwxString@@V?$allocator@VwxString@@@std@@@std@@AEAAXQEAVwxString@@_K1@Z
00000000000109c0	jsonreader.obj	?allocate@?$allocator@VwxString@@@std@@QEAAPEAVwxString@@_K@Z
0000000000010a30	jsonreader.obj	?deallocate@?$allocator@VwxString@@@std@@QEAAXQEAVwxString@@_K@Z
0000000000010a80	jsonreader.obj	?deallocate@?$allocator@_W@std@@QEAAXQEA_W_K@Z
0000000000010ac0	jsonreader.obj	??$LogTrace@PEBDHD@wxLogger@@QEAAXAEBVwxString@@AEBVwxFormatString@@PEBDHD@Z
0000000000010d50	jsonreader.obj	??$LogTrace@PEBDVwxCStrData@@@wxLogger@@QEAAXAEBVwxString@@AEBVwxFormatString@@PEBDVwxCStrData@@@Z
0000000000010f90	jsonreader.obj	??$LogTrace@PEBD@wxLogger@@QEAAXAEBVwxString@@AEBVwxFormatString@@PEBD@Z
0000000000011120	jsonreader.obj	??$Printf@HHVwxCStrData@@@wxString@@QEAAHAEBVwxFormatString@@HHVwxCStrData@@@Z
00000000000112e0	jsonreader.obj	??$LogTrace@PEBDHH@wxLogger@@QEAAXAEBVwxString@@AEBVwxFormatString@@PEBDHH@Z
0000000000011540	jsonreader.obj	??$LogTrace@PEBD_N@wxLogger@@QEAAXAEBVwxString@@AEBVwxFormatString@@PEBD_N@Z
0000000000011730	jsonreader.obj	??$LogTrace@PEBDPEBDK@wxLogger@@QEAAXAEBVwxString@@AEBVwxFormatString@@PEBD2K@Z
0000000000011a70	jsonreader.obj	??$LogTrace@PEBDPEAVwxJSONValue@@@wxLogger@@QEAAXAEBVwxString@@AEBVwxFormatString@@PEBDPEAVwxJSONValue@@@Z
0000000000011c60	jsonreader.obj	??$LogTrace@PEBDH@wxLogger@@QEAAXAEBVwxString@@AEBVwxFormatString@@PEBDH@Z
0000000000011e50	jsonreader.obj	??$_Try_emplace@AEBVwxString@@$$V@?$_Hash@V?$_Umap_traits@VwxString@@V1@V?$_Uhash_compare@VwxString@@UwxStringHash@@UwxStringEqual@@@std@@V?$allocator@U?$pair@$$CBVwxString@@V1@@std@@@3@$0A@@std@@@std@@IEAA?AU?$pair@PEAU?$_List_node@U?$pair@$$CBVwxString@@V1@@std@@PEAX@std@@_N@1@AEBVwxString@@@Z
0000000000012160	jsonreader.obj	??$_Destroy_range@V?$allocator@VwxString@@@std@@@std@@YAXPEAVwxString@@QEAV1@AEAV?$allocator@VwxString@@@0@@Z
00000000000121a0	jsonreader.obj	??$_Reallocate_for@V<lambda_1>@?1??assign@?$basic_string@_WU?$char_traits@_W@std@@V?$allocator@_W@2@@std@@QEAAAEAV34@QEB_W_K@Z@PEB_W@?$basic_string@_WU?$char_traits@_W@std@@V?$allocator@_W@2@@std@@AEAAAEAV01@_KV<lambda_1>@?1??assign@01@QEAAAEAV01@QEB_W0@Z@PEB_W@Z
0000000000012310	jsonreader.obj	??$_Reallocate_grow_by@V<lambda_1>@?1??append@?$basic_string@_WU?$char_traits@_W@std@@V?$allocator@_W@2@@std@@QEAAAEAV34@_K_W@Z@_K_W@?$basic_string@_WU?$char_traits@_W@std@@V?$allocator@_W@2@@std@@AEAAAEAV01@_KV<lambda_1>@?1??append@01@QEAAAEAV01@0_W@Z@_K_W@Z
00000000000124e0	jsonreader.obj	??$_Reallocate_grow_by@V<lambda_1>@?1??append@?$basic_string@_WU?$char_traits@_W@std@@V?$allocator@_W@2@@std@@QEAAAEAV34@QEB_W_K@Z@PEB_W_K@?$basic_string@_WU?$char_traits@_W@std@@V?$allocator@_W@2@@std@@AEAAAEAV01@_KV<lambda_1>@?1??append@01@QEAAAEAV01@QEB_W0@Z@PEB_W_K@Z
00000000000126b0	jsonreader.obj	??$_Construct@$00PEB_W@?$basic_string@_WU?$char_traits@_W@std@@V?$allocator@_W@2@@std@@AEAAXQEB_W_K@Z
00000000000127f0	jsonreader.obj	??$_Free_non_head@V?$allocator@U?$_List_node@U?$pair@$$CBVwxString@@V1@@std@@PEAX@std@@@std@@@?$_List_node@U?$pair@$$CBVwxString@@V1@@std@@PEAX@std@@SAXAEAV?$allocator@U?$_List_node@U?$pair@$$CBVwxString@@V1@@std@@PEAX@std@@@1@PEAU01@@Z
0000000000012850	jsonreader.obj	??$_Uninitialized_copy@PEAVwxString@@V?$allocator@VwxString@@@std@@@std@@YAPEAVwxString@@QEAV1@0PEAV1@AEAV?$allocator@VwxString@@@0@@Z
0000000000012850	jsonreader.obj	??$_Uninitialized_move@PEAVwxString@@V?$allocator@VwxString@@@std@@@std@@YAPEAVwxString@@QEAV1@0PEAV1@AEAV?$allocator@VwxString@@@0@@Z
00000000000128d0	jsonreader.obj	??$_Uninitialized_fill_n@V?$allocator@VwxString@@@std@@@std@@YAPEAVwxString@@PEAV1@_KAEBV1@AEAV?$allocator@VwxString@@@0@@Z
0000000000012950	jsonreader.obj	??1?$_Uninitialized_backout_al@V?$allocator@VwxString@@@std@@@std@@QEAA@XZ
0000000000012990	jsonreader.obj	??1?$_List_node_emplace_op2@V?$allocator@U?$_List_node@U?$pair@$$CBVwxString@@V1@@std@@PEAX@std@@@std@@@std@@QEAA@XZ
00000000000129e0	jsonreader.obj	?_Calculate_growth@?$basic_string@_WU?$char_traits@_W@std@@V?$allocator@_W@2@@std@@AEBA_K_K@Z
0000000000012a20	jsonreader.obj	?allocate@?$allocator@_W@std@@QEAAPEA_W_K@Z
0000000000012a90	jsonreader.obj	??1?$_Alloc_construct_ptr@V?$allocator@U?$_List_node@U?$pair@$$CBVwxString@@V1@@std@@PEAX@std@@@std@@@std@@QEAA@XZ
0000000000012ab0	jsonreader.obj	?_Forced_rehash@?$_Hash@V?$_Umap_traits@VwxString@@V1@V?$_Uhash_compare@VwxString@@UwxStringHash@@UwxStringEqual@@@std@@V?$allocator@U?$pair@$$CBVwxString@@V1@@std@@@3@$0A@@std@@@std@@IEAAX_K@Z
0000000000012c80	jsonreader.obj	??$_Find_last@VwxString@@@?$_Hash@V?$_Umap_traits@VwxString@@V1@V?$_Uhash_compare@VwxString@@UwxStringHash@@UwxStringEqual@@@std@@V?$allocator@U?$pair@$$CBVwxString@@V1@@std@@@3@$0A@@std@@@std@@IEBA?AU?$_Hash_find_last_result@PEAU?$_List_node@U?$pair@$$CBVwxString@@V1@@std@@PEAX@std@@@1@AEBVwxString@@_K@Z
0000000000012c80	wxbase33u:dde.obj	??$_Find_last@VwxString@@@?$_Hash@V?$_Umap_traits@VwxString@@PEAUHSZ__@@V?$_Uhash_compare@VwxString@@UwxStringHash@@UwxStringEqual@@@std@@V?$allocator@U?$pair@$$CBVwxString@@PEAUHSZ__@@@std@@@4@$0A@@std@@@std@@IEBA?AU?$_Hash_find_last_result@PEAU?$_List_node@U?$pair@$$CBVwxString@@PEAUHSZ__@@@std@@PEAX@std@@@1@AEBVwxString@@_K@Z
0000000000012c80	wxbase33u:thread.obj	??$_Find_last@VwxString@@@?$_Hash@V?$_Umap_traits@VwxString@@_KV?$_Uhash_compare@VwxString@@UwxStringHash@@UwxStringEqual@@@std@@V?$allocator@U?$pair@$$CBVwxString@@_K@std@@@3@$0A@@std@@@std@@IEBA?AU?$_Hash_find_last_result@PEAU?$_List_node@U?$pair@$$CBVwxString@@_K@std@@PEAX@std@@@1@AEBVwxString@@_K@Z
0000000000012c80	wxbase33u:translation.obj	??$_Find_last@VwxString@@@?$_Hash@V?$_Umap_traits@VwxString@@PEAVwxMsgCatalog@@V?$_Uhash_compare@VwxString@@UwxStringHash@@UwxStringEqual@@@std@@V?$allocator@U?$pair@$$CBVwxString@@PEAVwxMsgCatalog@@@std@@@4@$0A@@std@@@std@@IEBA?AU?$_Hash_find_last_result@PEAU?$_List_node@U?$pair@$$CBVwxString@@PEAVwxMsgCatalog@@@std@@PEAX@std@@@1@AEBVwxString@@_K@Z
0000000000012c80	wxbase33u:translation.obj	??$_Find_last@VwxString@@@?$_Hash@V?$_Uset_traits@VwxString@@V?$_Uhash_compare@VwxString@@UwxStringHash@@UwxStringEqual@@@std@@V?$allocator@VwxString@@@3@$0A@@std@@@std@@IEBA?AU?$_Hash_find_last_result@PEAU?$_List_node@VwxString@@PEAX@std@@@1@AEBVwxString@@_K@Z
0000000000012d30	jsonval.obj	??4wxString@@QEAAAEAV0@PEB_W@Z
0000000000012d70	jsonval.obj	??0wxJSONRefData@@QEAA@XZ
0000000000012e60	jsonval.obj	??_GwxJSONRefData@@UEAAPEAXI@Z
0000000000012f10	jsonval.obj	??1wxJSONInternalArray@@QEAA@XZ
0000000000012f20	jsonval.obj	??1?$_Hash@V?$_Umap_traits@VwxString@@VwxJSONValue@@V?$_Uhash_compare@VwxString@@UwxStringHash@@UwxStringEqual@@@std@@V?$allocator@U?$pair@$$CBVwxString@@VwxJSONValue@@@std@@@4@$0A@@std@@@std@@QEAA@XZ
0000000000012f90	jsonval.obj	??0wxJSONValue@@QEAA@XZ
0000000000013060	jsonval.obj	??_GwxJSONValue@@UEAAPEAXI@Z
00000000000130a0	jsonval.obj	?Init@wxJSONValue@@IEAAPEAVwxJSONRefData@@W4wxJSONType@@@Z
0000000000013160	jsonval.obj	??1wxJSONValue@@UEAA@XZ
0000000000013180	jsonval.obj	?GetType@wxJSONValue@@QEBA?AW4wxJSONType@@XZ
0000000000013200	jsonval.obj	?IsValid@wxJSONValue@@QEBA_NXZ
0000000000013290	jsonval.obj	?IsLong@wxJSONValue@@QEBA_NXZ
0000000000013300	jsonval.obj	?IsArray@wxJSONValue@@QEBA_NXZ
0000000000013390	jsonval.obj	?IsObject@wxJSONValue@@QEBA_NXZ
0000000000013420	jsonval.obj	?AsString@wxJSONValue@@QEBA?AVwxString@@XZ
0000000000013b3c	jsonval.obj	$LN515
0000000000013b80	jsonval.obj	?AsLong@wxJSONValue@@QEBAJXZ
0000000000013c40	jsonval.obj	?HasMember@wxJSONValue@@QEBA_NAEBVwxString@@@Z
0000000000013d40	jsonval.obj	?GetMemberNames@wxJSONValue@@QEBA?AVwxArrayString@@XZ
0000000000013e90	jsonval.obj	?Item@wxJSONValue@@QEAAAEAV1@AEBVwxString@@@Z
00000000000146c0	jsonval.obj	??4wxJSONValue@@QEAAAEAV0@J@Z
00000000000146f0	jsonval.obj	?GetInfo@wxJSONValue@@QEBA?AVwxString@@XZ
0000000000014a50	jsonval.obj	?AddComment@wxJSONValue@@QEAAHAEBVwxString@@H@Z
0000000000015c30	jsonval.obj	?SetType@wxJSONValue@@QEAAPEAVwxJSONRefData@@W4wxJSONType@@@Z
0000000000015e40	jsonval.obj	?GetLineNo@wxJSONValue@@QEBAHXZ
0000000000015e60	jsonval.obj	?UnRef@wxJSONValue@@IEAAXXZ
0000000000015ef0	jsonval.obj	?CloneRefData@wxJSONValue@@MEBAPEAVwxJSONRefData@@PEBV2@@Z
0000000000016390	jsonval.obj	?CreateRefData@wxJSONValue@@MEBAPEAVwxJSONRefData@@XZ
00000000000163d0	jsonval.obj	?COW@wxJSONValue@@IEAAPEAVwxJSONRefData@@XZ
0000000000016920	jsonval.obj	?MemoryBuffToString@wxJSONValue@@SA?AVwxString@@PEBX_K1@Z
0000000000016b20	jsonval.obj	?clear@?$_Hash@V?$_Umap_traits@VwxString@@VwxJSONValue@@V?$_Uhash_compare@VwxString@@UwxStringHash@@UwxStringEqual@@@std@@V?$allocator@U?$pair@$$CBVwxString@@VwxJSONValue@@@std@@@4@$0A@@std@@@std@@QEAAXXZ
0000000000016ba0	jsonval.obj	??1?$list@U?$pair@$$CBVwxString@@VwxJSONValue@@@std@@V?$allocator@U?$pair@$$CBVwxString@@VwxJSONValue@@@std@@@2@@std@@QEAA@XZ
0000000000016bd0	jsonval.obj	?Add@?$wxBaseObjectArray@VwxJSONValue@@VwxObjectArrayTraitsForwxJSONInternalArray@@@@QEAAXAEBVwxJSONValue@@_K@Z
0000000000016c80	jsonval.obj	??1?$wxBaseObjectArray@VwxJSONValue@@VwxObjectArrayTraitsForwxJSONInternalArray@@@@QEAA@XZ
0000000000016d40	jsonval.obj	??4?$basic_string@_WU?$char_traits@_W@std@@V?$allocator@_W@2@@std@@QEAAAEAV01@QEB_W@Z
0000000000016d40	jsonval.obj	?assign@?$basic_string@_WU?$char_traits@_W@std@@V?$allocator@_W@2@@std@@QEAAAEAV12@QEB_W@Z
0000000000016dc0	jsonval.obj	?_Unchecked_erase@?$_Hash@V?$_Umap_traits@VwxString@@VwxJSONValue@@V?$_Uhash_compare@VwxString@@UwxStringHash@@UwxStringEqual@@@std@@V?$allocator@U?$pair@$$CBVwxString@@VwxJSONValue@@@std@@@4@$0A@@std@@@std@@AEAAPEAU?$_List_node@U?$pair@$$CBVwxString@@VwxJSONValue@@@std@@PEAX@2@PEAU32@QEAU32@@Z
0000000000016f90	jsonval.obj	??4?$_Hash@V?$_Umap_traits@VwxString@@VwxJSONValue@@V?$_Uhash_compare@VwxString@@UwxStringHash@@UwxStringEqual@@@std@@V?$allocator@U?$pair@$$CBVwxString@@VwxJSONValue@@@std@@@4@$0A@@std@@@std@@QEAAAEAV01@AEBV01@@Z
0000000000017110	jsonval.obj	?insert@?$vector@PEAVwxJSONValue@@V?$allocator@PEAVwxJSONValue@@@std@@@std@@QEAA?AV?$_Vector_iterator@V?$_Vector_val@U?$_Simple_types@PEAVwxJSONValue@@@std@@@std@@@2@V?$_Vector_const_iterator@V?$_Vector_val@U?$_Simple_types@PEAVwxJSONValue@@@std@@@std@@@2@_KAEBQEAVwxJSONValue@@@Z
0000000000017440	jsonval.obj	??1_Clear_guard@?$_Hash@V?$_Umap_traits@VwxString@@VwxJSONValue@@V?$_Uhash_compare@VwxString@@UwxStringHash@@UwxStringEqual@@@std@@V?$allocator@U?$pair@$$CBVwxString@@VwxJSONValue@@@std@@@4@$0A@@std@@@std@@QEAA@XZ
0000000000017450	jsonval.obj	?_Forced_rehash@?$_Hash@V?$_Umap_traits@VwxString@@VwxJSONValue@@V?$_Uhash_compare@VwxString@@UwxStringHash@@UwxStringEqual@@@std@@V?$allocator@U?$pair@$$CBVwxString@@VwxJSONValue@@@std@@@4@$0A@@std@@@std@@IEAAX_K@Z
0000000000017630	jsonval.obj	?_Desired_grow_bucket_count@?$_Hash@V?$_Umap_traits@VwxString@@VwxJSONValue@@V?$_Uhash_compare@VwxString@@UwxStringHash@@UwxStringEqual@@@std@@V?$allocator@U?$pair@$$CBVwxString@@VwxJSONValue@@@std@@@4@$0A@@std@@@std@@IEBA_K_K@Z
00000000000176d0	jsonval.obj	?_Reallocate_exactly@?$vector@PEAVwxJSONValue@@V?$allocator@PEAVwxJSONValue@@@std@@@std@@AEAAX_K@Z
00000000000177d0	jsonval.obj	??$Printf@VwxCStrData@@H_K@wxString@@QEAAHAEBVwxFormatString@@VwxCStrData@@H_K@Z
0000000000017990	jsonval.obj	??$LogTrace@PEBDPEAVwxJSONRefData@@H@wxLogger@@QEAAXAEBVwxString@@AEBVwxFormatString@@PEBDPEAVwxJSONRefData@@H@Z
0000000000017bf0	jsonval.obj	??$_Try_emplace@AEBVwxString@@$$V@?$_Hash@V?$_Umap_traits@VwxString@@VwxJSONValue@@V?$_Uhash_compare@VwxString@@UwxStringHash@@UwxStringEqual@@@std@@V?$allocator@U?$pair@$$CBVwxString@@VwxJSONValue@@@std@@@4@$0A@@std@@@std@@IEAA?AU?$pair@PEAU?$_List_node@U?$pair@$$CBVwxString@@VwxJSONValue@@@std@@PEAX@std@@_N@1@AEBVwxString@@@Z
0000000000017e90	jsonval.obj	??$fill@PEAV?$_List_unchecked_iterator@V?$_List_val@U?$_List_simple_types@U?$pair@$$CBVwxString@@VwxJSONValue@@@std@@@std@@@std@@@std@@V12@@std@@YAXQEAV?$_List_unchecked_iterator@V?$_List_val@U?$_List_simple_types@U?$pair@$$CBVwxString@@VwxJSONValue@@@std@@@std@@@std@@@0@0AEBV10@@Z
0000000000017e90	wxbase33u:any.obj	??$fill@PEAV?$_List_unchecked_iterator@V?$_List_val@U?$_List_simple_types@U?$pair@QEAVwxAnyValueType@@P6APEAVwxVariantData@@AEBVwxAny@@@Z@std@@@std@@@std@@@std@@V12@@std@@YAXQEAV?$_List_unchecked_iterator@V?$_List_val@U?$_List_simple_types@U?$pair@QEAVwxAnyValueType@@P6APEAVwxVariantData@@AEBVwxAny@@@Z@std@@@std@@@std@@@0@0AEBV10@@Z
0000000000017e90	wxbase33u:dde.obj	??$fill@PEAV?$_List_unchecked_iterator@V?$_List_val@U?$_List_simple_types@U?$pair@$$CBVwxString@@PEAUHSZ__@@@std@@@std@@@std@@@std@@V12@@std@@YAXQEAV?$_List_unchecked_iterator@V?$_List_val@U?$_List_simple_types@U?$pair@$$CBVwxString@@PEAUHSZ__@@@std@@@std@@@std@@@0@0AEBV10@@Z
0000000000017e90	wxbase33u:timer.obj	??$fill@PEAV?$_List_unchecked_iterator@V?$_List_val@U?$_List_simple_types@U?$pair@$$CB_KPEAVwxMSWTimerImpl@@@std@@@std@@@std@@@std@@V12@@std@@YAXQEAV?$_List_unchecked_iterator@V?$_List_val@U?$_List_simple_types@U?$pair@$$CB_KPEAVwxMSWTimerImpl@@@std@@@std@@@std@@@0@0AEBV10@@Z
0000000000017e90	wxbase33u:translation.obj	??$fill@PEAV?$_List_unchecked_const_iterator@V?$_List_val@U?$_List_simple_types@VwxString@@@std@@@std@@U_Iterator_base0@2@@std@@V12@@std@@YAXQEAV?$_List_unchecked_const_iterator@V?$_List_val@U?$_List_simple_types@VwxString@@@std@@@std@@U_Iterator_base0@2@@0@0AEBV10@@Z
0000000000017f20	jsonval.obj	??$_Free_non_head@V?$allocator@U?$_List_node@U?$pair@$$CBVwxString@@VwxJSONValue@@@std@@PEAX@std@@@std@@@?$_List_node@U?$pair@$$CBVwxString@@VwxJSONValue@@@std@@PEAX@std@@SAXAEAV?$allocator@U?$_List_node@U?$pair@$$CBVwxString@@VwxJSONValue@@@std@@PEAX@std@@@1@PEAU01@@Z
0000000000017fa0	jsonval.obj	??1?$_List_node_insert_op2@V?$allocator@U?$_List_node@U?$pair@$$CBVwxString@@VwxJSONValue@@@std@@PEAX@std@@@std@@@std@@QEAA@XZ
0000000000018030	jsonval.obj	??1?$_List_node_emplace_op2@V?$allocator@U?$_List_node@U?$pair@$$CBVwxString@@VwxJSONValue@@@std@@PEAX@std@@@std@@@std@@QEAA@XZ
0000000000018090	jsonval.obj	??1?$_Alloc_construct_ptr@V?$allocator@U?$_List_node@U?$pair@$$CBVwxString@@VwxJSONValue@@@std@@PEAX@std@@@std@@@std@@QEAA@XZ
00000000000180b0	jsonval.obj	??$_Assign_range@PEAVwxString@@@?$vector@VwxString@@V?$allocator@VwxString@@@std@@@std@@AEAAXPEAVwxString@@0Uforward_iterator_tag@1@@Z
0000000000018220	jsonval.obj	??$_Append_range_unchecked@V?$_List_unchecked_const_iterator@V?$_List_val@U?$_List_simple_types@U?$pair@$$CBVwxString@@VwxJSONValue@@@std@@@std@@@std@@U_Iterator_base0@2@@std@@V12@@?$_List_node_insert_op2@V?$allocator@U?$_List_node@U?$pair@$$CBVwxString@@VwxJSONValue@@@std@@PEAX@std@@@std@@@std@@QEAAXV?$_List_unchecked_const_iterator@V?$_List_val@U?$_List_simple_types@U?$pair@$$CBVwxString@@VwxJSONValue@@@std@@@std@@@std@@U_Iterator_base0@2@@1@V21@@Z
0000000000018390	jsonval.obj	?_Clear_and_reserve_geometric@?$vector@VwxString@@V?$allocator@VwxString@@@std@@@std@@AEAAX_K@Z
0000000000018520	automation.obj	__local_stdio_printf_options
0000000000018530	automation.obj	wprintf
0000000000018590	automation.obj	fprintf
00000000000185e0	automation.obj	?to_string@std@@YA?AV?$basic_string@DU?$char_traits@D@std@@V?$allocator@D@2@@1@H@Z
0000000000018600	automation.obj	??8wxUniCharRef@@QEBA_ND@Z
0000000000018640	automation.obj	??0?$wxArgNormalizerWchar@VwxString@@@@QEAA@AEBVwxString@@PEBVwxFormatString@@I@Z
00000000000186c0	automation.obj	??BwxCStrData@@QEBAPEBDXZ
0000000000018710	automation.obj	?ImplStr@wxString@@CA?AV?$wxScopedCharTypeBuffer@_W@@PEBDAEBVwxMBConv@@@Z
00000000000187c0	automation.obj	??0wxString@@QEAA@PEBD@Z
00000000000188e0	automation.obj	??0wxString@@QEAA@AEBV?$basic_string@DU?$char_traits@D@std@@V?$allocator@D@2@@std@@@Z
0000000000018a10	automation.obj	?ToStdString@wxString@@QEBA?AV?$basic_string@DU?$char_traits@D@std@@V?$allocator@D@2@@std@@AEBVwxMBConv@@@Z
0000000000018ae0	automation.obj	??BwxString@@QEBA?AV?$basic_string@DU?$char_traits@D@std@@V?$allocator@D@2@@std@@XZ
0000000000018bd0	automation.obj	??4wxString@@QEAAAEAV0@PEBD@Z
0000000000018d00	automation.obj	??1wxConvAuto@@UEAA@XZ
0000000000018d50	automation.obj	?GetMBNulLen@wxConvAuto@@UEBA_KXZ
0000000000018d60	automation.obj	?IsUTF8@wxConvAuto@@UEBA_NXZ
0000000000018d90	automation.obj	?Clone@wxConvAuto@@UEBAPEAVwxMBConv@@XZ
0000000000018de0	automation.obj	??_GwxConvAuto@@UEAAPEAXI@Z
0000000000018e40	automation.obj	??1wxFile@@QEAA@XZ
0000000000018e50	automation.obj	?DecodeResponseCode@Curl@@CA?AV?$basic_string@DU?$char_traits@D@std@@V?$allocator@D@2@@std@@H@Z
0000000000019890	automation.obj	$LN843
00000000000198f0	automation.obj	$LN842
00000000000199c4	automation.obj	$LN841
0000000000019a64	automation.obj	$LN840
0000000000019ae0	automation.obj	?writeFunction@Curl@@CA_KPEAX_K1PEAV?$basic_string@DU?$char_traits@D@std@@V?$allocator@D@2@@std@@@Z
0000000000019b80	automation.obj	?HTTPSPost@Curl@@SA?AV?$basic_string@DU?$char_traits@D@std@@V?$allocator@D@2@@std@@AEBV23@AEBVwxString@@000HAEBV?$vector@U?$pair@V?$basic_string@DU?$char_traits@D@std@@V?$allocator@D@2@@std@@V12@@std@@V?$allocator@U?$pair@V?$basic_string@DU?$char_traits@D@std@@V?$allocator@D@2@@std@@V12@@std@@@2@@3@PEAH@Z
000000000001a3f0	automation.obj	?HTTPSGet@Curl@@SA?AV?$basic_string@DU?$char_traits@D@std@@V?$allocator@D@2@@std@@AEBV23@00HAEBV?$vector@U?$pair@V?$basic_string@DU?$char_traits@D@std@@V?$allocator@D@2@@std@@V12@@std@@V?$allocator@U?$pair@V?$basic_string@DU?$char_traits@D@std@@V?$allocator@D@2@@std@@V12@@std@@@2@@3@PEAH@Z
000000000001ace0	automation.obj	?xlDo_Output@@YAXAEBV?$basic_string@DU?$char_traits@D@std@@V?$allocator@D@2@@std@@0_N1@Z
000000000001b9e0	automation.obj	?Automation@@YAH_NAEBV?$basic_string@DU?$char_traits@D@std@@V?$allocator@D@2@@std@@H11AEBV?$vector@VwxString@@V?$allocator@VwxString@@@std@@@2@1@Z
000000000001e420	automation.obj	?DoXLDoCommands@@YAHHPEAPEAD@Z
000000000001f550	automation.obj	??1?$vector@U?$pair@V?$basic_string@DU?$char_traits@D@std@@V?$allocator@D@2@@std@@V12@@std@@V?$allocator@U?$pair@V?$basic_string@DU?$char_traits@D@std@@V?$allocator@D@2@@std@@V12@@std@@@2@@std@@QEAA@XZ
000000000001f6a0	automation.obj	?substr@?$basic_string@DU?$char_traits@D@std@@V?$allocator@D@2@@std@@QEBA?AV12@_K0@Z
000000000001f700	automation.obj	?c_str@?$basic_string@DU?$char_traits@D@std@@V?$allocator@D@2@@std@@QEBAPEBDXZ
000000000001f710	automation.obj	?append@?$basic_string@DU?$char_traits@D@std@@V?$allocator@D@2@@std@@QEAAAEAV12@QEBD@Z
000000000001f7a0	automation.obj	?append@?$basic_string@DU?$char_traits@D@std@@V?$allocator@D@2@@std@@QEAAAEAV12@QEBD_K@Z
000000000001f820	automation.obj	??1?$basic_string@DU?$char_traits@D@std@@V?$allocator@D@2@@std@@QEAA@XZ
000000000001f880	automation.obj	??4?$basic_string@DU?$char_traits@D@std@@V?$allocator@D@2@@std@@QEAAAEAV01@$$QEAV01@@Z
000000000001f910	automation.obj	??0?$basic_string@DU?$char_traits@D@std@@V?$allocator@D@2@@std@@QEAA@QEBD@Z
000000000001f950	automation.obj	??0?$basic_string@DU?$char_traits@D@std@@V?$allocator@D@2@@std@@QEAA@AEBV01@@Z
000000000001fa70	automation.obj	?assign@?$basic_string@DU?$char_traits@D@std@@V?$allocator@D@2@@std@@QEAAAEAV12@QEBD_K@Z
000000000001fbd0	automation.obj	?deallocate@?$allocator@D@std@@QEAAXQEAD_K@Z
000000000001fc10	automation.obj	?_Xran@?$_String_val@U?$_Simple_types@D@std@@@std@@SAXXZ
000000000001fc30	automation.obj	??$_Integral_to_string@DH@std@@YA?AV?$basic_string@DU?$char_traits@D@std@@V?$allocator@D@2@@0@H@Z
000000000001fe00	automation.obj	??$Format@H@wxString@@SA?AV0@AEBVwxFormatString@@H@Z
000000000001feb0	automation.obj	??$Format@V?$basic_string@DU?$char_traits@D@std@@V?$allocator@D@2@@std@@V12@@wxString@@SA?AV0@AEBVwxFormatString@@V?$basic_string@DU?$char_traits@D@std@@V?$allocator@D@2@@std@@1@Z
00000000000200c0	automation.obj	??$?HDU?$char_traits@D@std@@V?$allocator@D@1@@std@@YA?AV?$basic_string@DU?$char_traits@D@std@@V?$allocator@D@2@@0@AEBV10@QEBD@Z
00000000000201f0	automation.obj	??$?HDU?$char_traits@D@std@@V?$allocator@D@1@@std@@YA?AV?$basic_string@DU?$char_traits@D@std@@V?$allocator@D@2@@0@$$QEAV10@QEBD@Z
0000000000020250	automation.obj	??$?HDU?$char_traits@D@std@@V?$allocator@D@1@@std@@YA?AV?$basic_string@DU?$char_traits@D@std@@V?$allocator@D@2@@0@$$QEAV10@0@Z
0000000000020270	automation.obj	??$?HDU?$char_traits@D@std@@V?$allocator@D@1@@std@@YA?AV?$basic_string@DU?$char_traits@D@std@@V?$allocator@D@2@@0@QEBDAEBV10@@Z
00000000000203d0	automation.obj	??$?HDU?$char_traits@D@std@@V?$allocator@D@1@@std@@YA?AV?$basic_string@DU?$char_traits@D@std@@V?$allocator@D@2@@0@QEBD$$QEAV10@@Z
0000000000020500	automation.obj	??$Format@V?$basic_string@DU?$char_traits@D@std@@V?$allocator@D@2@@std@@VwxString@@V3@@wxString@@SA?AV0@AEBVwxFormatString@@V?$basic_string@DU?$char_traits@D@std@@V?$allocator@D@2@@std@@V0@2@Z
0000000000020760	automation.obj	??$Format@V?$basic_string@DU?$char_traits@D@std@@V?$allocator@D@2@@std@@VwxString@@J@wxString@@SA?AV0@AEBVwxFormatString@@V?$basic_string@DU?$char_traits@D@std@@V?$allocator@D@2@@std@@V0@J@Z
0000000000020990	automation.obj	??$wxPrintf@PEBD@@YAHAEBVwxFormatString@@PEBD@Z
0000000000020b00	automation.obj	??$_Reallocate_grow_by@V<lambda_1>@?1??append@?$basic_string@DU?$char_traits@D@std@@V?$allocator@D@2@@std@@QEAAAEAV34@QEBD_K@Z@PEBD_K@?$basic_string@DU?$char_traits@D@std@@V?$allocator@D@2@@std@@AEAAAEAV01@_KV<lambda_1>@?1??append@01@QEAAAEAV01@QEBD0@Z@PEBD_K@Z
0000000000020c90	automation.obj	??$_Construct@$00PEBD@?$basic_string@DU?$char_traits@D@std@@V?$allocator@D@2@@std@@AEAAXQEBD_K@Z
0000000000020d90	automation.obj	??0?$basic_string@DU?$char_traits@D@std@@V?$allocator@D@2@@std@@QEAA@U_String_constructor_concat_tag@1@AEAV01@1@Z
0000000000020f80	automation.obj	??$_Resize_reallocate@U_Value_init_tag@std@@@?$vector@VwxString@@V?$allocator@VwxString@@@std@@@std@@AEAAX_KAEBU_Value_init_tag@1@@Z
0000000000021120	automation.obj	??$_Reallocate_grow_by@V<lambda_1>@?1??insert@?$basic_string@DU?$char_traits@D@std@@V?$allocator@D@2@@std@@QEAAAEAV34@_KQEBD0@Z@_KPEBD_K@?$basic_string@DU?$char_traits@D@std@@V?$allocator@D@2@@std@@AEAAAEAV01@_KV<lambda_1>@?1??insert@01@QEAAAEAV01@0QEBD0@Z@_KPEBD3@Z
0000000000021290	xlDo.obj	??1wxInitializer@@QEAA@XZ
00000000000212b0	xlDo.obj	main
00000000000213c0	wxbase33u:string.obj	??$?6U?$char_traits@D@std@@@std@@YAAEAV?$basic_ostream@DU?$char_traits@D@std@@@0@AEAV10@PEBD@Z
0000000000021590	wxbase33u:any.obj	??$_Emplace_reallocate@AEBQEAVwxAnyToVariantRegistration@@@?$vector@PEAVwxAnyToVariantRegistration@@V?$allocator@PEAVwxAnyToVariantRegistration@@@std@@@std@@AEAAPEAPEAVwxAnyToVariantRegistration@@QEAPEAV2@AEBQEAV2@@Z
0000000000021590	wxbase33u:cmdline.obj	??$_Emplace_reallocate@PEAUwxCmdLineOption@@@?$vector@PEAUwxCmdLineOption@@V?$allocator@PEAUwxCmdLineOption@@@std@@@std@@AEAAPEAPEAUwxCmdLineOption@@QEAPEAU2@$$QEAPEAU2@@Z
0000000000021590	wxbase33u:cmdline.obj	??$_Emplace_reallocate@PEAUwxCmdLineParam@@@?$vector@PEAUwxCmdLineParam@@V?$allocator@PEAUwxCmdLineParam@@@std@@@std@@AEAAPEAPEAUwxCmdLineParam@@QEAPEAU2@$$QEAPEAU2@@Z
0000000000021590	wxbase33u:datetime.obj	??$_Emplace_reallocate@AEBQEAVwxDateTimeHolidayAuthority@@@?$vector@PEAVwxDateTimeHolidayAuthority@@V?$allocator@PEAVwxDateTimeHolidayAuthority@@@std@@@std@@AEAAPEAPEAVwxDateTimeHolidayAuthority@@QEAPEAV2@AEBQEAV2@@Z
0000000000021590	wxbase33u:module.obj	??$_Emplace_reallocate@AEBQEAVwxClassInfo@@@?$vector@PEAVwxClassInfo@@V?$allocator@PEAVwxClassInfo@@@std@@@std@@AEAAPEAPEAVwxClassInfo@@QEAPEAV2@AEBQEAV2@@Z
0000000000021590	wxbase33u:string.obj	??$_Emplace_reallocate@AEB_K@?$vector@_KV?$allocator@_K@std@@@std@@AEAAPEA_KQEA_KAEB_K@Z
0000000000021590	wxbase33u:utilsexc.obj	??$_Emplace_reallocate@AEBQEAX@?$vector@PEAXV?$allocator@PEAX@std@@@std@@AEAAPEAPEAXQEAPEAXAEBQEAX@Z
0000000000021730	wxbase33u:string.obj	??$_Reallocate_grow_by@V<lambda_cc38baf86caa2c9da7d2f2d7bbabc1b7>@@_K_KPEB_W_K@?$basic_string@_WU?$char_traits@_W@std@@V?$allocator@_W@2@@std@@AEAAAEAV01@_KV<lambda_cc38baf86caa2c9da7d2f2d7bbabc1b7>@@_K2PEB_W2@Z
00000000000218c0	wxbase33u:string.obj	??$tchar_str@_W@wxString@@QEBA?AV?$wxCharTypeBuffer@_W@@PEA_K@Z
0000000000021a80	wxbase33u:string.obj	??0?$SubstrBufFromType@V?$wxScopedCharTypeBuffer@_W@@@wxString@@QEAA@AEBV?$wxScopedCharTypeBuffer@_W@@_K@Z
0000000000021b10	wxbase33u:string.obj	??0?$wxStringTypeBufferBase@_W@@QEAA@AEAVwxString@@_K@Z
0000000000021c40	log4cpplib:Appender.obj	??1?$vector@PEAVAppender@log4cpp@@V?$allocator@PEAVAppender@log4cpp@@@std@@@std@@QEAA@XZ
0000000000021c40	wxbase33u:appbase.obj	??1wxEvtHandlerArray@@QEAA@XZ
0000000000021c40	wxbase33u:event.obj	?_Tidy@?$vector@PEBUwxEventTableEntry@@V?$allocator@PEBUwxEventTableEntry@@@std@@@std@@AEAAXXZ
0000000000021c40	wxbase33u:fileconf.obj	??1ArrayEntries@@QEAA@XZ
0000000000021c40	wxbase33u:fileconf.obj	??1ArrayGroups@@QEAA@XZ
0000000000021c40	wxbase33u:module.obj	??1?$vector@PEAVwxModule@@V?$allocator@PEAVwxModule@@@std@@@std@@QEAA@XZ
0000000000021c40	wxbase33u:string.obj	??1?$vector@_KV?$allocator@_K@std@@@std@@QEAA@XZ
0000000000021ca0	wxbase33u:string.obj	??1?$wxStringTypeBuffer@_W@@QEAA@XZ
0000000000021cf0	wxbase33u:string.obj	??1?$wxStringTypeBufferBase@_W@@QEAA@XZ
0000000000021d50	wxbase33u:string.obj	??1_Sentry_base@?$basic_ostream@DU?$char_traits@D@std@@@std@@QEAA@XZ
0000000000021d80	wxbase33u:string.obj	??1sentry@?$basic_ostream@DU?$char_traits@D@std@@@std@@QEAA@XZ
0000000000021dc0	wxbase33u:string.obj	??1wxStringInternalBuffer@@QEAA@XZ
0000000000021e00	wxbase33u:string.obj	??6@YAAEAV?$basic_ostream@DU?$char_traits@D@std@@@std@@AEAV01@AEBVwxCStrData@@@Z
0000000000021ec0	wxbase33u:string.obj	??6@YAAEAV?$basic_ostream@DU?$char_traits@D@std@@@std@@AEAV01@AEBVwxString@@@Z
0000000000021f90	wxbase33u:string.obj	??H@YA?AVwxString@@AEBV0@0@Z
0000000000021ff0	wxbase33u:string.obj	??H@YA?AVwxString@@AEBV0@PEBD@Z
00000000000221d0	wxbase33u:string.obj	??H@YA?AVwxString@@AEBV0@PEB_W@Z
0000000000022300	wxbase33u:string.obj	??H@YA?AVwxString@@AEBV0@VwxUniChar@@@Z
00000000000223c0	wxbase33u:string.obj	??H@YA?AVwxString@@PEBDAEBV0@@Z
00000000000224b0	wxbase33u:string.obj	??H@YA?AVwxString@@PEB_WAEBV0@@Z
00000000000225f0	wxbase33u:string.obj	??H@YA?AVwxString@@VwxUniChar@@AEBV0@@Z
0000000000022670	wxbase33u:string.obj	?AfterFirst@wxString@@QEBA?AV1@VwxUniChar@@@Z
0000000000022850	wxbase33u:string.obj	?AfterLast@wxString@@QEBA?AV1@VwxUniChar@@@Z
0000000000022a60	wxbase33u:string.obj	?AsChar@wxString@@AEBAPEBDAEBVwxMBConv@@@Z
0000000000022b20	wxbase33u:string.obj	?BeforeFirst@wxString@@QEBA?AV1@VwxUniChar@@PEAV1@@Z
0000000000022d60	wxbase33u:string.obj	?BeforeLast@wxString@@QEBA?AV1@VwxUniChar@@PEAV1@@Z
0000000000022fb0	wxbase33u:string.obj	?CmpNoCase@wxString@@QEBAHAEBV1@@Z
0000000000023090	wxbase33u:string.obj	?ConvertStr@wxString@@CA?AU?$SubstrBufFromType@V?$wxScopedCharTypeBuffer@_W@@@1@PEBD_KAEBVwxMBConv@@@Z
00000000000232d0	wxbase33u:string.obj	?DoFormatWchar@wxString@@CA?AV1@PEB_WZZ
00000000000233f0	wxbase33u:string.obj	?DoPrintfWchar@wxString@@AEAAHPEB_WZZ
00000000000234e0	wxbase33u:string.obj	?DoStringPrintfV@@YAHAEAVwxString@@AEBV1@PEAD@Z
0000000000023820	wxbase33u:string.obj	?Find@wxString@@QEBAHVwxUniChar@@_N@Z
00000000000238d0	wxbase33u:string.obj	?FormatV@wxString@@SA?AV1@AEBV1@PEAD@Z
0000000000023920	wxbase33u:string.obj	?FromAscii@wxString@@SA?AV1@PEBD@Z
0000000000023960	wxbase33u:string.obj	?FromAscii@wxString@@SA?AV1@PEBD_K@Z
0000000000023b80	wxbase33u:string.obj	?FromCDouble@wxString@@SA?AV1@NH@Z
0000000000023e30	wxbase33u:string.obj	?FromDouble@wxString@@SA?AV1@NH@Z
00000000000240e0	wxbase33u:string.obj	?GetUntypedNullData@wxPrivate@@YAPEAUUntypedBufferData@1@XZ
0000000000024150	wxbase33u:string.obj	?IsSameAs@wxString@@QEBA_NVwxUniChar@@_N@Z
00000000000241c0	wxbase33u:string.obj	?Left@wxString@@QEBA?AV1@_K@Z
0000000000024290	wxbase33u:string.obj	?MakeCapitalized@wxString@@QEAAAEAV1@XZ
0000000000024310	wxbase33u:string.obj	?MakeLower@wxString@@QEAAAEAV1@XZ
0000000000024380	wxbase33u:string.obj	?MakeUpper@wxString@@QEAAAEAV1@XZ
00000000000243f0	wxbase33u:string.obj	?Matches@wxString@@QEBA_NAEBV1@@Z
00000000000246b0	wxbase33u:string.obj	?Mid@wxString@@QEBA?AV1@_K0@Z
0000000000024900	wxbase33u:string.obj	?PrintfV@wxString@@QEAAHAEBV1@PEAD@Z
0000000000024910	wxbase33u:string.obj	?Replace@wxString@@QEAA_KAEBV1@0_N@Z
0000000000024d20	wxbase33u:string.obj	?StartsWith@wxString@@QEBA_NAEBV1@PEAV1@@Z
0000000000024ea0	wxbase33u:string.obj	?StrCopy@?$wxScopedCharTypeBuffer@_W@@KAPEA_WPEB_W_K@Z
0000000000024ef0	wxbase33u:string.obj	?ToAscii@wxString@@QEBA?BV?$wxScopedCharTypeBuffer@D@@D@Z
0000000000025030	wxbase33u:string.obj	?ToCDouble@wxString@@QEBA_NPEAN@Z
0000000000025110	wxbase33u:string.obj	?ToDouble@wxString@@QEBA_NPEAN@Z
00000000000251e0	wxbase33u:string.obj	?ToLong@wxString@@QEBA_NPEAJH@Z
0000000000025310	wxbase33u:string.obj	?ToLongLong@wxString@@QEBA_NPEA_JH@Z
0000000000025440	wxbase33u:string.obj	?ToULong@wxString@@QEBA_NPEAKH@Z
0000000000025570	wxbase33u:string.obj	?ToULongLong@wxString@@QEBA_NPEA_KH@Z
00000000000256a0	wxbase33u:string.obj	?Trim@wxString@@QEAAAEAV1@_N@Z
0000000000025810	wxbase33u:string.obj	?Truncate@wxString@@QEAAAEAV1@_K@Z
00000000000258c0	wxbase33u:any.obj	?_Xlength@?$vector@PEAVwxAnyToVariantRegistration@@V?$allocator@PEAVwxAnyToVariantRegistration@@@std@@@std@@CAXXZ
00000000000258c0	wxbase33u:appbase.obj	?_Xlength@?$vector@PEAVwxEvtHandler@@V?$allocator@PEAVwxEvtHandler@@@std@@@std@@CAXXZ
00000000000258c0	wxbase33u:cmdline.obj	?_Xlength@?$vector@PEAUwxCmdLineOption@@V?$allocator@PEAUwxCmdLineOption@@@std@@@std@@CAXXZ
00000000000258c0	wxbase33u:cmdline.obj	?_Xlength@?$vector@PEAUwxCmdLineParam@@V?$allocator@PEAUwxCmdLineParam@@@std@@@std@@CAXXZ
00000000000258c0	wxbase33u:cmdline.obj	?_Xlength@?$vector@PEAVwxCmdLineArgImpl@@V?$allocator@PEAVwxCmdLineArgImpl@@@std@@@std@@CAXXZ
00000000000258c0	wxbase33u:datetime.obj	?_Xlength@?$vector@PEAVwxDateTime@@V?$allocator@PEAVwxDateTime@@@std@@@std@@CAXXZ
00000000000258c0	wxbase33u:datetime.obj	?_Xlength@?$vector@PEAVwxDateTimeHolidayAuthority@@V?$allocator@PEAVwxDateTimeHolidayAuthority@@@std@@@std@@CAXXZ
00000000000258c0	wxbase33u:event.obj	?_Xlength@?$vector@PEAUwxDynamicEventTableEntry@@V?$allocator@PEAUwxDynamicEventTableEntry@@@std@@@std@@CAXXZ
00000000000258c0	wxbase33u:event.obj	?_Xlength@?$vector@PEBUwxEventTableEntry@@V?$allocator@PEBUwxEventTableEntry@@@std@@@std@@CAXXZ
00000000000258c0	wxbase33u:fileconf.obj	?_Xlength@?$vector@PEAVwxFileConfigEntry@@V?$allocator@PEAVwxFileConfigEntry@@@std@@@std@@CAXXZ
00000000000258c0	wxbase33u:fileconf.obj	?_Xlength@?$vector@PEAVwxFileConfigGroup@@V?$allocator@PEAVwxFileConfigGroup@@@std@@@std@@CAXXZ
00000000000258c0	wxbase33u:fileconf.obj	?_Xlength@?$vector@W4wxTextFileType@@V?$allocator@W4wxTextFileType@@@std@@@std@@CAXXZ
00000000000258c0	wxbase33u:log.obj	?_Xlength@?$vector@UwxLogRecord@@V?$allocator@UwxLogRecord@@@std@@@std@@CAXXZ
00000000000258c0	wxbase33u:module.obj	?_Xlength@?$vector@PEAVwxClassInfo@@V?$allocator@PEAVwxClassInfo@@@std@@@std@@CAXXZ
00000000000258c0	wxbase33u:module.obj	?_Xlength@?$vector@PEAVwxModule@@V?$allocator@PEAVwxModule@@@std@@@std@@CAXXZ
00000000000258c0	wxbase33u:string.obj	?_Xlength@?$vector@_KV?$allocator@_K@std@@@std@@CAXXZ
00000000000258c0	wxbase33u:threadinfo.obj	?_Xlength@?$vector@V?$wxSharedPtr@VwxThreadSpecificInfo@@@@V?$allocator@V?$wxSharedPtr@VwxThreadSpecificInfo@@@@@std@@@std@@CAXXZ
00000000000258c0	wxbase33u:utilsexc.obj	?_Xlength@?$vector@PEAXV?$allocator@PEAX@std@@@std@@CAXXZ
00000000000258e0	wxbase33u:string.obj	?_Xran@?$_String_val@U?$_Simple_types@_W@std@@@std@@SAXXZ
0000000000025900	wxbase33u:string.obj	?assign@wxString@@QEAAAEAV1@_KVwxUniChar@@@Z
0000000000025ac0	wxbase33u:string.obj	?compare@?$basic_string@_WU?$char_traits@_W@std@@V?$allocator@_W@2@@std@@QEBAHQEB_W@Z
0000000000025b40	wxbase33u:string.obj	?compare@wxString@@QEBAHAEBV1@@Z
0000000000025bb0	wxbase33u:string.obj	?compare@wxString@@QEBAHPEBD@Z
0000000000025cb0	wxbase33u:string.obj	?compare@wxString@@QEBAHPEB_W@Z
0000000000025cd0	wxbase33u:string.obj	?compare@wxString@@QEBAH_K0AEBV1@@Z
0000000000025d80	log4cpplib:Appender.obj	?deallocate@?$allocator@PEAVAppender@log4cpp@@@std@@QEAAXQEAPEAVAppender@log4cpp@@_K@Z
0000000000025d80	log4cpplib:HierarchyMaintainer.obj	?deallocate@?$allocator@PEAVCategory@log4cpp@@@std@@QEAAXQEAPEAVCategory@log4cpp@@_K@Z
0000000000025d80	wxbase33u:any.obj	?deallocate@?$allocator@PEAVwxAnyToVariantRegistration@@@std@@QEAAXQEAPEAVwxAnyToVariantRegistration@@_K@Z
0000000000025d80	wxbase33u:appbase.obj	?deallocate@?$allocator@PEAVwxEvtHandler@@@std@@QEAAXQEAPEAVwxEvtHandler@@_K@Z
0000000000025d80	wxbase33u:cmdline.obj	?deallocate@?$allocator@PEAUwxCmdLineOption@@@std@@QEAAXQEAPEAUwxCmdLineOption@@_K@Z
0000000000025d80	wxbase33u:cmdline.obj	?deallocate@?$allocator@PEAUwxCmdLineParam@@@std@@QEAAXQEAPEAUwxCmdLineParam@@_K@Z
0000000000025d80	wxbase33u:cmdline.obj	?deallocate@?$allocator@PEAVwxCmdLineArgImpl@@@std@@QEAAXQEAPEAVwxCmdLineArgImpl@@_K@Z
0000000000025d80	wxbase33u:datetime.obj	?deallocate@?$allocator@PEAVwxDateTime@@@std@@QEAAXQEAPEAVwxDateTime@@_K@Z
0000000000025d80	wxbase33u:datetime.obj	?deallocate@?$allocator@PEAVwxDateTimeHolidayAuthority@@@std@@QEAAXQEAPEAVwxDateTimeHolidayAuthority@@_K@Z
0000000000025d80	wxbase33u:event.obj	?deallocate@?$allocator@PEAUwxDynamicEventTableEntry@@@std@@QEAAXQEAPEAUwxDynamicEventTableEntry@@_K@Z
0000000000025d80	wxbase33u:event.obj	?deallocate@?$allocator@PEBUwxEventTableEntry@@@std@@QEAAXQEAPEBUwxEventTableEntry@@_K@Z
0000000000025d80	wxbase33u:fileconf.obj	?deallocate@?$allocator@PEAVwxFileConfigEntry@@@std@@QEAAXQEAPEAVwxFileConfigEntry@@_K@Z
0000000000025d80	wxbase33u:fileconf.obj	?deallocate@?$allocator@PEAVwxFileConfigGroup@@@std@@QEAAXQEAPEAVwxFileConfigGroup@@_K@Z
0000000000025d80	wxbase33u:module.obj	?deallocate@?$allocator@PEAVwxClassInfo@@@std@@QEAAXQEAPEAVwxClassInfo@@_K@Z
0000000000025d80	wxbase33u:module.obj	?deallocate@?$allocator@PEAVwxModule@@@std@@QEAAXQEAPEAVwxModule@@_K@Z
0000000000025d80	wxbase33u:string.obj	?deallocate@?$allocator@_K@std@@QEAAXQEA_K_K@Z
0000000000025d80	wxbase33u:threadinfo.obj	?deallocate@?$allocator@V?$wxSharedPtr@VwxThreadSpecificInfo@@@@@std@@QEAAXQEAV?$wxSharedPtr@VwxThreadSpecificInfo@@@@_K@Z
0000000000025d80	wxbase33u:utilsexc.obj	?deallocate@?$allocator@PEAX@std@@QEAAXQEAPEAX_K@Z
0000000000025dd0	wxbase33u:string.obj	?erase@wxString@@QEAA?AViterator@1@V21@0@Z
0000000000025e80	wxbase33u:string.obj	?find@?$basic_string@_WU?$char_traits@_W@std@@V?$allocator@_W@2@@std@@QEBA_KAEBV12@_K@Z
0000000000025f50	wxbase33u:string.obj	?push_back@?$basic_string@_WU?$char_traits@_W@std@@V?$allocator@_W@2@@std@@QEAAX_W@Z
00000000000260b0	wxbase33u:string.obj	?replace@?$basic_string@_WU?$char_traits@_W@std@@V?$allocator@_W@2@@std@@QEAAAEAV12@_K_KQEB_W0@Z
0000000000026280	wxbase33u:string.obj	?reserve@?$basic_string@_WU?$char_traits@_W@std@@V?$allocator@_W@2@@std@@QEAAX_K@Z
0000000000026410	wxbase33u:thread.obj	??$Log@PEBDHPEB_WJVwxString@@@wxLogger@@QEAAXAEBVwxFormatString@@PEBDHPEB_WJVwxString@@@Z
0000000000026690	wxbase33u:thread.obj	??$OnScopeExit@V?$wxScopeGuardImpl0@P6AXXZ@@@wxPrivate@@YAXAEAV?$wxScopeGuardImpl0@P6AXXZ@@@Z
00000000000266b0	wxbase33u:thread.obj	??$_Try_emplace@AEBVwxString@@$$V@?$_Hash@V?$_Umap_traits@VwxString@@_KV?$_Uhash_compare@VwxString@@UwxStringHash@@UwxStringEqual@@@std@@V?$allocator@U?$pair@$$CBVwxString@@_K@std@@@3@$0A@@std@@@std@@IEAA?AU?$pair@PEAU?$_List_node@U?$pair@$$CBVwxString@@_K@std@@PEAX@std@@_N@1@AEBVwxString@@@Z
0000000000026940	wxbase33u:thread.obj	??0wxCriticalSection@@QEAA@W4wxCriticalSectionType@@@Z
0000000000026960	log4cpplib:HierarchyMaintainer.obj	??1?$_Alloc_construct_ptr@V?$allocator@U?$_Tree_node@U?$pair@$$CBV?$basic_string@DU?$char_traits@D@std@@V?$allocator@D@2@@std@@PEAVCategory@log4cpp@@@std@@PEAX@std@@@std@@@std@@QEAA@XZ
0000000000026960	log4cpplib:HierarchyMaintainer.obj	??1?$_Tree_temp_node_alloc@V?$allocator@U?$_Tree_node@U?$pair@$$CBV?$basic_string@DU?$char_traits@D@std@@V?$allocator@D@2@@std@@PEAVCategory@log4cpp@@@std@@PEAX@std@@@std@@@std@@QEAA@XZ
0000000000026960	wxbase33u:dde.obj	??1?$_Alloc_construct_ptr@V?$allocator@U?$_List_node@U?$pair@$$CBVwxString@@PEAUHSZ__@@@std@@PEAX@std@@@std@@@std@@QEAA@XZ
0000000000026960	wxbase33u:thread.obj	??1?$_Alloc_construct_ptr@V?$allocator@U?$_List_node@U?$pair@$$CBVwxString@@_K@std@@PEAX@std@@@std@@@std@@QEAA@XZ
0000000000026980	wxbase33u:dde.obj	??1?$_List_node_emplace_op2@V?$allocator@U?$_List_node@U?$pair@$$CBVwxString@@PEAUHSZ__@@@std@@PEAX@std@@@std@@@std@@QEAA@XZ
0000000000026980	wxbase33u:thread.obj	??1?$_List_node_emplace_op2@V?$allocator@U?$_List_node@U?$pair@$$CBVwxString@@_K@std@@PEAX@std@@@std@@@std@@QEAA@XZ
00000000000269d0	wxbase33u:thread.obj	??1?$wxScopeGuardImpl0@P6AXXZ@@QEAA@XZ
00000000000269e0	log4cpplib:Category.obj	??1MSMutex@threading@log4cpp@@QEAA@XZ
00000000000269e0	wxbase33u:thread.obj	??1wxCriticalSection@@QEAA@XZ
00000000000269f0	log4cpplib:Category.obj	??1MSScopedLock@threading@log4cpp@@QEAA@XZ
00000000000269f0	wxbase33u:thread.obj	??1wxCriticalSectionLocker@@QEAA@XZ
0000000000026a00	wxbase33u:thread.obj	??1wxMessageOutput@@UEAA@XZ
0000000000026a10	wxbase33u:appbase.obj	??1wxMessageOutputBest@@UEAA@XZ
0000000000026a10	wxbase33u:thread.obj	??1wxMessageOutputDebug@@UEAA@XZ
0000000000026a40	wxbase33u:thread.obj	??1wxModule@@UEAA@XZ
0000000000026ad0	wxbase33u:thread.obj	??1wxObject@@UEAA@XZ
0000000000026af0	wxbase33u:thread.obj	??_EwxMessageOutput@@UEAAPEAXI@Z
0000000000026af0	wxbase33u:thread.obj	??_GwxMessageOutput@@UEAAPEAXI@Z
0000000000026b20	wxbase33u:msgout.obj	??_EwxMessageOutputStderr@@UEAAPEAXI@Z
0000000000026b20	wxbase33u:msgout.obj	??_GwxMessageOutputStderr@@UEAAPEAXI@Z
0000000000026b20	wxbase33u:thread.obj	??_EwxMessageOutputDebug@@UEAAPEAXI@Z
0000000000026b20	wxbase33u:thread.obj	??_GwxMessageOutputDebug@@UEAAPEAXI@Z
0000000000026b70	wxbase33u:datetime.obj	??_EwxDateTimeHolidaysModule@@UEAAPEAXI@Z
0000000000026b70	wxbase33u:datetime.obj	??_GwxDateTimeHolidaysModule@@UEAAPEAXI@Z
0000000000026b70	wxbase33u:dde.obj	??_EwxDDEModule@@UEAAPEAXI@Z
0000000000026b70	wxbase33u:dde.obj	??_GwxDDEModule@@UEAAPEAXI@Z
0000000000026b70	wxbase33u:fmapbase.obj	??_EwxFontMapperModule@@UEAAPEAXI@Z
0000000000026b70	wxbase33u:fmapbase.obj	??_GwxFontMapperModule@@UEAAPEAXI@Z
0000000000026b70	wxbase33u:intl.obj	??_EwxLocaleModule@@UEAAPEAXI@Z
0000000000026b70	wxbase33u:intl.obj	??_GwxLocaleModule@@UEAAPEAXI@Z
0000000000026b70	wxbase33u:thread.obj	??_EwxModule@@UEAAPEAXI@Z
0000000000026b70	wxbase33u:thread.obj	??_EwxThreadModule@@UEAAPEAXI@Z
0000000000026b70	wxbase33u:thread.obj	??_GwxModule@@UEAAPEAXI@Z
0000000000026b70	wxbase33u:thread.obj	??_GwxThreadModule@@UEAAPEAXI@Z
0000000000026b70	wxbase33u:timer.obj	??_EwxTimerHiddenWindowModule@@UEAAPEAXI@Z
0000000000026b70	wxbase33u:timer.obj	??_GwxTimerHiddenWindowModule@@UEAAPEAXI@Z
0000000000026b70	wxbase33u:translation.obj	??_EwxTranslationsModule@@UEAAPEAXI@Z
0000000000026b70	wxbase33u:translation.obj	??_GwxTranslationsModule@@UEAAPEAXI@Z
0000000000026b70	wxbase33u:utilsexc.obj	??_EwxExecuteModule@@UEAAPEAXI@Z
0000000000026b70	wxbase33u:utilsexc.obj	??_GwxExecuteModule@@UEAAPEAXI@Z
0000000000026b70	wxbase33u:xlocale.obj	??_EwxXLocaleModule@@UEAAPEAXI@Z
0000000000026b70	wxbase33u:xlocale.obj	??_GwxXLocaleModule@@UEAAPEAXI@Z
0000000000026bb0	wxbase33u:thread.obj	??_EwxObject@@UEAAPEAXI@Z
0000000000026bb0	wxbase33u:thread.obj	??_GwxObject@@UEAAPEAXI@Z
0000000000026bf0	wxbase33u:thread.obj	?DoLog@wxLogger@@AEAAXPEB_WZZ
0000000000026cc0	wxbase33u:thread.obj	?Enter@wxCriticalSection@@QEAAXXZ
0000000000026cd0	wxbase33u:thread.obj	?GetClassInfo@wxThreadModule@@UEBAPEAVwxClassInfo@@XZ
0000000000026ce0	wxbase33u:thread.obj	?GetCurrentId@wxThread@@SAKXZ
0000000000026cf0	wxbase33u:thread.obj	?Leave@wxCriticalSection@@QEAAXXZ
0000000000026d00	wxbase33u:thread.obj	?OnExit@wxThreadModule@@UEAAXXZ
00000000000272a0	wxbase33u:thread.obj	?OnInit@wxThreadModule@@UEAA_NXZ
00000000000282d0	wxbase33u:thread.obj	?_Forced_rehash@?$_Hash@V?$_Umap_traits@VwxString@@_KV?$_Uhash_compare@VwxString@@UwxStringHash@@UwxStringEqual@@@std@@V?$allocator@U?$pair@$$CBVwxString@@_K@std@@@3@$0A@@std@@@std@@IEAAX_K@Z
00000000000284b0	wxbase33u:thread.obj	?wxCreateObject@wxThreadModule@@SAPEAVwxObject@@XZ
00000000000284f0	wxbase33u:thread.obj	?wxMutexGuiEnterImpl@@YAXXZ
0000000000028590	wxbase33u:thread.obj	?wxMutexGuiLeaveImpl@@YAXXZ
0000000000028650	wxbase33u:thread.obj	?wxWakeUpMainThread@@YAXXZ
0000000000028860	wxbase33u:appbase.obj	?wxDefaultAssertHandler@@YAXAEBVwxString@@H000@Z
0000000000028a90	wxbase33u:appbase.obj	??$Printf@VwxString@@HV1@@wxString@@QEAAHAEBVwxFormatString@@V0@H1@Z
0000000000028cb0	wxbase33u:appbase.obj	??$Printf@VwxString@@PEBD@wxMessageOutput@@QEAAXAEBVwxFormatString@@VwxString@@PEBD@Z
0000000000028db0	wxbase33u:appbase.obj	??$_Emplace_reallocate@AEBQEAVwxEvtHandler@@@?$vector@PEAVwxEvtHandler@@V?$allocator@PEAVwxEvtHandler@@@std@@@std@@AEAAPEAPEAVwxEvtHandler@@QEAPEAV2@AEBQEAV2@@Z
0000000000028eb0	wxbase33u:appbase.obj	??$_Reallocate_grow_by@V<lambda_a3050a43f3157934f354774ab3dd2e02>@@_K_W@?$basic_string@_WU?$char_traits@_W@std@@V?$allocator@_W@2@@std@@AEAAAEAV01@_KV<lambda_a3050a43f3157934f354774ab3dd2e02>@@_K_W@Z
0000000000029000	wxbase33u:appbase.obj	??$_Uninitialized_fill_n@V?$allocator@PEAVwxEvtHandler@@@std@@@std@@YAPEAPEAVwxEvtHandler@@PEAPEAV1@_KAEBQEAV1@AEAV?$allocator@PEAVwxEvtHandler@@@0@@Z
0000000000029000	wxbase33u:cmdline.obj	??$_Uninitialized_fill_n@V?$allocator@PEAVwxCmdLineArgImpl@@@std@@@std@@YAPEAPEAVwxCmdLineArgImpl@@PEAPEAV1@_KAEBQEAV1@AEAV?$allocator@PEAVwxCmdLineArgImpl@@@0@@Z
0000000000029000	wxbase33u:datetime.obj	??$_Uninitialized_fill_n@V?$allocator@PEAVwxDateTime@@@std@@@std@@YAPEAPEAVwxDateTime@@PEAPEAV1@_KAEBQEAV1@AEAV?$allocator@PEAVwxDateTime@@@0@@Z
0000000000029000	wxbase33u:event.obj	??$_Uninitialized_fill_n@V?$allocator@PEBUwxEventTableEntry@@@std@@@std@@YAPEAPEBUwxEventTableEntry@@PEAPEBU1@_KAEBQEBU1@AEAV?$allocator@PEBUwxEventTableEntry@@@0@@Z
0000000000029000	wxbase33u:fileconf.obj	??$_Uninitialized_fill_n@V?$allocator@PEAVwxFileConfigEntry@@@std@@@std@@YAPEAPEAVwxFileConfigEntry@@PEAPEAV1@_KAEBQEAV1@AEAV?$allocator@PEAVwxFileConfigEntry@@@0@@Z
0000000000029000	wxbase33u:fileconf.obj	??$_Uninitialized_fill_n@V?$allocator@PEAVwxFileConfigGroup@@@std@@@std@@YAPEAPEAVwxFileConfigGroup@@PEAPEAV1@_KAEBQEAV1@AEAV?$allocator@PEAVwxFileConfigGroup@@@0@@Z
0000000000029060	wxbase33u:appbase.obj	??$fill@PEAPEAVwxEvtHandler@@PEAV1@@std@@YAXQEAPEAVwxEvtHandler@@0AEBQEAV1@@Z
0000000000029060	wxbase33u:cmdline.obj	??$fill@PEAPEAVwxCmdLineArgImpl@@PEAV1@@std@@YAXQEAPEAVwxCmdLineArgImpl@@0AEBQEAV1@@Z
0000000000029060	wxbase33u:datetime.obj	??$fill@PEAPEAVwxDateTime@@PEAV1@@std@@YAXQEAPEAVwxDateTime@@0AEBQEAV1@@Z
0000000000029060	wxbase33u:event.obj	??$fill@PEAPEBUwxEventTableEntry@@PEBU1@@std@@YAXQEAPEBUwxEventTableEntry@@0AEBQEBU1@@Z
0000000000029060	wxbase33u:fileconf.obj	??$fill@PEAPEAVwxFileConfigEntry@@PEAV1@@std@@YAXQEAPEAVwxFileConfigEntry@@0AEBQEAV1@@Z
0000000000029060	wxbase33u:fileconf.obj	??$fill@PEAPEAVwxFileConfigGroup@@PEAV1@@std@@YAXQEAPEAVwxFileConfigGroup@@0AEBQEAV1@@Z
0000000000029110	wxbase33u:appbase.obj	??$swap@Vexception_ptr@std@@$0A@@std@@YAXAEAVexception_ptr@0@0@Z
0000000000029160	wxbase33u:appbase.obj	??0exception_ptr@std@@QEAA@AEBV01@@Z
0000000000029180	wxbase33u:appbase.obj	??0exception_ptr@std@@QEAA@XZ
00000000000291a0	wxbase33u:appbase.obj	??0wxAppConsoleBase@@QEAA@XZ
0000000000029380	wxbase33u:appbase.obj	??1?$_Alloc_construct_ptr@V?$allocator@U?$_List_node@PEAVwxObject@@PEAX@std@@@std@@@std@@QEAA@XZ
0000000000029380	wxbase33u:dde.obj	??1?$_Alloc_construct_ptr@V?$allocator@U?$_List_node@PEAVwxDDEClient@@PEAX@std@@@std@@@std@@QEAA@XZ
0000000000029380	wxbase33u:dde.obj	??1?$_Alloc_construct_ptr@V?$allocator@U?$_List_node@PEAVwxDDEConnection@@PEAX@std@@@std@@@std@@QEAA@XZ
0000000000029380	wxbase33u:dde.obj	??1?$_Alloc_construct_ptr@V?$allocator@U?$_List_node@PEAVwxDDEServer@@PEAX@std@@@std@@@std@@QEAA@XZ
0000000000029380	wxbase33u:variant.obj	??1?$_Alloc_construct_ptr@V?$allocator@U?$_List_node@PEAVwxAny@@PEAX@std@@@std@@@std@@QEAA@XZ
0000000000029380	wxbase33u:variant.obj	??1?$_Alloc_construct_ptr@V?$allocator@U?$_List_node@PEAVwxVariant@@PEAX@std@@@std@@@std@@QEAA@XZ
00000000000293a0	wxbase33u:appbase.obj	??1StackDump@?1??GetAssertStackTrace@wxAppTraitsBase@@UEAA?AVwxString@@XZ@UEAA@XZ
00000000000293e0	wxbase33u:appbase.obj	??1exception_ptr@std@@QEAA@XZ
00000000000293f0	wxbase33u:appbase.obj	??1wxAppConsoleBase@@UEAA@XZ
00000000000295c0	wxbase33u:appbase.obj	??1wxCmdLineArgsArray@@QEAA@XZ
00000000000296d0	wxbase33u:appbase.obj	??1wxEventFilter@@UEAA@XZ
0000000000029810	wxbase33u:appbase.obj	??1wxEventLoopBaseTiedPtr@@QEAA@XZ
0000000000029830	wxbase33u:appbase.obj	??1wxIdleEvent@@UEAA@XZ
0000000000029830	wxbase33u:dde.obj	??1wxClientBase@@UEAA@XZ
0000000000029830	wxbase33u:dde.obj	??1wxServerBase@@UEAA@XZ
0000000000029830	wxbase33u:event.obj	??1wxEvent@@UEAA@XZ
0000000000029830	wxbase33u:process.obj	??1wxProcessEvent@@UEAA@XZ
0000000000029830	wxbase33u:stream.obj	??1wxOutputStream@@UEAA@XZ
0000000000029850	wxbase33u:appbase.obj	??1wxObjectList@@QEAA@XZ
0000000000029920	wxbase33u:appbase.obj	??1wxRecursionGuard@@QEAA@XZ
0000000000029ac0	wxbase33u:appbase.obj	??1wxStringTokenizer@@UEAA@XZ
0000000000029b50	wxbase33u:appbase.obj	??6wxString@@QEAAAEAV0@_K@Z
0000000000029d50	wxbase33u:appbase.obj	??6wxString@@QEAAAEAV0@_W@Z
0000000000029db8	wxbase33u:appbase.obj	??_EwxAppConsoleBase@@WHI@EAAPEAXI@Z
0000000000029db8	wxbase33u:init.obj	??_EwxDummyConsoleApp@@WHI@EAAPEAXI@Z
0000000000029dd0	wxbase33u:appbase.obj	??_GStackDump@?1??GetAssertStackTrace@wxAppTraitsBase@@UEAA?AVwxString@@XZ@UEAAPEAXI@Z
0000000000029e30	wxbase33u:appbase.obj	??_EwxAppConsoleBase@@UEAAPEAXI@Z
0000000000029e30	wxbase33u:appbase.obj	??_GwxAppConsoleBase@@UEAAPEAXI@Z
0000000000029e30	wxbase33u:init.obj	??_EwxDummyConsoleApp@@UEAAPEAXI@Z
0000000000029e30	wxbase33u:init.obj	??_GwxDummyConsoleApp@@UEAAPEAXI@Z
0000000000029e70	wxbase33u:appbase.obj	??_EwxAppTraitsBase@@UEAAPEAXI@Z
0000000000029e70	wxbase33u:appbase.obj	??_EwxConsoleAppTraits@@UEAAPEAXI@Z
0000000000029e70	wxbase33u:appbase.obj	??_GwxAppTraitsBase@@UEAAPEAXI@Z
0000000000029e70	wxbase33u:appbase.obj	??_GwxConsoleAppTraits@@UEAAPEAXI@Z
0000000000029ea0	wxbase33u:appbase.obj	??_EwxEventFilter@@UEAAPEAXI@Z
0000000000029ea0	wxbase33u:appbase.obj	??_GwxEventFilter@@UEAAPEAXI@Z
0000000000029ee0	wxbase33u:appbase.obj	??_EwxIdleEvent@@UEAAPEAXI@Z
0000000000029ee0	wxbase33u:appbase.obj	??_GwxIdleEvent@@UEAAPEAXI@Z
0000000000029ee0	wxbase33u:process.obj	??_EwxProcessEvent@@UEAAPEAXI@Z
0000000000029ee0	wxbase33u:process.obj	??_GwxProcessEvent@@UEAAPEAXI@Z
0000000000029f20	wxbase33u:appbase.obj	??_EwxMessageOutputBest@@UEAAPEAXI@Z
0000000000029f20	wxbase33u:appbase.obj	??_GwxMessageOutputBest@@UEAAPEAXI@Z
0000000000029f70	wxbase33u:appbase.obj	??_EwxStackWalkerBase@@UEAAPEAXI@Z
0000000000029f70	wxbase33u:appbase.obj	??_GwxStackWalkerBase@@UEAAPEAXI@Z
0000000000029fa0	wxbase33u:appbase.obj	?AddPendingEvent@wxEvtHandler@@UEAAXAEBVwxEvent@@@Z
0000000000029fd0	wxbase33u:appbase.obj	?AppendPendingEventHandler@wxAppConsoleBase@@QEAAXPEAVwxEvtHandler@@@Z
000000000002a070	wxbase33u:appbase.obj	?CallEventHandler@wxAppConsoleBase@@UEBAXPEAVwxEvtHandler@@AEAVwxEventFunctor@@AEAVwxEvent@@@Z
000000000002a0f0	wxbase33u:appbase.obj	?CallOnInit@wxAppConsoleBase@@UEAA_NXZ
000000000002a100	wxbase33u:appbase.obj	?CheckBuildOptions@wxAppConsoleBase@@SA_NPEBD0@Z
000000000002a440	wxbase33u:appbase.obj	?CleanUp@wxAppConsoleBase@@UEAAXXZ
000000000002a490	wxbase33u:appbase.obj	?Clone@wxIdleEvent@@UEBAPEAVwxEvent@@XZ
000000000002a4e0	wxbase33u:appbase.obj	?CreateFontMapper@wxConsoleAppTraitsBase@@UEAAPEAVwxFontMapper@@XZ
000000000002a510	wxbase33u:appbase.obj	?CreateLogTarget@wxConsoleAppTraitsBase@@UEAAPEAVwxLog@@XZ
000000000002a560	wxbase33u:appbase.obj	?CreateMessageOutput@wxConsoleAppTraitsBase@@UEAAPEAVwxMessageOutput@@XZ
000000000002a5c0	MSVCRT:commit_mode.obj	_get_startup_commit_mode
000000000002a5c0	MSVCRT:matherr.obj	_matherr
000000000002a5c0	MSVCRT:new_mode.obj	_get_startup_new_mode
000000000002a5c0	MSVCRT:thread_locale.obj	_get_startup_thread_locale_mode
000000000002a5c0	MSVCRT:utility_desktop.obj	__scrt_exe_initialize_mta
000000000002a5c0	MSVCRT:utility_desktop.obj	__scrt_initialize_winrt
000000000002a5c0	MSVCRT:utility_desktop.obj	__scrt_stub_for_initialize_mta
000000000002a5c0	wxbase33u:appbase.obj	?CreateRenderer@wxConsoleAppTraitsBase@@UEAAPEAVwxRendererNative@@XZ
000000000002a5c0	wxbase33u:appbase.obj	?GetMainHWND@wxConsoleAppTraits@@UEBAPEAUHWND__@@XZ
000000000002a5c0	wxbase33u:basemsw.obj	?BeforeChildWaitLoop@wxConsoleAppTraits@@UEAAPEAXXZ
000000000002a5c0	wxbase33u:msw_uilocale.obj	?GetLayoutDirection@wxUILocaleImplStdC@@UEBA?AW4wxLayoutDirection@@XZ
000000000002a5c0	wxbase33u:stackwalk.obj	?GetParamCount@wxStackFrameBase@@UEBA_KXZ
000000000002a5c0	wxbase33u:stream.obj	?OnSysWrite@wxOutputStream@@MEAA_KPEBX_K@Z
000000000002a5c0	wxbase33u:variant.obj	?GetValueClassInfo@wxVariantData@@UEAAPEAVwxClassInfo@@XZ
000000000002a5d0	wxbase33u:appbase.obj	?CreateTraits@wxAppConsoleBase@@MEAAPEAVwxAppTraits@@XZ
000000000002a5f0	wxbase33u:appbase.obj	?DelayPendingEventHandler@wxAppConsoleBase@@QEAAXPEAVwxEvtHandler@@@Z
000000000002a6a0	wxbase33u:appbase.obj	?DeletePendingObjects@wxAppConsoleBase@@IEAAXXZ
000000000002a790	wxbase33u:appbase.obj	?Dispatch@wxAppConsoleBase@@UEAA_NXZ
000000000002a7c0	wxbase33u:appbase.obj	?DoShowAssertDialog@@YA_NAEBVwxString@@@Z
000000000002a870	wxbase33u:appbase.obj	?Exit@wxAppConsoleBase@@UEAAXXZ
000000000002a8a0	wxbase33u:appbase.obj	?ExitMainLoop@wxAppConsoleBase@@UEAAXXZ
000000000002a8c0	wxbase33u:appbase.obj	?FilterEvent@wxAppConsoleBase@@UEAAHAEAVwxEvent@@@Z
000000000002a8d0	wxbase33u:appbase.obj	?GetAppDisplayName@wxAppConsoleBase@@QEBA?AVwxString@@XZ
000000000002aa80	wxbase33u:appbase.obj	?GetAppName@wxAppConsoleBase@@QEBA?AVwxString@@XZ
000000000002ab80	wxbase33u:appbase.obj	?GetAssertStackTrace@wxAppTraitsBase@@UEAA?AVwxString@@XZ
000000000002ac60	wxbase33u:appbase.obj	?GetDesktopEnvironment@wxConsoleAppTraitsBase@@UEBA?AVwxString@@XZ
000000000002ac60	wxbase33u:appbase.obj	?GetStandardCmdLineOptions@wxAppTraitsBase@@UEBA?AVwxString@@AEAVwxArrayString@@0@Z
000000000002acc0	wxbase33u:appbase.obj	?GetSocketManager@wxAppTraitsBase@@UEAAPEAVwxSocketManager@@XZ
000000000002acd0	wxbase33u:appbase.obj	?GetToolkitVersion@wxConsoleAppTraitsBase@@UEBA?AW4wxPortId@@PEAH00@Z
000000000002acf0	wxbase33u:appbase.obj	?GetTraits@wxAppConsoleBase@@QEAAPEAVwxAppTraits@@XZ
000000000002aec0	wxbase33u:appbase.obj	?GetTraitsIfExists@wxAppConsoleBase@@SAPEAVwxAppTraits@@XZ
000000000002aee0	wxbase33u:appbase.obj	?GetValidTraits@wxAppConsoleBase@@SAAEAVwxAppTraits@@XZ
000000000002af70	wxbase33u:appbase.obj	?HandleEvent@wxAppConsoleBase@@UEBAXPEAVwxEvtHandler@@P82@EAAXAEAVwxEvent@@@Z1@Z
000000000002af80	wxbase33u:appbase.obj	?HasPendingEvents@wxAppConsoleBase@@QEBA_NXZ
000000000002afd0	wxbase33u:appbase.obj	?Initialize@wxAppConsoleBase@@UEAA_NAEAHPEAPEA_W@Z
000000000002aff0	wxbase33u:appbase.obj	?MainLoop@wxAppConsoleBase@@UEAAHXZ
000000000002b090	wxbase33u:appbase.obj	?MutexGuiEnter@wxAppTraitsBase@@UEAAXXZ
000000000002b0a0	wxbase33u:appbase.obj	?MutexGuiLeave@wxAppTraitsBase@@UEAAXXZ
000000000002b0b0	wxbase33u:appbase.obj	?OnAssert@wxAppConsoleBase@@UEAAXPEB_WH00@Z
000000000002b0e0	wxbase33u:appbase.obj	?OnAssertFailure@wxAppConsoleBase@@UEAAXPEB_WH000@Z
000000000002b3a0	wxbase33u:appbase.obj	?OnCmdLineError@wxAppConsoleBase@@UEAA_NAEAVwxCmdLineParser@@@Z
000000000002b3a0	wxbase33u:appbase.obj	?OnCmdLineHelp@wxAppConsoleBase@@UEAA_NAEAVwxCmdLineParser@@@Z
000000000002b3c0	wxbase33u:appbase.obj	?OnCmdLineParsed@wxAppConsoleBase@@UEAA_NAEAVwxCmdLineParser@@@Z
000000000002b440	MSVCRT:denormal_control.obj	_initialize_denormal_control
000000000002b440	MSVCRT:guard_support.obj	_guard_check_icall_nop
000000000002b440	MSVCRT:invalid_parameter_handler.obj	_initialize_invalid_parameter_handler
000000000002b440	log4cpplib:NDC.obj	?_setMaxDepth@NDC@log4cpp@@UEAAXH@Z
000000000002b440	wxbase33u:any.obj	?CopyBuffer@?$wxAnyValueTypeImpl@VwxAnyNullValue@@@@UEBAXAEBTwxAnyValueBuffer@@AEAT2@@Z
000000000002b440	wxbase33u:any.obj	?DeleteValue@?$wxAnyValueTypeImpl@VwxAnyNullValue@@@@UEBAXAEATwxAnyValueBuffer@@@Z
000000000002b440	wxbase33u:any.obj	?DeleteValue@?$wxAnyValueTypeImplBase@N@@UEBAXAEATwxAnyValueBuffer@@@Z
000000000002b440	wxbase33u:any.obj	?DeleteValue@?$wxAnyValueTypeImplBase@PEBD@@UEBAXAEATwxAnyValueBuffer@@@Z
000000000002b440	wxbase33u:any.obj	?DeleteValue@?$wxAnyValueTypeImplBase@PEB_W@@UEBAXAEATwxAnyValueBuffer@@@Z
000000000002b440	wxbase33u:any.obj	?DeleteValue@?$wxAnyValueTypeImplBase@VwxDateTime@@@@UEBAXAEATwxAnyValueBuffer@@@Z
000000000002b440	wxbase33u:any.obj	?DeleteValue@?$wxAnyValueTypeImplBase@_J@@UEBAXAEATwxAnyValueBuffer@@@Z
000000000002b440	wxbase33u:any.obj	?DeleteValue@?$wxAnyValueTypeImplBase@_K@@UEBAXAEATwxAnyValueBuffer@@@Z
000000000002b440	wxbase33u:any.obj	?DeleteValue@?$wxAnyValueTypeImplBase@_N@@UEBAXAEATwxAnyValueBuffer@@@Z
000000000002b440	wxbase33u:appbase.obj	?OnEventLoopEnter@wxAppConsoleBase@@UEAAXPEAVwxEventLoopBase@@@Z
000000000002b440	wxbase33u:appbase.obj	?OnEventLoopExit@wxAppConsoleBase@@UEAAXPEAVwxEventLoopBase@@@Z
000000000002b440	wxbase33u:appbase.obj	?OnFatalException@wxAppConsoleBase@@UEAAXXZ
000000000002b440	wxbase33u:appbase.obj	?OnLaunched@wxAppConsoleBase@@UEAAXXZ
000000000002b440	wxbase33u:basemsw.obj	?AfterChildWaitLoop@wxConsoleAppTraits@@UEAAXPEAX@Z
000000000002b440	wxbase33u:basemsw.obj	?OnNextIteration@wxEventLoopManual@@MEAAXXZ
000000000002b440	wxbase33u:msw_uilocale.obj	?Use@wxUILocaleImplStdC@@UEAAXXZ
000000000002b440	wxbase33u:stackwalk.obj	?OnGetLocation@wxStackFrameBase@@MEAAXXZ
000000000002b440	wxbase33u:stackwalk.obj	?OnGetName@wxStackFrameBase@@MEAAXXZ
000000000002b440	wxbase33u:stream.obj	?Sync@wxOutputStream@@UEAAXXZ
000000000002b440	wxbase33u:variant.obj	?DeleteValue@?$wxAnyValueTypeImplBase@PEAVwxObject@@@@UEBAXAEATwxAnyValueBuffer@@@Z
000000000002b440	wxbase33u:variant.obj	?DeleteValue@?$wxAnyValueTypeImplBase@PEAX@@UEBAXAEATwxAnyValueBuffer@@@Z
000000000002b440	wxbase33u:variant.obj	?DeleteValue@?$wxAnyValueTypeImplBase@VwxUniChar@@@@UEBAXAEATwxAnyValueBuffer@@@Z
000000000002b450	wxbase33u:appbase.obj	?OnExceptionInMainLoop@wxAppConsoleBase@@UEAA_NXZ
000000000002b460	wxbase33u:appbase.obj	?OnExit@wxAppConsoleBase@@UEAAHXZ
000000000002b480	wxbase33u:appbase.obj	?OnInit@wxAppConsoleBase@@UEAA_NXZ
000000000002b520	wxbase33u:appbase.obj	?OnInitCmdLine@wxAppConsoleBase@@UEAAXAEAVwxCmdLineParser@@@Z
000000000002b530	wxbase33u:appbase.obj	?OnRun@wxAppConsoleBase@@UEAAHXZ
000000000002b540	wxbase33u:appbase.obj	?OnStackFrame@StackDump@?1??GetAssertStackTrace@wxAppTraitsBase@@UEAA?AVwxString@@XZ@MEAAXAEBVwxStackFrame@@@Z
000000000002bbf0	wxbase33u:appbase.obj	?OnUnhandledException@wxAppConsoleBase@@UEAAXXZ
000000000002bd60	wxbase33u:appbase.obj	?Pending@wxAppConsoleBase@@UEAA_NXZ
000000000002bd90	wxbase33u:appbase.obj	?ProcessIdle@wxAppConsoleBase@@UEAA_NXZ
000000000002be10	wxbase33u:appbase.obj	?ProcessPendingEvents@wxAppConsoleBase@@UEAAXXZ
000000000002bfd0	wxbase33u:appbase.obj	?Remove@?$wxBaseArray@PEAVwxEvtHandler@@V?$wxSortedArray_SortFunction@PEAVwxEvtHandler@@@@@@QEAAXPEAVwxEvtHandler@@@Z
000000000002c0a0	wxbase33u:appbase.obj	?RemovePendingEventHandler@wxAppConsoleBase@@QEAAXPEAVwxEvtHandler@@@Z
000000000002c280	wxbase33u:appbase.obj	?RethrowStoredException@wxAppConsoleBase@@UEAAXXZ
000000000002c2d0	wxbase33u:appbase.obj	?SetCLocale@wxAppConsoleBase@@UEAAXXZ
000000000002c2e0	wxbase33u:appbase.obj	?SetNextHandler@wxEvtHandler@@UEAAXPEAV1@@Z
000000000002c2f0	wxbase33u:appbase.obj	?SetPreviousHandler@wxEvtHandler@@UEAAXPEAV1@@Z
000000000002c300	wxbase33u:appbase.obj	?SetTraceMasks@@YAXXZ
000000000002c5b0	wxbase33u:appbase.obj	?ShowAssertDialog@@YAXAEBVwxString@@H000PEAVwxAppTraits@@@Z
000000000002ca50	wxbase33u:appbase.obj	?ShowAssertDialog@wxAppTraitsBase@@UEAA_NAEBVwxString@@@Z
000000000002cc00	wxbase33u:appbase.obj	?ShowAssertDialog@wxConsoleAppTraitsBase@@UEAA_NAEBVwxString@@@Z
000000000002cc10	wxbase33u:appbase.obj	?StoreCurrentException@wxAppConsoleBase@@UEAA_NXZ
000000000002cc70	wxbase33u:appbase.obj	?UsesEventLoop@wxAppConsoleBase@@UEBA_NXZ
000000000002cc80	wxbase33u:appbase.obj	?WakeUpIdle@wxAppConsoleBase@@UEAAXXZ
000000000002cca0	log4cpplib:Appender.obj	?_Change_array@?$vector@PEAVAppender@log4cpp@@V?$allocator@PEAVAppender@log4cpp@@@std@@@std@@AEAAXQEAPEAVAppender@log4cpp@@_K1@Z
000000000002cca0	wxbase33u:appbase.obj	?_Change_array@?$vector@PEAVwxEvtHandler@@V?$allocator@PEAVwxEvtHandler@@@std@@@std@@AEAAXQEAPEAVwxEvtHandler@@_K1@Z
000000000002cca0	wxbase33u:datetime.obj	?_Change_array@?$vector@PEAVwxDateTime@@V?$allocator@PEAVwxDateTime@@@std@@@std@@AEAAXQEAPEAVwxDateTime@@_K1@Z
000000000002cca0	wxbase33u:event.obj	?_Change_array@?$vector@PEAUwxDynamicEventTableEntry@@V?$allocator@PEAUwxDynamicEventTableEntry@@@std@@@std@@AEAAXQEAPEAUwxDynamicEventTableEntry@@_K1@Z
000000000002cca0	wxbase33u:event.obj	?_Change_array@?$vector@PEBUwxEventTableEntry@@V?$allocator@PEBUwxEventTableEntry@@@std@@@std@@AEAAXQEAPEBUwxEventTableEntry@@_K1@Z
000000000002cd30	wxbase33u:appbase.obj	?_Reallocate_exactly@?$vector@PEAVwxEvtHandler@@V?$allocator@PEAVwxEvtHandler@@@std@@@std@@AEAAX_K@Z
000000000002cd30	wxbase33u:event.obj	?_Reallocate_exactly@?$vector@PEBUwxEventTableEntry@@V?$allocator@PEBUwxEventTableEntry@@@std@@@std@@AEAAX_K@Z
000000000002cda0	wxbase33u:appbase.obj	?allocate@?$allocator@PEAVwxEvtHandler@@@std@@QEAAPEAPEAVwxEvtHandler@@_K@Z
000000000002cda0	wxbase33u:datetime.obj	?allocate@?$allocator@PEAVwxDateTime@@@std@@QEAAPEAPEAVwxDateTime@@_K@Z
000000000002cda0	wxbase33u:event.obj	?allocate@?$allocator@PEAUwxDynamicEventTableEntry@@@std@@QEAAPEAPEAUwxDynamicEventTableEntry@@_K@Z
000000000002cda0	wxbase33u:event.obj	?allocate@?$allocator@PEBUwxEventTableEntry@@@std@@QEAAPEAPEBUwxEventTableEntry@@_K@Z
000000000002cda0	wxbase33u:module.obj	?allocate@?$allocator@PEAVwxModule@@@std@@QEAAPEAPEAVwxModule@@_K@Z
000000000002ce10	wxbase33u:appbase.obj	?insert@?$vector@PEAVwxEvtHandler@@V?$allocator@PEAVwxEvtHandler@@@std@@@std@@QEAA?AV?$_Vector_iterator@V?$_Vector_val@U?$_Simple_types@PEAVwxEvtHandler@@@std@@@std@@@2@V?$_Vector_const_iterator@V?$_Vector_val@U?$_Simple_types@PEAVwxEvtHandler@@@std@@@std@@@2@_KAEBQEAVwxEvtHandler@@@Z
000000000002ce10	wxbase33u:datetime.obj	?insert@?$vector@PEAVwxDateTime@@V?$allocator@PEAVwxDateTime@@@std@@@std@@QEAA?AV?$_Vector_iterator@V?$_Vector_val@U?$_Simple_types@PEAVwxDateTime@@@std@@@std@@@2@V?$_Vector_const_iterator@V?$_Vector_val@U?$_Simple_types@PEAVwxDateTime@@@std@@@std@@@2@_KAEBQEAVwxDateTime@@@Z
000000000002ce10	wxbase33u:event.obj	?insert@?$vector@PEBUwxEventTableEntry@@V?$allocator@PEBUwxEventTableEntry@@@std@@@std@@QEAA?AV?$_Vector_iterator@V?$_Vector_val@U?$_Simple_types@PEBUwxEventTableEntry@@@std@@@std@@@2@V?$_Vector_const_iterator@V?$_Vector_val@U?$_Simple_types@PEBUwxEventTableEntry@@@std@@@std@@@2@_KAEBQEBUwxEventTableEntry@@@Z
000000000002d0a0	wxbase33u:appbase.obj	?rethrow_exception@std@@YAXVexception_ptr@1@@Z
000000000002d0b0	wxbase33u:appbase.obj	?wxAbort@@YAXXZ
000000000002d0c0	wxbase33u:appbase.obj	?wxIsMainThread@@YA_NXZ
000000000002d0f0	wxbase33u:appbase.obj	?wxOnAssert@@YAXPEBDH000@Z
000000000002d210	wxbase33u:appbase.obj	?wxOnAssert@@YAXPEBDH00AEBVwxString@@@Z
000000000002d300	wxbase33u:appbase.obj	?wxOnAssert@@YAXPEBDH00PEB_W@Z
000000000002d4a0	wxbase33u:appbase.obj	?wxWakeUpIdle@@YAXXZ
000000000002d4c0	wxbase33u:time.obj	?wxGetTimeZone@@YAHXZ
000000000002d530	wxbase33u:time.obj	?wxGetUTCTimeMillis@@YA?AVwxLongLongNative@@XZ
000000000002d590	wxbase33u:time.obj	?wxGmtime_r@@YAPEAUtm@@PEB_JPEAU1@@Z
000000000002d5f0	wxbase33u:time.obj	?wxLocaltime_r@@YAPEAUtm@@PEB_JPEAU1@@Z
000000000002d630	wxbase33u:strconv.obj	?MB2WC@wxMBConv@@UEBA_KPEA_WPEBD_K@Z
000000000002d660	wxbase33u:strconv.obj	?WC2MB@wxMBConv@@UEBA_KPEADPEB_W_K@Z
000000000002d6b0	wxbase33u:strconv.obj	?ToWChar@wxMBConvUTF32LE@@UEBA_KPEA_W_KPEBD1@Z
000000000002d7e0	wxbase33u:strconv.obj	?FromWChar@wxMBConvUTF32LE@@UEBA_KPEAD_KPEB_W1@Z
000000000002d8c0	wxbase33u:strconv.obj	?Clone@wxMBConvUTF32LE@@UEBAPEAVwxMBConv@@XZ
000000000002d8e0	wxbase33u:strconv.obj	?ToWChar@wxMBConvUTF32BE@@UEBA_KPEA_W_KPEBD1@Z
000000000002da30	wxbase33u:strconv.obj	?FromWChar@wxMBConvUTF32BE@@UEBA_KPEAD_KPEB_W1@Z
000000000002db10	wxbase33u:strconv.obj	?Clone@wxMBConvUTF32BE@@UEBAPEAVwxMBConv@@XZ
000000000002db30	wxbase33u:strconv.obj	??0wxCSConv@@QEAA@W4wxFontEncoding@@@Z
000000000002dbe0	wxbase33u:strconv.obj	??0wxMBConv_wxwin@@QEAA@PEBD@Z
000000000002dcd0	wxbase33u:strconv.obj	??0wxMBConv_wxwin@@QEAA@W4wxFontEncoding@@@Z
000000000002dd70	wxbase33u:strconv.obj	??1?$list@U?$pair@$$CBW4wxFontEncoding@@VwxString@@@std@@V?$allocator@U?$pair@$$CBW4wxFontEncoding@@VwxString@@@std@@@2@@std@@QEAA@XZ
000000000002ddf0	wxbase33u:strconv.obj	??1wxEncodingConverter@@UEAA@XZ
000000000002de30	wxbase33u:strconv.obj	??_EwxCSConv@@UEAAPEAXI@Z
000000000002de30	wxbase33u:strconv.obj	??_GwxCSConv@@UEAAPEAXI@Z
000000000002deb0	wxbase33u:strconv.obj	??_EwxEncodingConverter@@UEAAPEAXI@Z
000000000002deb0	wxbase33u:strconv.obj	??_GwxEncodingConverter@@UEAAPEAXI@Z
000000000002df10	wxbase33u:strconv.obj	??_EwxMBConvUTF7@@UEAAPEAXI@Z
000000000002df10	wxbase33u:strconv.obj	??_GwxMBConvUTF7@@UEAAPEAXI@Z
000000000002df40	wxbase33u:strconv.obj	??_EwxMBConv_win32@@UEAAPEAXI@Z
000000000002df40	wxbase33u:strconv.obj	??_GwxMBConv_win32@@UEAAPEAXI@Z
000000000002df70	wxbase33u:strconv.obj	??_EwxMBConv_wxwin@@UEAAPEAXI@Z
000000000002df70	wxbase33u:strconv.obj	??_GwxMBConv_wxwin@@UEAAPEAXI@Z
000000000002e010	wxbase33u:strconv.obj	?Clone@wxCSConv@@UEBAPEAVwxMBConv@@XZ
000000000002e0c0	wxbase33u:strconv.obj	?Clone@wxMBConvUTF16BE@@UEBAPEAVwxMBConv@@XZ
000000000002e0e0	wxbase33u:strconv.obj	?Clone@wxMBConvUTF16LE@@UEBAPEAVwxMBConv@@XZ
000000000002e100	wxbase33u:strconv.obj	?Clone@wxMBConvUTF7@@UEBAPEAVwxMBConv@@XZ
000000000002e140	wxbase33u:strconv.obj	?Clone@wxMBConv_win32@@UEBAPEAVwxMBConv@@XZ
000000000002e180	wxbase33u:strconv.obj	?Clone@wxMBConv_wxwin@@UEBAPEAVwxMBConv@@XZ
000000000002e1b0	wxbase33u:strconv.obj	?Clone@wxWhateverWorksConv@@UEBAPEAVwxMBConv@@XZ
000000000002e1e0	wxbase33u:strconv.obj	?DoConvertMB2WC@wxMBConv@@AEBA?AVwxWCharBuffer@@PEBD_K@Z
000000000002e470	wxbase33u:strconv.obj	?DoConvertWC2MB@wxMBConv@@AEBA?AVwxCharBuffer@@PEB_W_K@Z
000000000002e710	wxbase33u:strconv.obj	?DoCreate@wxCSConv@@AEBAPEAVwxMBConv@@XZ
000000000002f3f4	wxbase33u:strconv.obj	$LN886
000000000002f410	wxbase33u:strconv.obj	?FromWChar@wxCSConv@@UEBA_KPEAD_KPEB_W1@Z
000000000002f4a0	wxbase33u:strconv.obj	?FromWChar@wxMBConv@@UEBA_KPEAD_KPEB_W1@Z
000000000002f920	wxbase33u:strconv.obj	?FromWChar@wxMBConvStrictUTF8@@UEBA_KPEAD_KPEB_W1@Z
000000000002fb70	wxbase33u:strconv.obj	?FromWChar@wxMBConvUTF16BE@@UEBA_KPEAD_KPEB_W1@Z
000000000002fbe0	wxbase33u:strconv.obj	?FromWChar@wxMBConvUTF16LE@@UEBA_KPEAD_KPEB_W1@Z
000000000002fc40	wxbase33u:strconv.obj	?FromWChar@wxMBConvUTF7@@UEBA_KPEAD_KPEB_W1@Z
000000000002ff70	wxbase33u:strconv.obj	?FromWChar@wxMBConvUTF8@@UEBA_KPEAD_KPEB_W1@Z
00000000000301f0	wxbase33u:strconv.obj	?FromWChar@wxWhateverWorksConv@@UEBA_KPEAD_KPEB_W1@Z
0000000000030290	wxbase33u:strconv.obj	?GetMBNulLen@wxCSConv@@UEBA_KXZ
00000000000302b0	wxbase33u:strconv.obj	?GetMBNulLen@wxMBConvUTF16Base@@UEBA_KXZ
00000000000302c0	wxbase33u:strconv.obj	?GetMBNulLen@wxMBConv_win32@@UEBA_KXZ
00000000000305d0	wxbase33u:strconv.obj	?GetMBNulLen@wxMBConv_wxwin@@UEBA_KXZ
0000000000030600	wxbase33u:strconv.obj	?IsUTF8@wxCSConv@@UEBA_NXZ
0000000000030620	wxbase33u:strconv.obj	?MB2WC@wxMBConv_win32@@UEBA_KPEA_WPEBD_K@Z
00000000000306d0	wxbase33u:strconv.obj	?MB2WC@wxMBConv_wxwin@@UEBA_KPEA_WPEBD_K@Z
0000000000030730	wxbase33u:strconv.obj	?ToWChar@wxCSConv@@UEBA_KPEA_W_KPEBD1@Z
0000000000030840	wxbase33u:strconv.obj	?ToWChar@wxMBConv@@UEBA_KPEA_W_KPEBD1@Z
0000000000030b10	wxbase33u:strconv.obj	?ToWChar@wxMBConvStrictUTF8@@UEBA_KPEA_W_KPEBD1@Z
0000000000030cf0	wxbase33u:strconv.obj	?ToWChar@wxMBConvUTF16BE@@UEBA_KPEA_W_KPEBD1@Z
0000000000030d70	wxbase33u:strconv.obj	?ToWChar@wxMBConvUTF16LE@@UEBA_KPEA_W_KPEBD1@Z
0000000000030df0	wxbase33u:strconv.obj	?ToWChar@wxMBConvUTF7@@UEBA_KPEA_W_KPEBD1@Z
0000000000030ff0	wxbase33u:strconv.obj	?ToWChar@wxMBConvUTF8@@UEBA_KPEA_W_KPEBD1@Z
0000000000031320	wxbase33u:strconv.obj	?ToWChar@wxWhateverWorksConv@@UEBA_KPEA_W_KPEBD1@Z
00000000000313f0	wxbase33u:strconv.obj	?WC2MB@wxMBConv_win32@@UEBA_KPEADPEB_W_K@Z
0000000000031770	wxbase33u:strconv.obj	?WC2MB@wxMBConv_wxwin@@UEBA_KPEADPEB_W_K@Z
00000000000317d0	wxbase33u:strconv.obj	?cMB2WC@wxMBConv@@QEBA?AVwxWCharBuffer@@PEBD_KPEA_K@Z
0000000000031980	wxbase33u:strconv.obj	?cWC2MB@wxMBConv@@QEBA?AVwxCharBuffer@@PEB_W_KPEA_K@Z
0000000000031b60	wxbase33u:strconv.obj	?wxGet_wxConvISO8859_1Ptr@@YAPEAVwxCSConv@@XZ
0000000000031bf0	wxbase33u:strconv.obj	?wxGet_wxConvLibcPtr@@YAPEAVwxMBConv@@XZ
0000000000031c60	wxbase33u:strconv.obj	?wxGet_wxConvLocalPtr@@YAPEAVwxCSConv@@XZ
0000000000031d00	wxbase33u:strconv.obj	?wxGet_wxConvUTF8Ptr@@YAPEAVwxMBConvStrictUTF8@@XZ
0000000000031d70	wxbase33u:strconv.obj	?wxGet_wxConvWhateverWorksPtr@@YAPEAVwxWhateverWorksConv@@XZ
0000000000031de0	wxbase33u:unichar.obj	?FromHi8bit@wxUniChar@@CAID@Z
0000000000031e90	wxbase33u:unichar.obj	?GetAsHi8bit@wxUniChar@@CA_NIPEAD@Z
0000000000031f00	wxbase33u:mstream.obj	??0wxMemoryInputStream@@QEAA@PEBX_K@Z
0000000000031f90	wxbase33u:mstream.obj	??1wxMemoryInputStream@@UEAA@XZ
0000000000031fd0	wxbase33u:mstream.obj	??_EwxMemoryInputStream@@UEAAPEAXI@Z
0000000000031fd0	wxbase33u:mstream.obj	??_GwxMemoryInputStream@@UEAAPEAXI@Z
0000000000032030	wxbase33u:mstream.obj	??_EwxMemoryOutputStream@@UEAAPEAXI@Z
0000000000032030	wxbase33u:mstream.obj	??_GwxMemoryOutputStream@@UEAAPEAXI@Z
0000000000032090	wxbase33u:mstream.obj	?CanRead@wxMemoryInputStream@@UEBA_NXZ
00000000000320b0	wxbase33u:mstream.obj	?GetClassInfo@wxMemoryInputStream@@UEBAPEAVwxClassInfo@@XZ
00000000000320c0	wxbase33u:mstream.obj	?GetClassInfo@wxMemoryOutputStream@@UEBAPEAVwxClassInfo@@XZ
00000000000320d0	wxbase33u:mstream.obj	?GetLength@wxMemoryInputStream@@UEBA_JXZ
00000000000320e0	wxbase33u:mstream.obj	?GetLength@wxMemoryOutputStream@@UEBA_JXZ
00000000000320f0	wxbase33u:mstream.obj	?IsOk@wxStreamBase@@UEBA_NXZ
0000000000032100	wxbase33u:mstream.obj	?LastRead@wxInputStream@@UEBA_KXZ
0000000000032100	wxbase33u:mstream.obj	?LastWrite@wxOutputStream@@UEBA_KXZ
0000000000032110	wxbase33u:mstream.obj	?OnSysRead@wxMemoryInputStream@@MEAA_KPEAX_K@Z
0000000000032170	wxbase33u:mstream.obj	?OnSysSeek@wxMemoryInputStream@@MEAA_J_JW4wxSeekMode@@@Z
0000000000032180	wxbase33u:mstream.obj	?OnSysSeek@wxMemoryOutputStream@@MEAA_J_JW4wxSeekMode@@@Z
0000000000032190	wxbase33u:mstream.obj	?OnSysTell@wxMemoryInputStream@@MEBA_JXZ
00000000000321a0	wxbase33u:mstream.obj	?OnSysTell@wxMemoryOutputStream@@MEBA_JXZ
00000000000321b0	wxbase33u:mstream.obj	?OnSysWrite@wxMemoryOutputStream@@MEAA_KPEBX_K@Z
0000000000032200	wxbase33u:mstream.obj	?Peek@wxMemoryInputStream@@UEAADXZ
0000000000032230	wxbase33u:mstream.obj	?wxCreateObject@wxMemoryOutputStream@@SAPEAVwxObject@@XZ
00000000000322a0	wxbase33u:hashmap.obj	?stringHash@wxStringHash@@SAKPEB_W@Z
00000000000322e0	wxbase33u:stream.obj	??0wxInputStream@@QEAA@XZ
0000000000032310	wxbase33u:stream.obj	??0wxOutputStream@@QEAA@XZ
0000000000032330	wxbase33u:stream.obj	??0wxStreamBuffer@@QEAA@W4BufMode@0@@Z
0000000000032360	wxbase33u:stream.obj	??1wxInputStream@@UEAA@XZ
00000000000323a0	wxbase33u:stream.obj	??_EwxCountingOutputStream@@UEAAPEAXI@Z
00000000000323a0	wxbase33u:stream.obj	??_GwxCountingOutputStream@@UEAAPEAXI@Z
00000000000323e0	wxbase33u:stream.obj	??_EwxInputStream@@UEAAPEAXI@Z
00000000000323e0	wxbase33u:stream.obj	??_GwxInputStream@@UEAAPEAXI@Z
0000000000032440	wxbase33u:stream.obj	??_EwxOutputStream@@UEAAPEAXI@Z
0000000000032440	wxbase33u:stream.obj	??_GwxOutputStream@@UEAAPEAXI@Z
0000000000032480	wxbase33u:stream.obj	??_EwxStreamBuffer@@UEAAPEAXI@Z
0000000000032480	wxbase33u:stream.obj	??_GwxStreamBuffer@@UEAAPEAXI@Z
00000000000324e0	wxbase33u:stream.obj	?CanRead@wxInputStream@@UEBA_NXZ
00000000000324f0	wxbase33u:stream.obj	?Eof@wxInputStream@@UEBA_NXZ
0000000000032500	wxbase33u:stream.obj	?FillBuffer@wxStreamBuffer@@QEAA_NXZ
0000000000032550	wxbase33u:stream.obj	?FlushBuffer@wxStreamBuffer@@QEAA_NXZ
0000000000032620	wxbase33u:stream.obj	?GetC@wxInputStream@@QEAAHXZ
0000000000032660	wxbase33u:stream.obj	?GetChar@wxStreamBuffer@@UEAADXZ
0000000000032790	wxbase33u:stream.obj	?GetClassInfo@wxCountingOutputStream@@UEBAPEAVwxClassInfo@@XZ
00000000000327a0	wxbase33u:stream.obj	?GetClassInfo@wxInputStream@@UEBAPEAVwxClassInfo@@XZ
00000000000327b0	wxbase33u:stream.obj	?GetClassInfo@wxOutputStream@@UEBAPEAVwxClassInfo@@XZ
00000000000327c0	log4cpplib:Category.obj	?getParent@Category@log4cpp@@UEAAPEAV12@XZ
00000000000327c0	log4cpplib:Category.obj	?getParent@Category@log4cpp@@UEBAPEBV12@XZ
00000000000327c0	wxbase33u:stream.obj	?GetLength@wxCountingOutputStream@@UEBA_JXZ
00000000000327d0	wxbase33u:stream.obj	?GetLength@wxStreamBase@@UEBA_JXZ
00000000000327d0	wxbase33u:stream.obj	?OnSysSeek@wxStreamBase@@MEAA_J_JW4wxSeekMode@@@Z
00000000000327d0	wxbase33u:stream.obj	?OnSysTell@wxStreamBase@@MEBA_JXZ
00000000000327e0	wxbase33u:stream.obj	?GetSize@wxStreamBase@@UEBA_KXZ
0000000000032800	wxbase33u:stream.obj	?GetWBack@wxInputStream@@IEAA_KPEAX_K@Z
00000000000328f0	wxbase33u:stream.obj	?OnSysSeek@wxCountingOutputStream@@MEAA_J_JW4wxSeekMode@@@Z
0000000000032980	wxbase33u:stream.obj	?OnSysTell@wxCountingOutputStream@@MEBA_JXZ
0000000000032990	wxbase33u:stream.obj	?OnSysWrite@wxCountingOutputStream@@MEAA_KPEBX_K@Z
00000000000329b0	wxbase33u:stream.obj	?Peek@wxInputStream@@UEAADXZ
0000000000032a00	wxbase33u:stream.obj	?Peek@wxStreamBuffer@@UEAADXZ
0000000000032b10	wxbase33u:stream.obj	?PutChar@wxStreamBuffer@@UEAAXD@Z
0000000000032ca0	wxbase33u:stream.obj	?PutToBuffer@wxStreamBuffer@@IEAAXPEBX_K@Z
0000000000032d50	wxbase33u:stream.obj	?Read@wxInputStream@@UEAAAEAV1@PEAX_K@Z
0000000000032e40	wxbase33u:stream.obj	?Read@wxStreamBuffer@@UEAA_KPEAX_K@Z
0000000000033000	wxbase33u:stream.obj	?ResetBuffer@wxStreamBuffer@@QEAAXXZ
0000000000033040	wxbase33u:stream.obj	?Seek@wxStreamBuffer@@UEAA_J_JW4wxSeekMode@@@Z
00000000000331c0	wxbase33u:stream.obj	?SeekI@wxInputStream@@UEAA_J_JW4wxSeekMode@@@Z
0000000000033690	wxbase33u:stream.obj	?SeekO@wxOutputStream@@UEAA_J_JW4wxSeekMode@@@Z
00000000000336a0	wxbase33u:stream.obj	?SetBufferIO@wxStreamBuffer@@QEAAXPEAX_K_N@Z
0000000000033740	wxbase33u:stream.obj	?Tell@wxStreamBuffer@@UEBA_JXZ
00000000000337a0	wxbase33u:stream.obj	?TellI@wxInputStream@@UEBA_JXZ
00000000000337d0	wxbase33u:stream.obj	?TellO@wxOutputStream@@UEBA_JXZ
00000000000337e0	wxbase33u:stream.obj	?Ungetch@wxInputStream@@QEAA_KPEBX_K@Z
00000000000338f0	wxbase33u:stream.obj	?Write@wxOutputStream@@UEAAAEAV1@PEBX_K@Z
0000000000033910	wxbase33u:stream.obj	?Write@wxStreamBuffer@@UEAA_KPEBX_K@Z
0000000000033b00	wxbase33u:stream.obj	?wxCreateObject@wxCountingOutputStream@@SAPEAVwxObject@@XZ
0000000000033b40	wxbase33u:strvararg.obj	??$DoGetArgumentType@_W@?A0x77a92344@@YA?AW4ArgumentType@wxFormatString@@PEB_WI@Z
0000000000033cbc	wxbase33u:strvararg.obj	$LN38
0000000000033d00	wxbase33u:strvararg.obj	??$Format@PEBD@wxString@@SA?AV0@AEBVwxFormatString@@PEBD@Z
0000000000033dc0	wxbase33u:strvararg.obj	??$Format@PEBDH@wxString@@SA?AV0@AEBVwxFormatString@@PEBDH@Z
0000000000033ef0	wxbase33u:strvararg.obj	??0?$wxPrintfConvSpecParser@D@@QEAA@PEBD@Z
0000000000034580	wxbase33u:strvararg.obj	??0?$wxPrintfConvSpecParser@_W@@QEAA@PEB_W@Z
0000000000034d40	wxbase33u:strvararg.obj	??1?$wxFormatConverterBase@_W@@UEAA@XZ
0000000000034db0	wxbase33u:strvararg.obj	??1wxPrintfFormatConverterWchar@@UEAA@XZ
0000000000034dc0	wxbase33u:strvararg.obj	??4?$wxScopedCharTypeBuffer@_W@@QEAAAEAV0@AEBV0@@Z
0000000000034e10	wxbase33u:strvararg.obj	??_E?$wxFormatConverterBase@_W@@UEAAPEAXI@Z
0000000000034e10	wxbase33u:strvararg.obj	??_EwxPrintfFormatConverterWchar@@UEAAPEAXI@Z
0000000000034e10	wxbase33u:strvararg.obj	??_G?$wxFormatConverterBase@_W@@UEAAPEAXI@Z
0000000000034e10	wxbase33u:strvararg.obj	??_GwxPrintfFormatConverterWchar@@UEAAPEAXI@Z
0000000000034e50	wxbase33u:strvararg.obj	?AsWChar@wxFormatString@@AEAAPEB_WXZ
00000000000350d0	wxbase33u:strvararg.obj	?Convert@?$wxFormatConverterBase@_W@@QEAA?AV?$wxScopedCharTypeBuffer@_W@@PEB_W@Z
0000000000035600	wxbase33u:strvararg.obj	?CopyAllBefore@?$wxFormatConverterBase@_W@@AEAAXXZ
00000000000357e0	wxbase33u:strvararg.obj	?GetArgumentType@wxFormatString@@QEBA?AW4ArgumentType@1@I@Z
00000000000359d0	wxbase33u:strvararg.obj	$LN83
0000000000035a10	wxbase33u:strvararg.obj	?HandleChar@wxPrintfFormatConverterWchar@@EEAAX_WW4SizeModifier@?$wxFormatConverterBase@_W@@AEA_WAEAW423@@Z
0000000000035a30	wxbase33u:strvararg.obj	?HandleString@wxPrintfFormatConverterWchar@@EEAAX_WW4SizeModifier@?$wxFormatConverterBase@_W@@AEA_WAEAW423@@Z
0000000000035a50	wxbase33u:strvararg.obj	?Parse@?$wxPrintfConvSpec@D@@QEAA_NPEBD@Z
0000000000035fa4	wxbase33u:strvararg.obj	$LN261
0000000000035ff0	wxbase33u:strvararg.obj	$LN260
0000000000036070	wxbase33u:strvararg.obj	?Parse@?$wxPrintfConvSpec@_W@@QEAA_NPEB_W@Z
00000000000365c4	wxbase33u:strvararg.obj	$LN261
0000000000036610	wxbase33u:strvararg.obj	$LN260
0000000000036690	wxbase33u:strvararg.obj	?get@?$wxArgNormalizerWchar@AEBVwxCStrData@@@@QEBAPEB_WXZ
00000000000366b0	wxbase33u:strvararg.obj	?get@?$wxArgNormalizerWchar@AEBVwxString@@@@QEBAPEB_WXZ
00000000000366c0	wxbase33u:log.obj	??$_Destroy_range@V?$allocator@UwxLogRecord@@@std@@@std@@YAXPEAUwxLogRecord@@QEAU1@AEAV?$allocator@UwxLogRecord@@@0@@Z
0000000000036740	wxbase33u:log.obj	??$_Emplace_reallocate@AEBVwxString@@@?$vector@VwxString@@V?$allocator@VwxString@@@std@@@std@@AEAAPEAVwxString@@QEAV2@AEBV2@@Z
00000000000369e0	wxbase33u:log.obj	??$_Emplace_reallocate@UwxLogRecord@@@?$vector@UwxLogRecord@@V?$allocator@UwxLogRecord@@@std@@@std@@AEAAPEAUwxLogRecord@@QEAU2@$$QEAU2@@Z
0000000000036ca0	wxbase33u:log.obj	??$_Uninitialized_move@PEAUwxLogRecord@@V?$allocator@UwxLogRecord@@@std@@@std@@YAPEAUwxLogRecord@@QEAU1@0PEAU1@AEAV?$allocator@UwxLogRecord@@@0@@Z
0000000000036d30	wxbase33u:log.obj	??$insert@V?$_List_unchecked_const_iterator@V?$_List_val@U?$_List_simple_types@U?$pair@$$CBVwxString@@V1@@std@@@std@@@std@@U_Iterator_base0@2@@std@@@?$_Hash@V?$_Umap_traits@VwxString@@V1@V?$_Uhash_compare@VwxString@@UwxStringHash@@UwxStringEqual@@@std@@V?$allocator@U?$pair@$$CBVwxString@@V1@@std@@@3@$0A@@std@@@std@@QEAAXV?$_List_unchecked_const_iterator@V?$_List_val@U?$_List_simple_types@U?$pair@$$CBVwxString@@V1@@std@@@std@@@std@@U_Iterator_base0@2@@1@0@Z
0000000000037010	wxbase33u:log.obj	??$insert@V?$_List_unchecked_const_iterator@V?$_List_val@U?$_List_simple_types@U?$pair@$$CBVwxString@@_K@std@@@std@@@std@@U_Iterator_base0@2@@std@@@?$_Hash@V?$_Umap_traits@VwxString@@_KV?$_Uhash_compare@VwxString@@UwxStringHash@@UwxStringEqual@@@std@@V?$allocator@U?$pair@$$CBVwxString@@_K@std@@@3@$0A@@std@@@std@@QEAAXV?$_List_unchecked_const_iterator@V?$_List_val@U?$_List_simple_types@U?$pair@$$CBVwxString@@_K@std@@@std@@@std@@U_Iterator_base0@2@@1@0@Z
0000000000037270	wxbase33u:log.obj	??0wxLogStderr@@QEAA@PEAU_iobuf@@AEBVwxMBConv@@@Z
0000000000037300	wxbase33u:log.obj	??1?$_Uninitialized_backout_al@V?$allocator@UwxLogRecord@@@std@@@std@@QEAA@XZ
0000000000037310	wxbase33u:log.obj	??1?$vector@UwxLogRecord@@V?$allocator@UwxLogRecord@@@std@@@std@@QEAA@XZ
00000000000373a0	wxbase33u:log.obj	??1wxLog@@UEAA@XZ
0000000000037740	wxbase33u:log.obj	??1wxLogRecord@@QEAA@XZ
0000000000037794	wxbase33u:log.obj	??_EwxLogStderr@@WBA@EAAPEAXI@Z
00000000000377a0	wxbase33u:log.obj	??_EwxLog@@UEAAPEAXI@Z
00000000000377a0	wxbase33u:log.obj	??_GwxLog@@UEAAPEAXI@Z
00000000000377e0	wxbase33u:log.obj	??_EwxLogFormatter@@UEAAPEAXI@Z
00000000000377e0	wxbase33u:log.obj	??_GwxLogFormatter@@UEAAPEAXI@Z
0000000000037810	wxbase33u:log.obj	??_GwxLogOutputBest@?A0x60f24122@@UEAAPEAXI@Z
0000000000037850	wxbase33u:log.obj	??_EwxLogStderr@@UEAAPEAXI@Z
0000000000037850	wxbase33u:log.obj	??_GwxLogStderr@@UEAAPEAXI@Z
00000000000378b0	wxbase33u:log.obj	?AddTraceMask@wxLog@@SAXAEBVwxString@@@Z
0000000000037930	wxbase33u:log.obj	?CallDoLogNow@wxLog@@AEAAXKAEBVwxString@@AEBVwxLogRecordInfo@@@Z
0000000000038030	wxbase33u:log.obj	?Copy@wxLogRecordInfo@@AEAAXAEBV1@@Z
0000000000038180	wxbase33u:log.obj	?DoCreateOnDemand@wxLog@@SAXXZ
0000000000038190	wxbase33u:log.obj	?DoLogRecord@wxLog@@MEAAXKAEBVwxString@@AEBVwxLogRecordInfo@@@Z
0000000000038200	wxbase33u:log.obj	?DoLogText@wxLog@@MEAAXAEBVwxString@@@Z
0000000000038250	wxbase33u:log.obj	?DoLogText@wxLogOutputBest@?A0x60f24122@@MEAAXAEBVwxString@@@Z
00000000000382e0	wxbase33u:log.obj	?DoLogText@wxLogStderr@@MEAAXAEBVwxString@@@Z
0000000000038400	wxbase33u:log.obj	?DoLogTextAtLevel@wxLog@@MEAAXKAEBVwxString@@@Z
00000000000384f0	wxbase33u:log.obj	?EnableThreadLogging@wxLog@@CA_N_N@Z
0000000000038530	wxbase33u:log.obj	?Flush@wxLog@@UEAAXXZ
0000000000038540	wxbase33u:log.obj	?FlushActive@wxLog@@SAXXZ
00000000000386e0	wxbase33u:log.obj	?Format@wxLogFormatter@@UEBA?AVwxString@@KAEBV2@AEBVwxLogRecordInfo@@@Z
0000000000038af0	wxbase33u:log.obj	?FormatTimeMS@wxLogFormatter@@MEBA?AVwxString@@_J@Z
0000000000038be0	wxbase33u:log.obj	?GetActiveTarget@wxLog@@SAPEAV1@XZ
0000000000038c20	wxbase33u:log.obj	?GetBackgroundLogCS@?A0x60f24122@@YAAEAVwxCriticalSection@@XZ
0000000000038ca0	wxbase33u:log.obj	?GetComponentLevel@wxLog@@SAKAEBVwxString@@@Z
0000000000038e30	wxbase33u:log.obj	?GetComponentLevels@?A0x60f24122@@YAAEAV?$unordered_map@VwxString@@_KUwxStringHash@@UwxStringEqual@@V?$allocator@U?$pair@$$CBVwxString@@_K@std@@@std@@@std@@XZ
0000000000038f10	wxbase33u:log.obj	?GetLevelsCS@?A0x60f24122@@YAAEAVwxCriticalSection@@XZ
0000000000038f90	wxbase33u:log.obj	?GetMainThreadActiveTarget@wxLog@@CAPEAV1@XZ
0000000000039060	wxbase33u:log.obj	?GetTraceMaskCS@?A0x60f24122@@YAAEAVwxCriticalSection@@XZ
00000000000390e0	wxbase33u:log.obj	?IsAllowedTraceMask@wxLog@@SA_NAEBVwxString@@@Z
0000000000039170	wxbase33u:log.obj	?IsThreadLoggingEnabled@wxLog@@CA_NXZ
0000000000039190	wxbase33u:log.obj	?LogLastRepeatIfNeeded@wxLog@@IEAAIXZ
0000000000039680	wxbase33u:log.obj	?OnLog@wxLog@@SAXKAEBVwxString@@AEBVwxLogRecordInfo@@@Z
0000000000039850	wxbase33u:log.obj	?SetActiveTarget@wxLog@@SAPEAV1@PEAV1@@Z
0000000000039890	wxbase33u:log.obj	?TraceMasks@?A0x60f24122@@YAAEAVwxArrayString@@XZ
0000000000039900	wxbase33u:log.obj	?_Rehash_for_1@?$_Hash@V?$_Umap_traits@VwxString@@_KV?$_Uhash_compare@VwxString@@UwxStringHash@@UwxStringEqual@@@std@@V?$allocator@U?$pair@$$CBVwxString@@_K@std@@@3@$0A@@std@@@std@@IEAAXXZ
00000000000399b0	wxbase33u:log.obj	?deallocate@?$allocator@UwxLogRecord@@@std@@QEAAXQEAUwxLogRecord@@_K@Z
00000000000399f0	wxbase33u:log.obj	?wxMSWFormatMessage@@YA?AVwxString@@KPEAUHINSTANCE__@@@Z
0000000000039fd0	wxbase33u:log.obj	?wxSafeShowMessage@@YA_NAEBVwxString@@0@Z
000000000003a200	wxbase33u:log.obj	?wxSysErrorCode@@YAKXZ
000000000003a210	wxbase33u:log.obj	?wxSysErrorMsgStr@@YA?AVwxString@@K@Z
000000000003a240	wxbase33u:log.obj	fwprintf
000000000003a290	wxbase33u:stringops.obj	?EncodeChar@wxStringOperationsWchar@@SA?AUUtf16CharBuffer@1@AEBVwxUniChar@@@Z
000000000003a300	wxbase33u:stringops.obj	?EncodeNChars@wxStringOperationsWchar@@SA?AVwxWCharBuffer@@_KAEBVwxUniChar@@@Z
000000000003a500	wxbase33u:stringops.obj	?HighSurrogate@wxUniChar@@QEBAGXZ
000000000003a570	wxbase33u:stringops.obj	?LowSurrogate@wxUniChar@@QEBAGXZ
000000000003a5f0	wxbase33u:msgout.obj	??0wxMessageOutputStderr@@QEAA@PEAU_iobuf@@AEBVwxMBConv@@@Z
000000000003a640	wxbase33u:msgout.obj	?AppendLineFeedIfNeeded@wxMessageOutputWithConv@@IEAA?AVwxString@@AEBV2@@Z
000000000003a6b0	wxbase33u:msgout.obj	?DoPrintfWchar@wxMessageOutput@@IEAAXPEB_WZZ
000000000003a7d0	wxbase33u:msgout.obj	?Get@wxMessageOutput@@SAPEAV1@XZ
000000000003a810	wxbase33u:msgout.obj	?Output@wxMessageOutputBest@@UEAAXAEBVwxString@@@Z
000000000003ab10	wxbase33u:msgout.obj	?Output@wxMessageOutputDebug@@UEAAXAEBVwxString@@@Z
000000000003ac90	wxbase33u:msgout.obj	?Output@wxMessageOutputStderr@@UEAAXAEBVwxString@@@Z
000000000003ae30	wxbase33u:msgout.obj	?Set@wxMessageOutput@@SAPEAV1@PEAV1@@Z
000000000003ae40	wxbase33u:cmdline.obj	??$Format@VwxCStrData@@@wxString@@SA?AV0@AEBVwxFormatString@@VwxCStrData@@@Z
000000000003af30	wxbase33u:cmdline.obj	??$Format@VwxCStrData@@V1@@wxString@@SA?AV0@AEBVwxFormatString@@VwxCStrData@@1@Z
000000000003b0d0	wxbase33u:cmdline.obj	??$OnScopeExit@V?$wxScopeGuardImpl1@P6APEADPEBD@ZPEBD@@@wxPrivate@@YAXAEAV?$wxScopeGuardImpl1@P6APEADPEBD@ZPEBD@@@Z
000000000003b0f0	wxbase33u:cmdline.obj	??$Printf@VwxString@@@wxString@@QEAAHAEBVwxFormatString@@V0@@Z
000000000003b1d0	wxbase33u:cmdline.obj	??$_Emplace_reallocate@VwxString@@@?$vector@VwxString@@V?$allocator@VwxString@@@std@@@std@@AEAAPEAVwxString@@QEAV2@$$QEAV2@@Z
000000000003b330	wxbase33u:cmdline.obj	??0wxCmdLineArgImpl@@QEAA@AEBV0@@Z
000000000003b3d0	wxbase33u:cmdline.obj	??0wxCmdLineArgImpl@@QEAA@W4wxCmdLineEntryType@@AEBVwxString@@1W4wxCmdLineParamType@@@Z
000000000003b7e0	wxbase33u:cmdline.obj	??0wxFormatString@@QEAA@AEBVwxString@@@Z
000000000003b830	wxbase33u:cmdline.obj	??1?$wxBaseObjectArray@UwxCmdLineOption@@VwxObjectArrayTraitsForwxArrayOptions@@@@QEAA@XZ
000000000003b8f0	wxbase33u:cmdline.obj	??1?$wxBaseObjectArray@UwxCmdLineParam@@VwxObjectArrayTraitsForwxArrayParams@@@@QEAA@XZ
000000000003b9d0	wxbase33u:cmdline.obj	??1?$wxBaseObjectArray@VwxCmdLineArgImpl@@VwxObjectArrayTraitsForwxArrayArgs@@@@QEAA@XZ
000000000003ba40	wxbase33u:cmdline.obj	??1?$wxScopeGuardImpl1@P6APEADPEBD@ZPEBD@@QEAA@XZ
000000000003ba50	wxbase33u:cmdline.obj	??1wxCmdLineArg@@UEAA@XZ
000000000003ba60	wxbase33u:cmdline.obj	??1wxCmdLineArgImpl@@UEAA@XZ
000000000003bad0	wxbase33u:cmdline.obj	??1wxCmdLineParser@@QEAA@XZ
000000000003bb60	wxbase33u:cmdline.obj	??1wxFileName@@QEAA@XZ
000000000003bbc0	wxbase33u:cmdline.obj	??6wxString@@QEAAAEAV0@AEBV0@@Z
000000000003bbf0	wxbase33u:cmdline.obj	??_EwxCmdLineArg@@UEAAPEAXI@Z
000000000003bbf0	wxbase33u:cmdline.obj	??_GwxCmdLineArg@@UEAAPEAXI@Z
000000000003bc20	wxbase33u:cmdline.obj	??_EwxCmdLineArgImpl@@UEAAPEAXI@Z
000000000003bc20	wxbase33u:cmdline.obj	??_GwxCmdLineArgImpl@@UEAAPEAXI@Z
000000000003bc60	wxbase33u:cmdline.obj	??_EwxCmdLineOption@@UEAAPEAXI@Z
000000000003bc60	wxbase33u:cmdline.obj	??_GwxCmdLineOption@@UEAAPEAXI@Z
000000000003bcc0	wxbase33u:cmdline.obj	?AddUsageText@wxCmdLineParser@@QEAAXAEBVwxString@@@Z
000000000003bf30	wxbase33u:cmdline.obj	?Empty@?$wxBaseObjectArray@VwxCmdLineArgImpl@@VwxObjectArrayTraitsForwxArrayArgs@@@@QEAAXXZ
000000000003bfa0	wxbase33u:cmdline.obj	?FindOption@wxCmdLineParserData@@QEAAHAEBVwxString@@@Z
000000000003c030	wxbase33u:cmdline.obj	?FindOptionByAnyName@wxCmdLineParserData@@QEAAPEBUwxCmdLineOption@@AEBVwxString@@@Z
000000000003c190	wxbase33u:cmdline.obj	?FindOptionByLongName@wxCmdLineParserData@@QEAAHAEBVwxString@@@Z
000000000003c220	wxbase33u:cmdline.obj	?Found@wxCmdLineParser@@QEBA_NAEBVwxString@@@Z
000000000003c250	wxbase33u:cmdline.obj	?Found@wxCmdLineParser@@QEBA_NAEBVwxString@@PEAV2@@Z
000000000003c300	wxbase33u:cmdline.obj	?GetDateVal@wxCmdLineArgImpl@@UEBAAEBVwxDateTime@@XZ
000000000003c370	wxbase33u:cmdline.obj	?GetDoubleVal@wxCmdLineArgImpl@@UEBANXZ
000000000003c3e0	wxbase33u:cmdline.obj	?GetKind@wxCmdLineArgImpl@@UEBA?AW4wxCmdLineEntryType@@XZ
000000000003c3f0	wxbase33u:cmdline.obj	?GetLongName@wxCmdLineArgImpl@@UEBA?AVwxString@@XZ
000000000003c470	wxbase33u:cmdline.obj	?GetLongOptionName@@YA?AVwxString@@Vconst_iterator@1@0@Z
000000000003c510	wxbase33u:cmdline.obj	?GetLongVal@wxCmdLineArgImpl@@UEBAJXZ
000000000003c580	wxbase33u:cmdline.obj	?GetShortName@wxCmdLineArgImpl@@UEBA?AVwxString@@XZ
000000000003c600	wxbase33u:cmdline.obj	?GetShortOptionName@@YA?AVwxString@@Vconst_iterator@1@0@Z
000000000003c6a0	wxbase33u:cmdline.obj	?GetStrVal@wxCmdLineArgImpl@@UEBAAEBVwxString@@XZ
000000000003c710	wxbase33u:cmdline.obj	?GetType@wxCmdLineArgImpl@@UEBA?AW4wxCmdLineParamType@@XZ
000000000003c780	wxbase33u:cmdline.obj	?GetTypeName@@YA?AVwxString@@W4wxCmdLineParamType@@@Z
000000000003cdd0	wxbase33u:cmdline.obj	?GetUsageString@wxCmdLineParser@@QEBA?AVwxString@@XZ
000000000003dd90	wxbase33u:cmdline.obj	?Init@wxCmdLineParser@@AEAAXXZ
000000000003de50	wxbase33u:cmdline.obj	?IsNegated@wxCmdLineArgImpl@@UEBA_NXZ
000000000003dec0	wxbase33u:cmdline.obj	?Last@wxString@@QEAA?AVwxUniCharRef@@XZ
000000000003df50	wxbase33u:cmdline.obj	?Parse@wxCmdLineParser@@QEAAH_N@Z
0000000000040e90	wxbase33u:cmdline.obj	?RemoveLast@wxString@@QEAAAEAV1@_K@Z
0000000000040ea0	wxbase33u:cmdline.obj	?SetAllLocaleFacets@?A0xb2017d6c@@YAPEADPEBD@Z
0000000000040eb0	wxbase33u:cmdline.obj	?SetArguments@wxCmdLineParserData@@QEAAXHPEAPEAD@Z
0000000000041480	wxbase33u:cmdline.obj	?SetCmdLine@wxCmdLineParser@@QEAAXHAEBVwxCmdLineArgsArray@@@Z
00000000000414b0	wxbase33u:cmdline.obj	?SetCmdLine@wxCmdLineParser@@QEAAXHPEAPEAD@Z
00000000000414c0	wxbase33u:cmdline.obj	?SetDateVal@wxCmdLineArgImpl@@QEAAAEAV1@AEBVwxDateTime@@@Z
0000000000041540	wxbase33u:cmdline.obj	?SetDesc@wxCmdLineParser@@QEAAXPEBUwxCmdLineEntryDesc@@@Z
0000000000042ac0	wxbase33u:cmdline.obj	?SetDoubleVal@wxCmdLineArgImpl@@QEAAAEAV1@N@Z
0000000000042b40	wxbase33u:cmdline.obj	?SetLongVal@wxCmdLineArgImpl@@QEAAAEAV1@J@Z
0000000000042bc0	wxbase33u:cmdline.obj	?SetStrVal@wxCmdLineArgImpl@@QEAAAEAV1@AEBVwxString@@@Z
0000000000042c50	wxbase33u:cmdline.obj	?Usage@wxCmdLineParser@@QEBAXXZ
0000000000042e40	wxbase33u:cmdline.obj	?_Reallocate_exactly@?$vector@VwxString@@V?$allocator@VwxString@@@std@@@std@@AEAAX_K@Z
0000000000042f00	wxbase33u:cmdline.obj	?end@wxString@@QEAA?AViterator@1@XZ
0000000000042f20	wxbase33u:cmdline.obj	?insert@?$vector@PEAVwxCmdLineArgImpl@@V?$allocator@PEAVwxCmdLineArgImpl@@@std@@@std@@QEAA?AV?$_Vector_iterator@V?$_Vector_val@U?$_Simple_types@PEAVwxCmdLineArgImpl@@@std@@@std@@@2@V?$_Vector_const_iterator@V?$_Vector_val@U?$_Simple_types@PEAVwxCmdLineArgImpl@@@std@@@std@@@2@_KAEBQEAVwxCmdLineArgImpl@@@Z
0000000000042f20	wxbase33u:fileconf.obj	?insert@?$vector@PEAVwxFileConfigEntry@@V?$allocator@PEAVwxFileConfigEntry@@@std@@@std@@QEAA?AV?$_Vector_iterator@V?$_Vector_val@U?$_Simple_types@PEAVwxFileConfigEntry@@@std@@@std@@@2@V?$_Vector_const_iterator@V?$_Vector_val@U?$_Simple_types@PEAVwxFileConfigEntry@@@std@@@std@@@2@_KAEBQEAVwxFileConfigEntry@@@Z
0000000000042f20	wxbase33u:fileconf.obj	?insert@?$vector@PEAVwxFileConfigGroup@@V?$allocator@PEAVwxFileConfigGroup@@@std@@@std@@QEAA?AV?$_Vector_iterator@V?$_Vector_val@U?$_Simple_types@PEAVwxFileConfigGroup@@@std@@@std@@@2@V?$_Vector_const_iterator@V?$_Vector_val@U?$_Simple_types@PEAVwxFileConfigGroup@@@std@@@std@@@2@_KAEBQEAVwxFileConfigGroup@@@Z
0000000000043250	wxbase33u:cmdline.obj	?push_back@?$wxBaseObjectArray@VwxCmdLineArgImpl@@VwxObjectArrayTraitsForwxArrayArgs@@@@QEAAXAEBVwxCmdLineArgImpl@@@Z
00000000000432c0	wxbase33u:cmdline.obj	?wxGetTranslation@@YAAEBVwxString@@AEBV1@00@Z
0000000000043310	wxbase33u:utils.obj	??0?$wxStringTypeBuffer@_W@@QEAA@AEAVwxString@@_K@Z
0000000000043440	wxbase33u:utils.obj	??1wxDynamicLibrary@@QEAA@XZ
0000000000043470	wxbase33u:utils.obj	??1wxLogNull@@QEAA@XZ
00000000000434b0	wxbase33u:utils.obj	?MaybeStore@wxLogger@@QEAAAEAV1@AEBVwxString@@_K@Z
0000000000043590	wxbase33u:utils.obj	?wxCharsetToCodepage@@YAJPEBD@Z
0000000000043620	wxbase33u:utils.obj	?wxEncodingToCodepage@@YAJW4wxFontEncoding@@@Z
0000000000043858	wxbase33u:utils.obj	$LN63
0000000000043928	wxbase33u:utils.obj	$LN62
0000000000043990	wxbase33u:utils.obj	?wxGetEnv@@YA_NAEBVwxString@@PEAV1@@Z
0000000000043a20	wxbase33u:utils.obj	?wxGetFullModuleName@@YA?AVwxString@@PEAUHINSTANCE__@@@Z
0000000000043e20	wxbase33u:utils.obj	?wxGetHomeDir@@YAPEB_WPEAVwxString@@@Z
0000000000043ff0	wxbase33u:utils.obj	?wxGetUserHome@@YA?AVwxString@@AEBV1@@Z
00000000000440d0	wxbase33u:utils.obj	?wxGetUserId@@YA_NPEA_WH@Z
0000000000044130	wxbase33u:utils.obj	?wxSleep@@YAXH@Z
0000000000044140	wxbase33u:utils.obj	wxCreateHiddenWindow
00000000000446b0	wxbase33u:utilsexc.obj	??0wxLogNull@@QEAA@XZ
0000000000044700	wxbase33u:utilsexc.obj	??0wxPipeOutputStream@@QEAA@PEAX@Z
0000000000044a70	wxbase33u:utilsexc.obj	??1wxExecuteData@@QEAA@XZ
0000000000044db0	wxbase33u:utilsexc.obj	??1wxPipe@@QEAA@XZ
0000000000044df0	wxbase33u:utilsexc.obj	??1wxStreamTempInputBuffer@@QEAA@XZ
0000000000044e30	wxbase33u:utilsexc.obj	??YwxString@@QEAAAEAV0@VwxUniChar@@@Z
0000000000044ec0	wxbase33u:utilsexc.obj	??_EwxPipeInputStream@@UEAAPEAXI@Z
0000000000044ec0	wxbase33u:utilsexc.obj	??_GwxPipeInputStream@@UEAAPEAXI@Z
0000000000044f20	wxbase33u:utilsexc.obj	??_EwxPipeOutputStream@@UEAAPEAXI@Z
0000000000044f20	wxbase33u:utilsexc.obj	??_GwxPipeOutputStream@@UEAAPEAXI@Z
0000000000044f70	wxbase33u:utilsexc.obj	?CanRead@wxPipeInputStream@@UEBA_NXZ
0000000000045250	wxbase33u:utilsexc.obj	?Close@wxPipeOutputStream@@UEAA_NXZ
0000000000045270	wxbase33u:utilsexc.obj	?Create@Event@wxWinAPI@@QEAA_NW4Kind@12@W4InitialState@12@PEB_W@Z
0000000000045600	wxbase33u:utilsexc.obj	?Create@wxPipe@@QEAA_NXZ
0000000000045d40	wxbase33u:utilsexc.obj	?DoClose@?$AutoHANDLE@$0A@@@IEAAXXZ
0000000000046070	wxbase33u:utilsexc.obj	?GetClassInfo@wxExecuteModule@@UEBAPEAVwxClassInfo@@XZ
0000000000046080	wxbase33u:utilsexc.obj	?OnExit@wxExecuteModule@@UEAAXXZ
00000000000469c0	wxbase33u:utilsexc.obj	?OnSysRead@wxPipeInputStream@@MEAA_KPEAX_K@Z
0000000000046a20	wxbase33u:utilsexc.obj	?OnSysWrite@wxPipeOutputStream@@MEAA_KPEBX_K@Z
0000000000046ac0	wxbase33u:utilsexc.obj	?Set@Event@wxWinAPI@@QEAA_NXZ
0000000000046e50	wxbase33u:utilsexc.obj	?wxCreateObject@wxExecuteModule@@SAPEAVwxObject@@XZ
0000000000046e90	wxbase33u:utilsexc.obj	?wxExecute@@YAJAEBVwxString@@HPEAVwxProcess@@PEBUwxExecuteEnv@@@Z
000000000004a210	wxbase33u:utilsexc.obj	?wxExecuteDDE@@YA_NAEBVwxString@@00@Z
000000000004a3f0	wxbase33u:utilsexc.obj	?wxExecuteThread@@YAKPEAX@Z
000000000004ad10	wxbase33u:utilsexc.obj	?wxExecuteWindowCbk@@YA_JPEAUHWND__@@I_K_J@Z
000000000004b0d0	wxbase33u:file.obj	??0wxFile@@QEAA@AEBVwxString@@W4OpenMode@0@@Z
000000000004b100	wxbase33u:file.obj	??0wxTempFile@@QEAA@AEBVwxString@@@Z
000000000004b160	wxbase33u:file.obj	??1wxTempFile@@QEAA@XZ
000000000004b1c0	wxbase33u:file.obj	?Close@wxFile@@QEAA_NXZ
000000000004b960	wxbase33u:file.obj	?Commit@wxTempFile@@QEAA_NXZ
000000000004c9f0	wxbase33u:file.obj	?Discard@wxTempFile@@QEAAXXZ
000000000004d2c0	wxbase33u:file.obj	?Exists@wxFile@@SA_NAEBVwxString@@@Z
000000000004d2d0	wxbase33u:file.obj	?Length@wxFile@@QEBA_JXZ
000000000004dae0	wxbase33u:file.obj	?Open@wxFile@@QEAA_NAEBVwxString@@W4OpenMode@1@H@Z
000000000004e430	wxbase33u:file.obj	?Open@wxTempFile@@QEAA_NAEBVwxString@@@Z
000000000004e7f0	wxbase33u:file.obj	?Read@wxFile@@QEAA_JPEAX_K@Z
000000000004ec90	wxbase33u:file.obj	?ReadAll@wxFile@@QEAA_NPEAVwxString@@AEBVwxMBConv@@@Z
000000000004ef60	wxbase33u:file.obj	?Seek@wxFile@@QEAA_J_JW4wxSeekMode@@@Z
000000000004f800	wxbase33u:file.obj	?Tell@wxFile@@QEBA_JXZ
000000000004ffe0	wxbase33u:file.obj	?Write@wxFile@@QEAA_KPEBX_K@Z
0000000000050480	wxbase33u:file.obj	?Write@wxFile@@QEAA_NAEBVwxString@@AEBVwxMBConv@@@Z
00000000000506e0	wxbase33u:file.obj	?extend@?$wxCharTypeBuffer@D@@QEAA_N_K@Z
0000000000050830	wxbase33u:file.obj	?shrink@?$wxCharTypeBuffer@D@@QEAAX_K@Z
0000000000050950	wxbase33u:convauto.obj	?FromWChar@wxConvAuto@@UEBA_KPEAD_KPEB_W1@Z
00000000000509d0	wxbase33u:convauto.obj	?InitFromInput@wxConvAuto@@AEAA_NPEBD_K@Z
0000000000050ce8	wxbase33u:convauto.obj	$LN102
0000000000050d10	wxbase33u:convauto.obj	?InitWithUTF8@wxConvAuto@@AEAAXXZ
0000000000050d50	wxbase33u:convauto.obj	?ToWChar@wxConvAuto@@UEBA_KPEA_W_KPEBD1@Z
0000000000050f94	wxbase33u:convauto.obj	$LN57
0000000000050fb0	wxbase33u:init.obj	??$Init@_W@wxCmdLineArgsArray@@QEAAXHPEAPEA_W@Z
00000000000511a0	wxbase33u:init.obj	??1wxAppPtr@@QEAA@XZ
00000000000511d0	wxbase33u:init.obj	??1wxCallAppCleanup@@QEAA@XZ
00000000000511f0	wxbase33u:init.obj	?DoCommonPostInit@@YA_NXZ
0000000000051730	wxbase33u:init.obj	?FreeConvertedArgs@@YAXXZ
00000000000517d0	wxbase33u:init.obj	?OnRun@wxDummyConsoleApp@@UEAAHXZ
0000000000051830	wxbase33u:init.obj	?wxEntryStart@@YA_NAEAHPEAPEA_W@Z
0000000000051a00	wxbase33u:init.obj	?wxInitialize@@YA_NXZ
0000000000051a40	wxbase33u:init.obj	?wxUninitialize@@YAXXZ
0000000000051b00	wxbase33u:wxcrt.obj	?wxSetlocale@@YAPEADHPEBD@Z
0000000000051b80	wxbase33u:wxcrt.obj	?wxVsnprintf@@YAHPEA_W_KAEBVwxString@@PEAD@Z
0000000000051c00	wxbase33u:common_uilocale.obj	??1wxLocaleIdent@@QEAA@XZ
0000000000051cd0	wxbase33u:common_uilocale.obj	??1wxUILocale@@QEAA@XZ
0000000000051cf0	wxbase33u:common_uilocale.obj	?GetCurrent@wxUILocale@@SAAEBV1@XZ
0000000000051d50	wxbase33u:common_uilocale.obj	?GetInfo@wxUILocale@@QEBA?AVwxString@@W4wxLocaleInfo@@W4wxLocaleCategory@@@Z
0000000000051d90	wxbase33u:common_uilocale.obj	?IsDefaultCLocale@?A0x1d430fd6@@YA_NAEBVwxString@@@Z
0000000000051e60	wxbase33u:common_uilocale.obj	?Language@wxLocaleIdent@@QEAAAEAV1@AEBVwxString@@@Z
0000000000051ff0	wxbase33u:common_uilocale.obj	?find@wxString@@QEBA_KVwxUniChar@@_K@Z
0000000000052180	wxbase33u:common_uilocale.obj	?find_first_not_of@wxString@@QEBA_KPEBD_K@Z
00000000000523a0	wxbase33u:xlocale.obj	?GetCLocale@wxXLocale@@SAAEAV1@XZ
00000000000523f0	wxbase33u:xlocale.obj	?GetClassInfo@wxXLocaleModule@@UEBAPEAVwxClassInfo@@XZ
0000000000052400	wxbase33u:xlocale.obj	?OnExit@wxXLocaleModule@@UEAAXXZ
0000000000052440	wxbase33u:xlocale.obj	?wxCreateObject@wxXLocaleModule@@SAPEAVwxObject@@XZ
0000000000052480	wxbase33u:object.obj	??0wxClassInfo@@QEAA@PEB_WPEBV0@1HP6APEAVwxObject@@XZ@Z
00000000000524d0	wxbase33u:object.obj	??1wxClassInfo@@QEAA@XZ
00000000000525b0	wxbase33u:object.obj	??1wxHashTableBase@@UEAA@XZ
00000000000525c0	wxbase33u:object.obj	??Dconst_iterator@wxClassInfo@@QEBAPEBV1@XZ
00000000000525d0	wxbase33u:object.obj	??Econst_iterator@wxClassInfo@@QEAAAEAV01@XZ
00000000000525f0	wxbase33u:object.obj	??_EwxHashTable@@UEAAPEAXI@Z
00000000000525f0	wxbase33u:object.obj	??_GwxHashTable@@UEAAPEAXI@Z
0000000000052640	wxbase33u:object.obj	??_EwxHashTableBase@@UEAAPEAXI@Z
0000000000052640	wxbase33u:object.obj	??_GwxHashTableBase@@UEAAPEAXI@Z
0000000000052670	wxbase33u:object.obj	?CloneRefData@wxObject@@MEBAPEAVwxRefCounter@@PEBV2@@Z
00000000000526d0	wxbase33u:object.obj	?CreateRefData@wxObject@@MEBAPEAVwxRefCounter@@XZ
0000000000052730	wxbase33u:object.obj	?DecRef@wxRefCounter@@QEAAXXZ
00000000000527c0	wxbase33u:object.obj	?FindClass@wxClassInfo@@SAPEAV1@AEBVwxString@@@Z
0000000000052840	wxbase33u:object.obj	?GetClassInfo@wxObject@@UEBAPEAVwxClassInfo@@XZ
0000000000052850	wxbase33u:object.obj	?IsKindOf@wxClassInfo@@QEBA_NPEBV1@@Z
00000000000528c0	wxbase33u:object.obj	?Ref@wxObject@@QEAAXAEBV1@@Z
0000000000052900	wxbase33u:object.obj	?Register@wxClassInfo@@IEAAXXZ
0000000000052e60	wxbase33u:object.obj	?UnRef@wxObject@@QEAAXXZ
0000000000052f00	wxbase33u:object.obj	?begin_classinfo@wxClassInfo@@SA?AVconst_iterator@1@XZ
0000000000052f50	wxbase33u:object.obj	?end_classinfo@wxClassInfo@@SA?AVconst_iterator@1@XZ
0000000000052f60	wxbase33u:module.obj	??$_Assign_range@PEAPEAVwxModule@@@?$vector@PEAVwxModule@@V?$allocator@PEAVwxModule@@@std@@@std@@AEAAXPEAPEAVwxModule@@0Uforward_iterator_tag@1@@Z
00000000000530d0	wxbase33u:module.obj	??$_Emplace_reallocate@AEBQEAVwxModule@@@?$vector@PEAVwxModule@@V?$allocator@PEAVwxModule@@@std@@@std@@AEAAPEAPEAVwxModule@@QEAPEAV2@AEBQEAV2@@Z
0000000000053210	wxbase33u:module.obj	?CleanUpModules@wxModule@@SAXXZ
0000000000053230	wxbase33u:module.obj	?DoCleanUpModules@wxModule@@CAXAEBV?$vector@PEAVwxModule@@V?$allocator@PEAVwxModule@@@std@@@std@@@Z
00000000000536c0	wxbase33u:module.obj	?DoInitializeModule@wxModule@@CA_NPEAV1@AEAV?$vector@PEAVwxModule@@V?$allocator@PEAVwxModule@@@std@@@std@@@Z
0000000000054aa0	wxbase33u:module.obj	?GetClassInfo@wxModule@@UEBAPEAVwxClassInfo@@XZ
0000000000054ab0	wxbase33u:module.obj	?InitializeModules@wxModule@@SA_NXZ
0000000000054ff0	wxbase33u:module.obj	?RegisterModules@wxModule@@SAXXZ
0000000000055450	wxbase33u:translation.obj	??$LogTrace@VwxString@@V1@V1@V1@V1@@wxLogger@@QEAAXAEBVwxString@@AEBVwxFormatString@@V1@2222@Z
00000000000557c0	wxbase33u:translation.obj	??$emplace@AEBVwxString@@@?$_Hash@V?$_Uset_traits@VwxString@@V?$_Uhash_compare@VwxString@@UwxStringHash@@UwxStringEqual@@@std@@V?$allocator@VwxString@@@3@$0A@@std@@@std@@QEAA?AU?$pair@V?$_List_const_iterator@V?$_List_val@U?$_List_simple_types@VwxString@@@std@@@std@@@std@@_N@1@AEBVwxString@@@Z
0000000000055a50	wxbase33u:translation.obj	??1?$_Alloc_construct_ptr@V?$allocator@U?$_List_node@VwxString@@PEAX@std@@@std@@@std@@QEAA@XZ
0000000000055a70	wxbase33u:translation.obj	??1?$_Hash@V?$_Umap_traits@VwxString@@PEAVwxMsgCatalog@@V?$_Uhash_compare@VwxString@@UwxStringHash@@UwxStringEqual@@@std@@V?$allocator@U?$pair@$$CBVwxString@@PEAVwxMsgCatalog@@@std@@@4@$0A@@std@@@std@@QEAA@XZ
0000000000055ae0	wxbase33u:translation.obj	??1?$_List_node_emplace_op2@V?$allocator@U?$_List_node@VwxString@@PEAX@std@@@std@@@std@@QEAA@XZ
0000000000055b30	wxbase33u:translation.obj	??1?$_Tidy_guard@V?$vector@VwxString@@V?$allocator@VwxString@@@std@@@std@@@std@@QEAA@XZ
0000000000055b40	wxbase33u:dde.obj	??1?$list@U?$pair@$$CBVwxString@@PEAUHSZ__@@@std@@V?$allocator@U?$pair@$$CBVwxString@@PEAUHSZ__@@@std@@@2@@std@@QEAA@XZ
0000000000055b40	wxbase33u:translation.obj	??1?$list@U?$pair@$$CBVwxString@@PEAVwxMsgCatalog@@@std@@V?$allocator@U?$pair@$$CBVwxString@@PEAVwxMsgCatalog@@@std@@@2@@std@@QEAA@XZ
0000000000055bc0	wxbase33u:translation.obj	??1wxPluralFormsNodePtr@@QEAA@XZ
0000000000055c00	wxbase33u:translation.obj	??_GwxTranslations@@QEAAPEAXI@Z
0000000000055d10	wxbase33u:translation.obj	?FindCatalog@wxTranslations@@AEBAPEAVwxMsgCatalog@@AEBVwxString@@@Z
0000000000055d90	wxbase33u:translation.obj	?Get@wxTranslations@@SAPEAV1@XZ
0000000000055da0	wxbase33u:translation.obj	?GetClassInfo@wxTranslationsModule@@UEBAPEAVwxClassInfo@@XZ
0000000000055db0	wxbase33u:translation.obj	?GetString@wxMsgCatalog@@QEBAPEBVwxString@@AEBV2@I0@Z
0000000000056270	wxbase33u:translation.obj	?GetTranslatedString@wxTranslations@@QEBAPEBVwxString@@AEBV2@00@Z
0000000000056290	wxbase33u:translation.obj	?GetTranslatedString@wxTranslations@@QEBAPEBVwxString@@AEBV2@I00@Z
0000000000056fe0	wxbase33u:translation.obj	?GetUntranslatedString@wxTranslations@@SAAEBVwxString@@AEBV2@@Z
0000000000057050	wxbase33u:translation.obj	?OnExit@wxTranslationsModule@@UEAAXXZ
0000000000057090	wxbase33u:any.obj	?_Assign_grow@?$_Hash_vec@V?$allocator@V?$_List_unchecked_iterator@V?$_List_val@U?$_List_simple_types@U?$pair@QEAVwxAnyValueType@@P6APEAVwxVariantData@@AEBVwxAny@@@Z@std@@@std@@@std@@@std@@@std@@@std@@QEAAX_KV?$_List_unchecked_iterator@V?$_List_val@U?$_List_simple_types@U?$pair@QEAVwxAnyValueType@@P6APEAVwxVariantData@@AEBVwxAny@@@Z@std@@@std@@@std@@@2@@Z
0000000000057090	wxbase33u:dde.obj	?_Assign_grow@?$_Hash_vec@V?$allocator@V?$_List_unchecked_iterator@V?$_List_val@U?$_List_simple_types@U?$pair@$$CBVwxString@@PEAUHSZ__@@@std@@@std@@@std@@@std@@@std@@@std@@QEAAX_KV?$_List_unchecked_iterator@V?$_List_val@U?$_List_simple_types@U?$pair@$$CBVwxString@@PEAUHSZ__@@@std@@@std@@@std@@@2@@Z
0000000000057090	wxbase33u:timer.obj	?_Assign_grow@?$_Hash_vec@V?$allocator@V?$_List_unchecked_iterator@V?$_List_val@U?$_List_simple_types@U?$pair@$$CB_KPEAVwxMSWTimerImpl@@@std@@@std@@@std@@@std@@@std@@@std@@QEAAX_KV?$_List_unchecked_iterator@V?$_List_val@U?$_List_simple_types@U?$pair@$$CB_KPEAVwxMSWTimerImpl@@@std@@@std@@@std@@@2@@Z
0000000000057090	wxbase33u:translation.obj	?_Assign_grow@?$_Hash_vec@V?$allocator@V?$_List_unchecked_const_iterator@V?$_List_val@U?$_List_simple_types@VwxString@@@std@@@std@@U_Iterator_base0@2@@std@@@std@@@std@@QEAAX_KV?$_List_unchecked_const_iterator@V?$_List_val@U?$_List_simple_types@VwxString@@@std@@@std@@U_Iterator_base0@2@@2@@Z
00000000000571c0	wxbase33u:translation.obj	?_Forced_rehash@?$_Hash@V?$_Uset_traits@VwxString@@V?$_Uhash_compare@VwxString@@UwxStringHash@@UwxStringEqual@@@std@@V?$allocator@VwxString@@@3@$0A@@std@@@std@@IEAAX_K@Z
00000000000573a0	wxbase33u:translation.obj	?evaluate@wxPluralFormsNode@@QEBAHH@Z
000000000005762c	wxbase33u:translation.obj	$LN68
0000000000057670	wxbase33u:translation.obj	?wxCreateObject@wxTranslationsModule@@SAPEAVwxObject@@XZ
00000000000576b0	wxbase33u:main.obj	?wxSetInstance@@YAXPEAUHINSTANCE__@@@Z
00000000000576c0	wxbase33u:main.obj	wxGetInstance
00000000000576d0	wxbase33u:dynlib.obj	?DoGetSymbol@wxDynamicLibrary@@IEBAPEAXAEBVwxString@@PEA_N@Z
0000000000057750	wxbase33u:dynlib.obj	?GetSymbol@wxDynamicLibrary@@QEBAPEAXAEBVwxString@@PEA_N@Z
0000000000057960	wxbase33u:dynlib.obj	?Load@wxDynamicLibrary@@QEAA_NAEBVwxString@@H@Z
0000000000057c70	wxbase33u:dlmsw.obj	?Find@wxString@@QEBAHPEBD@Z
0000000000057dd0	wxbase33u:dlmsw.obj	?RawGetSymbol@wxDynamicLibrary@@SAPEAXPEAUHINSTANCE__@@AEBVwxString@@@Z
0000000000057e60	wxbase33u:dlmsw.obj	?RawLoad@wxDynamicLibrary@@SAPEAUHINSTANCE__@@AEBVwxString@@H@Z
0000000000057e90	wxbase33u:dlmsw.obj	?ReportError@wxDynamicLibrary@@KAXAEBVwxString@@0@Z
0000000000058aa0	wxbase33u:dlmsw.obj	?Unload@wxDynamicLibrary@@SAXPEAUHINSTANCE__@@@Z
0000000000058dd0	wxbase33u:threadinfo.obj	??$_Destroy_range@V?$allocator@V?$wxSharedPtr@VwxThreadSpecificInfo@@@@@std@@@std@@YAXPEAV?$wxSharedPtr@VwxThreadSpecificInfo@@@@QEAV1@AEAV?$allocator@V?$wxSharedPtr@VwxThreadSpecificInfo@@@@@0@@Z
0000000000058e40	wxbase33u:threadinfo.obj	??$_Emplace_reallocate@V?$wxSharedPtr@VwxThreadSpecificInfo@@@@@?$vector@V?$wxSharedPtr@VwxThreadSpecificInfo@@@@V?$allocator@V?$wxSharedPtr@VwxThreadSpecificInfo@@@@@std@@@std@@AEAAPEAV?$wxSharedPtr@VwxThreadSpecificInfo@@@@QEAV2@$$QEAV2@@Z
00000000000590b0	wxbase33u:threadinfo.obj	??1?$_Hash@V?$_Uset_traits@VwxString@@V?$_Uhash_compare@VwxString@@UwxStringHash@@UwxStringEqual@@@std@@V?$allocator@VwxString@@@3@$0A@@std@@@std@@QEAA@XZ
0000000000059120	wxbase33u:threadinfo.obj	??1?$list@VwxString@@V?$allocator@VwxString@@@std@@@std@@QEAA@XZ
00000000000591a0	wxbase33u:threadinfo.obj	??1?$wxSharedPtr@VwxThreadSpecificInfo@@@@QEAA@XZ
00000000000591f0	wxbase33u:threadinfo.obj	??_Ereftype@?$wxSharedPtr@VwxThreadSpecificInfo@@@@UEAAPEAXI@Z
00000000000591f0	wxbase33u:threadinfo.obj	??_Greftype@?$wxSharedPtr@VwxThreadSpecificInfo@@@@UEAAPEAXI@Z
0000000000059220	wxbase33u:threadinfo.obj	?Get@wxThreadSpecificInfo@@SAAEAV1@XZ
0000000000059450	wxbase33u:threadinfo.obj	?GetAllThreadInfos@?A0xa6e508fb@@YAAEAV?$vector@V?$wxSharedPtr@VwxThreadSpecificInfo@@@@V?$allocator@V?$wxSharedPtr@VwxThreadSpecificInfo@@@@@std@@@std@@XZ
00000000000594c0	wxbase33u:threadinfo.obj	?GetAllThreadInfosCS@?A0xa6e508fb@@YAAEAVwxCriticalSection@@XZ
0000000000059540	wxbase33u:threadinfo.obj	?delete_ptr@reftype@?$wxSharedPtr@VwxThreadSpecificInfo@@@@UEAAXXZ
0000000000059570	wxbase33u:list.obj	?DeleteFunction@_WX_LIST_HELPER_wxObjectList@@SAXPEAVwxObject@@@Z
0000000000059590	wxbase33u:event.obj	??$_Resize_reallocate@U_Value_init_tag@std@@@?$vector@PEAUwxDynamicEventTableEntry@@V?$allocator@PEAUwxDynamicEventTableEntry@@@std@@@std@@AEAAX_KAEBU_Value_init_tag@1@@Z
0000000000059660	wxbase33u:event.obj	??0wxEvent@@IEAA@AEBV0@@Z
00000000000596d0	wxbase33u:event.obj	??0wxEvent@@QEAA@HH@Z
0000000000059710	wxbase33u:event.obj	??0wxEvtHandler@@QEAA@XZ
0000000000059770	wxbase33u:event.obj	??0wxThreadEvent@@QEAA@AEBV0@@Z
0000000000059a10	wxbase33u:event.obj	??1wxEventAnyPayloadMixin@@QEAA@XZ
0000000000059a40	wxbase33u:event.obj	??1wxEventBasicPayloadMixin@@QEAA@XZ
0000000000059a60	wxbase33u:event.obj	??1wxEventProcessInHandlerOnly@@QEAA@XZ
0000000000059a70	wxbase33u:event.obj	??1wxEventPtr@@QEAA@XZ
0000000000059a90	wxbase33u:event.obj	??1wxEventTableEntry@@QEAA@XZ
0000000000059ab0	wxbase33u:event.obj	??1wxEvtHandler@@UEAA@XZ
0000000000059d30	wxbase33u:event.obj	??1wxTrackable@@IEAA@XZ
0000000000059d70	wxbase33u:event.obj	??_EwxEvent@@UEAAPEAXI@Z
0000000000059d70	wxbase33u:event.obj	??_GwxEvent@@UEAAPEAXI@Z
0000000000059db0	wxbase33u:event.obj	??_EwxEvtHandler@@UEAAPEAXI@Z
0000000000059db0	wxbase33u:event.obj	??_GwxEvtHandler@@UEAAPEAXI@Z
0000000000059df0	wxbase33u:event.obj	??_EwxThreadEvent@@UEAAPEAXI@Z
0000000000059df0	wxbase33u:event.obj	??_GwxThreadEvent@@UEAAPEAXI@Z
0000000000059e70	wxbase33u:event.obj	?AddEntry@wxEventHashTable@@IEAAXAEBUwxEventTableEntry@@@Z
0000000000059f50	wxbase33u:event.obj	?AddFilter@wxEvtHandler@@SAXPEAVwxEventFilter@@@Z
0000000000059fc0	wxbase33u:event.obj	?Clone@wxThreadEvent@@UEBAPEAVwxEvent@@XZ
0000000000059ff0	wxbase33u:event.obj	?DoGetClientData@wxEvtHandler@@MEBAPEAXXZ
000000000005a060	wxbase33u:event.obj	?DoGetClientObject@wxEvtHandler@@MEBAPEAVwxClientData@@XZ
000000000005a0d0	wxbase33u:event.obj	?DoSetClientData@wxEvtHandler@@MEAAXPEAX@Z
000000000005a160	wxbase33u:event.obj	?DoSetClientObject@wxEvtHandler@@MEAAXPEAVwxClientData@@@Z
000000000005a1f0	wxbase33u:event.obj	?FindRefInTrackerList@wxEvtHandler@@IEAAPEAVwxEventConnectionRef@@PEAV1@@Z
000000000005a2a0	wxbase33u:event.obj	?GetClassInfo@wxEvent@@UEBAPEAVwxClassInfo@@XZ
000000000005a2b0	wxbase33u:event.obj	?GetClassInfo@wxEvtHandler@@UEBAPEAVwxClassInfo@@XZ
000000000005a2c0	wxbase33u:event.obj	?GetClassInfo@wxIdleEvent@@UEBAPEAVwxClassInfo@@XZ
000000000005a2d0	wxbase33u:event.obj	?GetClassInfo@wxThreadEvent@@UEBAPEAVwxClassInfo@@XZ
000000000005a2e0	wxbase33u:event.obj	?GetEventCategory@wxThreadEvent@@UEBA?AW4wxEventCategory@@XZ
000000000005a2f0	wxbase33u:event.obj	?GetEventHashTable@wxEvtHandler@@MEBAAEAVwxEventHashTable@@XZ
000000000005a300	wxbase33u:event.obj	?GetEventTable@wxEvtHandler@@MEBAPEBUwxEventTable@@XZ
000000000005a310	wxbase33u:event.obj	?GrowEventTypeTable@wxEventHashTable@@IEAAXXZ
000000000005a3d0	wxbase33u:event.obj	?ProcessEvent@wxEvtHandler@@UEAA_NAEAVwxEvent@@@Z
000000000005a540	wxbase33u:event.obj	?ProcessEventIfMatchesId@wxEvtHandler@@SA_NAEBUwxEventTableEntryBase@@PEAV1@AEAVwxEvent@@@Z
000000000005a5d0	wxbase33u:event.obj	?ProcessPendingEvents@wxEvtHandler@@QEAAXXZ
000000000005aab0	wxbase33u:event.obj	?QueueEvent@wxEvtHandler@@UEAAXPEAVwxEvent@@@Z
000000000005aec0	wxbase33u:event.obj	?RemoveFilter@wxEvtHandler@@SAXPEAVwxEventFilter@@@Z
000000000005af60	wxbase33u:event.obj	?RemoveNode@wxTrackable@@QEAAXPEAVwxTrackerNode@@@Z
000000000005afe0	wxbase33u:event.obj	?SearchDynamicEventTable@wxEvtHandler@@QEAA_NAEAVwxEvent@@@Z
000000000005b1e0	wxbase33u:event.obj	?SearchEventTable@wxEvtHandler@@UEAA_NAEAUwxEventTable@@AEAVwxEvent@@@Z
000000000005b2d0	wxbase33u:event.obj	?TryAfter@wxEvtHandler@@MEAA_NAEAVwxEvent@@@Z
000000000005b330	wxbase33u:event.obj	?TryHereOnly@wxEvtHandler@@IEAA_NAEAVwxEvent@@@Z
000000000005b4b0	wxbase33u:event.obj	?_Xrange@?$vector@PEAUwxDynamicEventTableEntry@@V?$allocator@PEAUwxDynamicEventTableEntry@@@std@@@std@@CAXXZ
000000000005b4d0	wxbase33u:event.obj	?wxCreateObject@wxEvtHandler@@SAPEAVwxObject@@XZ
000000000005b540	wxbase33u:event.obj	?wxCreateObject@wxIdleEvent@@SAPEAVwxObject@@XZ
000000000005b590	wxbase33u:event.obj	?wxCreateObject@wxThreadEvent@@SAPEAVwxObject@@XZ
000000000005b630	wxbase33u:event.obj	?wxNewEventType@@YAHXZ
000000000005b640	wxbase33u:config.obj	??0wxConfigBase@@QEAA@AEBVwxString@@000J@Z
000000000005b6a0	wxbase33u:config.obj	??0wxConfigPathChanger@@QEAA@PEBVwxConfigBase@@AEBVwxString@@@Z
000000000005b870	wxbase33u:config.obj	??1wxConfigBase@@UEAA@XZ
000000000005b8d0	wxbase33u:config.obj	??1wxConfigPathChanger@@QEAA@XZ
000000000005b920	wxbase33u:config.obj	??_EwxConfigBase@@UEAAPEAXI@Z
000000000005b920	wxbase33u:config.obj	??_GwxConfigBase@@UEAAPEAXI@Z
000000000005b9a0	wxbase33u:config.obj	?CreateConfig@wxAppTraitsBase@@UEAAPEAVwxConfigBase@@XZ
000000000005bb10	wxbase33u:config.obj	?DoReadBool@wxConfigBase@@MEBA_NAEBVwxString@@PEA_N@Z
000000000005c020	wxbase33u:config.obj	?DoReadDouble@wxConfigBase@@MEBA_NAEBVwxString@@PEAN@Z
000000000005c170	wxbase33u:config.obj	?DoReadLongLong@wxConfigBase@@MEBA_NAEBVwxString@@PEA_J@Z
000000000005c2c0	wxbase33u:config.obj	?DoWriteBool@wxConfigBase@@MEAA_NAEBVwxString@@_N@Z
000000000005c2d0	wxbase33u:config.obj	?DoWriteDouble@wxConfigBase@@MEAA_NAEBVwxString@@N@Z
000000000005c350	wxbase33u:config.obj	?DoWriteLongLong@wxConfigBase@@MEAA_NAEBVwxString@@_J@Z
000000000005c490	wxbase33u:config.obj	?ExpandEnvVars@wxConfigBase@@QEBA?AVwxString@@AEBV2@@Z
000000000005c560	wxbase33u:config.obj	?GetClassInfo@wxConfigBase@@UEBAPEAVwxClassInfo@@XZ
000000000005c570	wxbase33u:config.obj	?GetEntryType@wxConfigBase@@UEBA?AW4EntryType@1@AEBVwxString@@@Z
000000000005c590	wxbase33u:config.obj	?Read@wxConfigBase@@QEBA_NAEBVwxString@@PEAJJ@Z
000000000005c650	wxbase33u:config.obj	?Read@wxConfigBase@@QEBA_NAEBVwxString@@PEAV2@0@Z
000000000005c770	wxbase33u:config.obj	?Read@wxConfigBase@@QEBA_NAEBVwxString@@PEAV2@@Z
000000000005c860	wxbase33u:config.obj	?RemoveTrailingSeparator@wxConfigBase@@KA?AVwxString@@AEBV2@@Z
000000000005c940	wxbase33u:config.obj	?Set@wxConfigBase@@SAPEAV1@PEAV1@@Z
000000000005c950	wxbase33u:config.obj	?UpdateIfDeleted@wxConfigPathChanger@@QEAAXXZ
000000000005ca40	wxbase33u:config.obj	?wxExpandEnvVars@@YA?AVwxString@@AEBV1@@Z
000000000005ce30	wxbase33u:config.obj	?wxSplitPath@@YAXAEAVwxArrayString@@AEBVwxString@@@Z
000000000005d740	wxbase33u:stdpbase.obj	?GetLocalDataDir@wxStandardPathsBase@@UEBA?AVwxString@@XZ
000000000005d740	wxbase33u:stdpbase.obj	?GetResourcesDir@wxStandardPathsBase@@UEBA?AVwxString@@XZ
000000000005d760	wxbase33u:stdpbase.obj	?GetLocalizedResourcesDir@wxStandardPathsBase@@UEBA?AVwxString@@AEBV2@W4ResourceCat@1@@Z
000000000005d810	wxbase33u:stdpbase.obj	?GetDocumentsDir@wxStandardPathsBase@@UEBA?AVwxString@@XZ
000000000005d830	wxbase33u:stdpbase.obj	?GetAppDocumentsDir@wxStandardPathsBase@@UEBA?AVwxString@@XZ
000000000005d950	wxbase33u:stdpbase.obj	?GetTempDir@wxStandardPathsBase@@UEBA?AVwxString@@XZ
000000000005d970	wxbase33u:stdpbase.obj	??_GwxStandardPathsDefault@?A0xc59aff5d@@UEAAPEAXI@Z
000000000005d9d0	wxbase33u:stdpbase.obj	??0wxStandardPathsBase@@IEAA@XZ
000000000005d9f0	wxbase33u:stdpbase.obj	??1wxStandardPathsBase@@UEAA@XZ
000000000005da00	wxbase33u:stdpbase.obj	??_EwxStandardPathsBase@@UEAAPEAXI@Z
000000000005da00	wxbase33u:stdpbase.obj	??_GwxStandardPathsBase@@UEAAPEAXI@Z
000000000005da30	wxbase33u:stdpbase.obj	?AppendAppInfo@wxStandardPathsBase@@IEBA?AVwxString@@AEBV2@@Z
000000000005db50	wxbase33u:stdpbase.obj	?AppendPathComponent@wxStandardPathsBase@@KA?AVwxString@@AEBV2@0@Z
000000000005dc40	wxbase33u:stdpbase.obj	?Get@wxStandardPathsBase@@SAAEAVwxStandardPaths@@XZ
000000000005dcb0	wxbase33u:stdpbase.obj	?GetAbsolutePath@wxFileName@@QEBA?AVwxString@@AEBV2@W4wxPathFormat@@@Z
000000000005df90	wxbase33u:stdpbase.obj	?GetExecutablePath@wxStandardPathsBase@@UEBA?AVwxString@@XZ
000000000005e5a0	wxbase33u:stdpbase.obj	?GetStandardPaths@wxAppTraitsBase@@UEAAAEAVwxStandardPaths@@XZ
000000000005e5b0	wxbase33u:stdpbase.obj	?GetUserDir@wxStandardPathsBase@@UEBA?AVwxString@@W4Dir@1@@Z
000000000005e5d0	wxbase33u:stdpbase.obj	?GetUserLocalDataDir@wxStandardPathsBase@@UEBA?AVwxString@@XZ
000000000005e5f0	wxbase33u:basemsw.obj	??_EwxConsoleEventLoop@@UEAAPEAXI@Z
000000000005e5f0	wxbase33u:basemsw.obj	??_GwxConsoleEventLoop@@UEAAPEAXI@Z
000000000005e5f0	wxbase33u:evtloopconsole.obj	??_EwxMSWEventLoopBase@@UEAAPEAXI@Z
000000000005e5f0	wxbase33u:evtloopconsole.obj	??_GwxMSWEventLoopBase@@UEAAPEAXI@Z
000000000005e630	wxbase33u:basemsw.obj	??_EwxMSWTimerImpl@@UEAAPEAXI@Z
000000000005e630	wxbase33u:basemsw.obj	??_GwxMSWTimerImpl@@UEAAPEAXI@Z
000000000005e660	wxbase33u:basemsw.obj	??_EwxTimerImpl@@UEAAPEAXI@Z
000000000005e660	wxbase33u:basemsw.obj	??_GwxTimerImpl@@UEAAPEAXI@Z
000000000005e690	wxbase33u:basemsw.obj	?CreateEventLoop@wxConsoleAppTraits@@UEAAPEAVwxEventLoopBase@@XZ
000000000005e6d0	wxbase33u:basemsw.obj	?CreateTimerImpl@wxConsoleAppTraits@@UEAAPEAVwxTimerImpl@@PEAVwxTimer@@@Z
000000000005e720	wxbase33u:basemsw.obj	?IsEventAllowedInsideYield@wxEventLoopBase@@UEBA_NW4wxEventCategory@@@Z
000000000005e730	wxbase33u:basemsw.obj	?IsRunning@wxMSWTimerImpl@@UEBA_NXZ
000000000005e740	wxbase33u:basemsw.obj	?IsYielding@wxEventLoopBase@@UEBA_NXZ
000000000005e750	wxbase33u:basemsw.obj	?Notify@wxTimerImpl@@UEAAXXZ
000000000005e760	wxbase33u:basemsw.obj	?WaitForThread@wxConsoleAppTraits@@UEAAKPEAXH@Z
000000000005e770	wxbase33u:basemsw.obj	?WriteToStderr@wxConsoleAppTraits@@UEAA_NAEBVwxString@@@Z
000000000005ea10	wxbase33u:evtloopcmn.obj	??$OnScopeExit@V?$VariableSetterImpl@HH@wxPrivate@@@wxPrivate@@YAXAEAV?$VariableSetterImpl@HH@0@@Z
000000000005ea10	wxbase33u:evtloopcmn.obj	??$OnScopeExit@V?$VariableSetterImpl@JJ@wxPrivate@@@wxPrivate@@YAXAEAV?$VariableSetterImpl@JJ@0@@Z
000000000005ea20	wxbase33u:evtloopcmn.obj	??$OnScopeExit@V?$VariableSetterImpl@_N_N@wxPrivate@@@wxPrivate@@YAXAEAV?$VariableSetterImpl@_N_N@0@@Z
000000000005ea30	wxbase33u:evtloopcmn.obj	??0wxEventLoopManual@@QEAA@XZ
000000000005ea60	wxbase33u:evtloopcmn.obj	??1?$VariableSetterImpl@HH@wxPrivate@@QEAA@XZ
000000000005ea60	wxbase33u:evtloopcmn.obj	??1?$VariableSetterImpl@JJ@wxPrivate@@QEAA@XZ
000000000005ea70	wxbase33u:evtloopcmn.obj	??1?$VariableSetterImpl@_N_N@wxPrivate@@QEAA@XZ
000000000005ea80	wxbase33u:evtloopcmn.obj	??1wxEventLoopActivator@@QEAA@XZ
000000000005eab0	wxbase33u:evtloopcmn.obj	??1wxEventLoopBase@@UEAA@XZ
000000000005ead0	wxbase33u:evtloopcmn.obj	??_EwxEventLoopBase@@UEAAPEAXI@Z
000000000005ead0	wxbase33u:evtloopcmn.obj	??_GwxEventLoopBase@@UEAAPEAXI@Z
000000000005eb10	wxbase33u:evtloopcmn.obj	??_EwxEventLoopManual@@UEAAPEAXI@Z
000000000005eb10	wxbase33u:evtloopcmn.obj	??_GwxEventLoopManual@@UEAAPEAXI@Z
000000000005eb50	wxbase33u:evtloopcmn.obj	?DoRun@wxEventLoopManual@@MEAAHXZ
000000000005ec70	wxbase33u:evtloopcmn.obj	?DoYieldFor@wxEventLoopBase@@MEAAXJ@Z
000000000005ecb0	wxbase33u:evtloopcmn.obj	?Exit@wxEventLoopBase@@UEAAXH@Z
000000000005ed20	wxbase33u:evtloopcmn.obj	?OnExit@wxEventLoopBase@@MEAAXXZ
000000000005ed40	wxbase33u:evtloopcmn.obj	?ProcessIdle@wxEventLoopBase@@UEAA_NXZ
000000000005ed70	wxbase33u:evtloopcmn.obj	?Resume@wxLog@@SAXXZ
000000000005ed80	wxbase33u:evtloopcmn.obj	?Run@wxEventLoopBase@@UEAAHXZ
000000000005ee90	wxbase33u:evtloopcmn.obj	?ScheduleExit@wxEventLoopManual@@UEAAXH@Z
000000000005ef10	wxbase33u:evtloopcmn.obj	?Yield@wxEventLoopBase@@QEAA_N_N@Z
000000000005ef50	wxbase33u:evtloopcmn.obj	?YieldFor@wxEventLoopBase@@UEAA_NJ@Z
000000000005f020	wxbase33u:filename.obj	??$WX_PREPEND_ARRAY@VwxArrayString@@V1@@@YAXAEAVwxArrayString@@AEBV0@@Z
000000000005f200	wxbase33u:filename.obj	??0wxArrayString@@QEAA@AEBV0@@Z
000000000005f2e0	wxbase33u:filename.obj	??0wxFileName@@QEAA@AEBVwxString@@W4wxPathFormat@@@Z
000000000005f370	wxbase33u:filename.obj	??0wxFileName@@QEAA@XZ
000000000005f4e0	wxbase33u:filename.obj	??1?$wxCOMPtr@UIPersistFile@@@@QEAA@XZ
000000000005f4e0	wxbase33u:filename.obj	??1?$wxCOMPtr@UIShellLinkW@@@@QEAA@XZ
000000000005f500	wxbase33u:filename.obj	??1wxOleInitializer@@QEAA@XZ
000000000005f510	wxbase33u:filename.obj	??4wxString@@QEAAAEAV0@VwxUniChar@@@Z
000000000005f5b0	wxbase33u:filename.obj	?Assign@wxFileName@@QEAAXAEBV1@@Z
000000000005f710	wxbase33u:filename.obj	?Assign@wxFileName@@QEAAXAEBVwxString@@0W4wxPathFormat@@@Z
000000000005fd20	wxbase33u:filename.obj	?Assign@wxFileName@@QEAAXAEBVwxString@@W4wxPathFormat@@@Z
000000000005fff0	wxbase33u:filename.obj	?AssignDir@wxFileName@@QEAAXAEBVwxString@@W4wxPathFormat@@@Z
00000000000600e0	wxbase33u:filename.obj	?CheckIfDirExists@?A0x5494b9e8@@YA?AVwxString@@AEBV2@@Z
0000000000060210	wxbase33u:filename.obj	?Clear@wxFileName@@QEAAXXZ
00000000000602c0	wxbase33u:filename.obj	?CreateTempFileName@wxFileName@@SA?AVwxString@@AEBV2@PEAVwxFile@@@Z
00000000000602f0	wxbase33u:filename.obj	?DirExists@wxFileName@@SA_NAEBVwxString@@@Z
0000000000060300	wxbase33u:filename.obj	?DirName@wxFileName@@SA?AV1@AEBVwxString@@W4wxPathFormat@@@Z
0000000000060360	wxbase33u:filename.obj	?DoSetPath@wxFileName@@AEAAXAEBVwxString@@W4wxPathFormat@@H@Z
00000000000609a0	wxbase33u:filename.obj	?FileExists@wxFileName@@QEBA_NXZ
0000000000060a10	wxbase33u:filename.obj	?FileExists@wxFileName@@SA_NAEBVwxString@@@Z
0000000000060a20	wxbase33u:filename.obj	?GetCwd@wxFileName@@SA?AVwxString@@AEBV2@@Z
0000000000060c00	wxbase33u:filename.obj	?GetFullName@wxFileName@@QEBA?AVwxString@@XZ
0000000000060c80	wxbase33u:filename.obj	?GetFullPath@wxFileName@@QEBA?AVwxString@@W4wxPathFormat@@@Z
0000000000060d70	wxbase33u:filename.obj	?GetHomeDir@wxFileName@@SA?AVwxString@@XZ
0000000000060d90	wxbase33u:filename.obj	?GetLongPath@wxFileName@@QEBA?AVwxString@@XZ
00000000000616d0	wxbase33u:filename.obj	?GetPath@wxFileName@@QEBA?AVwxString@@HW4wxPathFormat@@@Z
0000000000062070	wxbase33u:filename.obj	?GetPathSeparators@wxFileName@@SA?AVwxString@@W4wxPathFormat@@@Z
0000000000062170	wxbase33u:filename.obj	?GetPathTerminators@wxFileName@@SA?AVwxString@@W4wxPathFormat@@@Z
00000000000622a0	wxbase33u:filename.obj	?GetShortcutTarget@wxFileName@@QEBA_NAEBVwxString@@AEAV2@PEAV2@@Z
0000000000062980	wxbase33u:filename.obj	?GetTempDir@wxFileName@@SA?AVwxString@@XZ
0000000000063110	wxbase33u:filename.obj	?GetVolumeSeparator@wxFileName@@SA?AVwxString@@W4wxPathFormat@@@Z
0000000000063170	wxbase33u:filename.obj	?IsAbsolute@wxFileName@@QEBA_NW4wxPathFormat@@@Z
00000000000632d0	wxbase33u:filename.obj	?IsPathSeparator@wxFileName@@SA_N_WW4wxPathFormat@@@Z
0000000000063360	wxbase33u:filename.obj	?IsVolumeGUIDPath@?A0x5494b9e8@@YA_NAEBVwxString@@@Z
0000000000063460	wxbase33u:filename.obj	?Normalize@wxFileName@@QEAA_NHAEBVwxString@@W4wxPathFormat@@@Z
0000000000063d60	wxbase33u:filename.obj	?RemoveAt@?$wxBaseArray@VwxString@@V?$wxSortedArray_SortFunction@VwxString@@@@@@QEAAX_K0@Z
0000000000063e20	wxbase33u:filename.obj	?RemoveDir@wxFileName@@QEAAX_K@Z
0000000000063e30	wxbase33u:filename.obj	?SplitPath@wxFileName@@SAXAEBVwxString@@PEAV2@111PEA_NW4wxPathFormat@@@Z
00000000000642e0	wxbase33u:filename.obj	?SplitPath@wxFileName@@SAXAEBVwxString@@PEAV2@11W4wxPathFormat@@@Z
0000000000064440	wxbase33u:filename.obj	?SplitVolume@wxFileName@@SAXAEBVwxString@@PEAV2@1W4wxPathFormat@@@Z
000000000006493c	wxbase33u:filename.obj	$LN482
0000000000064960	wxbase33u:filename.obj	?erase@wxString@@QEAAAEAV1@_K0@Z
00000000000649d0	wxbase33u:filename.obj	?find_first_of@wxString@@QEBA_KAEBV1@_K@Z
0000000000064b40	wxbase33u:filename.obj	?wxCreateTempImpl@@YA?AVwxString@@AEBV1@PEAVwxFile@@PEAVwxFFile@@PEA_N@Z
0000000000065e80	wxbase33u:filename.obj	?wxFileSystemObjectExists@?A0x5494b9e8@@YA_NAEBVwxString@@H@Z
0000000000065fa0	wxbase33u:filename.obj	?wxGetVolumeString@?A0x5494b9e8@@YA?AVwxString@@AEBV2@W4wxPathFormat@@@Z
0000000000066200	wxbase33u:filename.obj	?wxOleInitialize@@YA_NXZ
00000000000667b0	wxbase33u:filename.obj	?wxTempOpen@@YAHAEBVwxString@@PEA_N@Z
0000000000066850	wxbase33u:sysopt.obj	?GetOption@wxSystemOptions@@SA?AVwxString@@AEBV2@@Z
0000000000066bc0	wxbase33u:sysopt.obj	?GetOptionInt@wxSystemOptions@@SAHAEBVwxString@@@Z
0000000000066c30	wxbase33u:sysopt.obj	?wxGetenv@@YAPEADAEBVwxString@@@Z
0000000000066d90	wxbase33u:tokenzr.obj	??0wxStringTokenizer@@QEAA@AEBVwxString@@0W4wxStringTokenizerMode@@@Z
0000000000066e40	wxbase33u:tokenzr.obj	??_EwxStringTokenizer@@UEAAPEAXI@Z
0000000000066e40	wxbase33u:tokenzr.obj	??_GwxStringTokenizer@@UEAAPEAXI@Z
0000000000066e80	wxbase33u:tokenzr.obj	?DoHasMoreTokens@wxStringTokenizer@@IEBA_NXZ
0000000000067030	wxbase33u:tokenzr.obj	?GetNextToken@wxStringTokenizer@@QEAA?AVwxString@@XZ
00000000000671f0	wxbase33u:tokenzr.obj	?HasMoreTokens@wxStringTokenizer@@QEBA_NXZ
0000000000067230	wxbase33u:tokenzr.obj	?SetString@wxStringTokenizer@@QEAAXAEBVwxString@@0W4wxStringTokenizerMode@@@Z
0000000000067490	wxbase33u:tokenzr.obj	?wxStringTokenize@@YA?AVwxArrayString@@AEBVwxString@@0W4wxStringTokenizerMode@@@Z
00000000000676c0	wxbase33u:fmapbase.obj	??0wxFontMapperBase@@QEAA@XZ
00000000000676f0	wxbase33u:fmapbase.obj	??0wxMemoryConfig@@QEAA@XZ
00000000000678b0	wxbase33u:fmapbase.obj	??1wxFontMapperPathChanger@@QEAA@XZ
0000000000067930	wxbase33u:fmapbase.obj	??_EwxFontMapperBase@@UEAAPEAXI@Z
0000000000067930	wxbase33u:fmapbase.obj	??_GwxFontMapperBase@@UEAAPEAXI@Z
00000000000679a0	wxbase33u:fmapbase.obj	??_EwxMemoryConfig@@UEAAPEAXI@Z
00000000000679a0	wxbase33u:fmapbase.obj	??_GwxMemoryConfig@@UEAAPEAXI@Z
00000000000679e0	wxbase33u:fmapbase.obj	?ChangePath@wxFontMapperBase@@IEAA_NAEBVwxString@@PEAV2@@Z
0000000000067b80	wxbase33u:fmapbase.obj	?CharsetToEncoding@wxFontMapperBase@@UEAA?AW4wxFontEncoding@@AEBVwxString@@_N@Z
0000000000067ba0	wxbase33u:fmapbase.obj	?Get@wxFontMapperBase@@SAPEAV1@XZ
0000000000067c70	wxbase33u:fmapbase.obj	?GetClassInfo@wxFontMapperModule@@UEBAPEAVwxClassInfo@@XZ
0000000000067c80	wxbase33u:fmapbase.obj	?GetEncodingName@wxFontMapperBase@@SA?AVwxString@@W4wxFontEncoding@@@Z
00000000000681d0	wxbase33u:fmapbase.obj	?NonInteractiveCharsetToEncoding@wxFontMapperBase@@IEAAHAEBVwxString@@@Z
0000000000068c10	wxbase33u:fmapbase.obj	?OnExit@wxFontMapperModule@@UEAAXXZ
0000000000068c40	wxbase33u:fmapbase.obj	?OnInit@wxFontMapperModule@@UEAA_NXZ
0000000000068d50	wxbase33u:fmapbase.obj	?wxCreateObject@wxFontMapperModule@@SAPEAVwxObject@@XZ
0000000000068d90	wxbase33u:fmapbase.obj	swscanf
0000000000068df0	wxbase33u:stackwalk.obj	??1wxStackFrame@@UEAA@XZ
0000000000068e80	wxbase33u:stackwalk.obj	??_EwxStackFrame@@UEAAPEAXI@Z
0000000000068e80	wxbase33u:stackwalk.obj	??_GwxStackFrame@@UEAAPEAXI@Z
0000000000068ec0	wxbase33u:stackwalk.obj	??_EwxStackFrameBase@@UEAAPEAXI@Z
0000000000068ec0	wxbase33u:stackwalk.obj	??_GwxStackFrameBase@@UEAAPEAXI@Z
0000000000068f40	wxbase33u:stackwalk.obj	?EnumSymbolsProc@@YAHPEAU_SYMBOL_INFOW@@KPEAX@Z
0000000000068f60	wxbase33u:stackwalk.obj	?GetParam@wxStackFrame@@UEBA_N_KPEAVwxString@@11@Z
0000000000069050	wxbase33u:stackwalk.obj	?GetParamCount@wxStackFrame@@UEBA_KXZ
0000000000069090	wxbase33u:stackwalk.obj	?OnGetLocation@wxStackFrame@@MEAAXXZ
00000000000690f0	wxbase33u:stackwalk.obj	?OnGetName@wxStackFrame@@MEAAXXZ
0000000000069160	wxbase33u:stackwalk.obj	?OnGetParam@wxStackFrame@@IEAAXXZ
0000000000069230	wxbase33u:stackwalk.obj	?OnParam@wxStackFrame@@QEAAXPEAU_SYMBOL_INFOW@@@Z
0000000000069550	wxbase33u:stackwalk.obj	?Walk@wxStackWalker@@UEAAX_K0@Z
00000000000695c0	wxbase33u:stackwalk.obj	?WalkFrom@wxStackWalker@@QEAAXPEBU_CONTEXT@@_K1@Z
000000000006a0e0	wxbase33u:stackwalk.obj	?WalkFromException@wxStackWalker@@UEAAX_K@Z
000000000006a150	wxbase33u:intl.obj	??$_Destroy_range@V?$allocator@UwxLanguageInfo@@@std@@@std@@YAXPEAUwxLanguageInfo@@QEAU1@AEAV?$allocator@UwxLanguageInfo@@@0@@Z
000000000006a200	wxbase33u:intl.obj	?GetClassInfo@wxLocaleModule@@UEBAPEAVwxClassInfo@@XZ
000000000006a210	wxbase33u:intl.obj	?GetSystemEncoding@wxLocale@@SA?AW4wxFontEncoding@@XZ
000000000006a2d0	wxbase33u:intl.obj	$LN23
000000000006a2f0	wxbase33u:intl.obj	?OnExit@wxLocaleModule@@UEAAXXZ
000000000006a340	wxbase33u:intl.obj	?wxCreateObject@wxLocaleModule@@SAPEAVwxObject@@XZ
000000000006a380	wxbase33u:intl.obj	?wxGetStdCLocaleInfo@@YA?AVwxString@@W4wxLocaleInfo@@W4wxLocaleCategory@@@Z
000000000006a4ac	wxbase33u:intl.obj	$LN52
000000000006a4d0	wxbase33u:encconv.obj	??0wxEncodingConverter@@QEAA@XZ
000000000006a4f0	wxbase33u:encconv.obj	?Convert@wxEncodingConverter@@QEBA_NPEBDPEA_W@Z
000000000006a6a0	wxbase33u:encconv.obj	?Convert@wxEncodingConverter@@QEBA_NPEB_WPEAD@Z
000000000006a850	wxbase33u:encconv.obj	?GetEncTable@@YAPEBGW4wxFontEncoding@@@Z
000000000006a890	wxbase33u:encconv.obj	?Init@wxEncodingConverter@@QEAA_NW4wxFontEncoding@@0H@Z
000000000006abe0	wxbase33u:encconv.obj	CompareCharsetItems
000000000006abf0	wxbase33u:textbuf.obj	??0wxTextBuffer@@IEAA@AEBVwxString@@@Z
000000000006ac40	wxbase33u:textbuf.obj	??1wxTextBuffer@@UEAA@XZ
000000000006acd0	wxbase33u:textbuf.obj	??_EwxTextBuffer@@UEAAPEAXI@Z
000000000006acd0	wxbase33u:textbuf.obj	??_GwxTextBuffer@@UEAAPEAXI@Z
000000000006ad80	wxbase33u:textbuf.obj	?GetEOL@wxTextBuffer@@SAPEB_WW4wxTextFileType@@@Z
000000000006ae10	wxbase33u:textbuf.obj	?Open@wxTextBuffer@@QEAA_NAEBVwxMBConv@@@Z
000000000006aeb0	wxbase33u:arrstr.obj	?Index@wxArrayString@@QEBAHAEBVwxString@@_N1@Z
000000000006afc0	wxbase33u:datetime.obj	??0TimeZone@wxDateTime@@QEAA@W4TZ@1@@Z
000000000006b070	wxbase33u:datetime.obj	$LN39
000000000006b07c	wxbase33u:datetime.obj	$LN38
000000000006b0a0	wxbase33u:datetime.obj	??0Tm@wxDateTime@@QEAA@XZ
000000000006b0d0	wxbase33u:datetime.obj	??MwxDateTime@@QEBA_NAEBV0@@Z
000000000006b1b0	wxbase33u:datetime.obj	??OwxDateTime@@QEBA_NAEBV0@@Z
000000000006b290	wxbase33u:datetime.obj	??_EwxDateTimeHolidayAuthority@@UEAAPEAXI@Z
000000000006b290	wxbase33u:datetime.obj	??_EwxDateTimeWorkDays@@UEAAPEAXI@Z
000000000006b290	wxbase33u:datetime.obj	??_GwxDateTimeHolidayAuthority@@UEAAPEAXI@Z
000000000006b290	wxbase33u:datetime.obj	??_GwxDateTimeWorkDays@@UEAAPEAXI@Z
000000000006b2c0	wxbase33u:datetime.obj	?Add@wxDateTime@@QEAAAEAV1@AEBVwxDateSpan@@@Z
000000000006b430	wxbase33u:datetime.obj	?Add@wxDateTime@@QEAAAEAV1@AEBVwxTimeSpan@@@Z
000000000006b4b0	wxbase33u:datetime.obj	?AddDays@Tm@wxDateTime@@QEAAXH@Z
000000000006b630	wxbase33u:datetime.obj	?AddMonths@Tm@wxDateTime@@QEAAXH@Z
000000000006b6e0	wxbase33u:datetime.obj	?ComputeWeekDay@Tm@wxDateTime@@AEAAXXZ
000000000006b730	wxbase33u:datetime.obj	?DoGetHolidaysInRange@wxDateTimeWorkDays@@MEBA_KAEBVwxDateTime@@0AEAVwxDateTimeArray@@@Z
000000000006ba20	wxbase33u:datetime.obj	?DoIsHoliday@wxDateTimeWorkDays@@MEBA_NAEBVwxDateTime@@@Z
000000000006baa0	wxbase33u:datetime.obj	?Empty@?$wxBaseObjectArray@VwxDateTime@@VwxObjectArrayTraitsForwxDateTimeArray@@@@QEAAXXZ
000000000006bb10	wxbase33u:datetime.obj	?GetAmPmStrings@wxDateTime@@SAXPEAVwxString@@0@Z
000000000006bf30	wxbase33u:datetime.obj	?GetBeginDST@wxDateTime@@SA?AV1@HW4Country@1@@Z
000000000006c2f4	wxbase33u:datetime.obj	$LN224
000000000006c308	wxbase33u:datetime.obj	$LN223
000000000006c350	wxbase33u:datetime.obj	?GetClassInfo@wxDateTimeHolidaysModule@@UEBAPEAVwxClassInfo@@XZ
000000000006c360	wxbase33u:datetime.obj	?GetCountry@wxDateTime@@SA?AW4Country@1@XZ
000000000006c560	wxbase33u:datetime.obj	?GetCurrentMonth@wxDateTime@@SA?AW4Month@1@W4Calendar@1@@Z
000000000006c670	wxbase33u:datetime.obj	?GetCurrentYear@wxDateTime@@SAHW4Calendar@1@@Z
000000000006c780	wxbase33u:datetime.obj	?GetDayOfYear@wxDateTime@@QEBAGAEBVTimeZone@1@@Z
000000000006c7d0	wxbase33u:datetime.obj	?GetEndDST@wxDateTime@@SA?AV1@HW4Country@1@@Z
000000000006cb50	wxbase33u:datetime.obj	?GetEnglishMonthName@wxDateTime@@SA?AVwxString@@W4Month@1@W4NameFlags@1@@Z
000000000006cc60	wxbase33u:datetime.obj	?GetEnglishWeekDayName@wxDateTime@@SA?AVwxString@@W4WeekDay@1@W4NameFlags@1@@Z
000000000006cd70	wxbase33u:datetime.obj	?GetFirstWeekDay@wxDateTime@@SA_NPEAW4WeekDay@1@@Z
000000000006cfe0	wxbase33u:datetime.obj	?GetMonthName@wxDateTime@@SA?AVwxString@@W4Month@1@W4NameFlags@1@@Z
000000000006d1b0	wxbase33u:datetime.obj	?GetNextWeekDay@wxDateTime@@QEBA?AV1@W4WeekDay@1@@Z
000000000006d2f0	wxbase33u:datetime.obj	?GetNumberOfDays@wxDateTime@@SAGHW4Calendar@1@@Z
000000000006d3f0	wxbase33u:datetime.obj	?GetNumberOfDays@wxDateTime@@SAGW4Month@1@HW4Calendar@1@@Z
000000000006d520	wxbase33u:datetime.obj	?GetOffset@TimeZone@wxDateTime@@QEBAJXZ
000000000006d540	wxbase33u:datetime.obj	?GetPrevWeekDay@wxDateTime@@QEBA?AV1@W4WeekDay@1@@Z
000000000006d680	wxbase33u:datetime.obj	?GetTicks@wxDateTime@@QEBA_JXZ
000000000006d780	wxbase33u:datetime.obj	?GetTm@wxDateTime@@QEBA?AUTm@1@AEBVTimeZone@1@@Z
000000000006de40	wxbase33u:datetime.obj	?GetTmNow@wxDateTime@@SAPEAUtm@@PEAU2@@Z
000000000006de70	wxbase33u:datetime.obj	?GetTruncatedJDN@@YAJGW4Month@wxDateTime@@H@Z
000000000006df90	wxbase33u:datetime.obj	?GetWeekBasedYear@wxDateTime@@QEBAHAEBVTimeZone@1@@Z
000000000006e020	wxbase33u:datetime.obj	?GetWeekDayName@wxDateTime@@SA?AVwxString@@W4WeekDay@1@W4NameFlags@1@@Z
000000000006e200	wxbase33u:datetime.obj	?GetWeekOfYear@wxDateTime@@QEBAGW4WeekFlags@1@AEBVTimeZone@1@@Z
000000000006e4c0	wxbase33u:datetime.obj	?IsDST@wxDateTime@@QEBAHW4Country@1@@Z
000000000006e800	wxbase33u:datetime.obj	?IsDSTApplicable@wxDateTime@@SA_NHW4Country@1@@Z
000000000006e8f0	wxbase33u:datetime.obj	?IsLeapYear@wxDateTime@@SA_NHW4Calendar@1@@Z
000000000006ea50	wxbase33u:datetime.obj	?IsValid@Tm@wxDateTime@@QEBA_NXZ
000000000006eb30	wxbase33u:datetime.obj	?IsWestEuropeanCountry@wxDateTime@@SA_NW4Country@1@@Z
000000000006eb50	wxbase33u:datetime.obj	?MakeFromTimezone@wxDateTime@@QEAAAEAV1@AEBVTimeZone@1@_N@Z
000000000006ec30	wxbase33u:datetime.obj	?NameArrayIndexFromFlag@?A0xccfa8c89@@YAHW4NameFlags@wxDateTime@@@Z
000000000006eca0	wxbase33u:datetime.obj	?OnExit@wxDateTimeHolidaysModule@@UEAAXXZ
000000000006ed30	wxbase33u:datetime.obj	?OnInit@wxDateTimeHolidaysModule@@UEAA_NXZ
000000000006ed90	wxbase33u:datetime.obj	?ReplaceDefaultYearMonthWithCurrent@@YAXPEAHPEAW4Month@wxDateTime@@@Z
000000000006ee30	wxbase33u:datetime.obj	?ResetTime@wxDateTime@@QEAAAEAV1@XZ
000000000006ee90	wxbase33u:datetime.obj	?Set@wxDateTime@@QEAAAEAV1@AEBUTm@1@@Z
000000000006eff0	wxbase33u:datetime.obj	?Set@wxDateTime@@QEAAAEAV1@AEBUtm@@@Z
000000000006f160	wxbase33u:datetime.obj	?Set@wxDateTime@@QEAAAEAV1@GGGG@Z
000000000006f300	wxbase33u:datetime.obj	?Set@wxDateTime@@QEAAAEAV1@GW4Month@1@HGGGG@Z
000000000006f520	wxbase33u:datetime.obj	?SetMillisecond@wxDateTime@@QEAAAEAV1@G@Z
000000000006f5d0	wxbase33u:datetime.obj	?SetToWeekDay@wxDateTime@@QEAA_NW4WeekDay@1@HW4Month@1@H@Z
000000000006f8f0	wxbase33u:datetime.obj	?SetToWeekDayInSameWeek@wxDateTime@@QEAAAEAV1@W4WeekDay@1@W4WeekFlags@1@@Z
000000000006fa50	wxbase33u:datetime.obj	?SetToYearDay@wxDateTime@@QEAAAEAV1@G@Z
000000000006fca0	wxbase33u:datetime.obj	?wxCallStrftime@@YA?AVwxString@@AEBV1@PEBUtm@@@Z
000000000006fdc0	wxbase33u:datetime.obj	?wxCreateObject@wxDateTimeHolidaysModule@@SAPEAVwxObject@@XZ
000000000006fe00	wxbase33u:datetime.obj	?wxInitTm@@YAXAEAUtm@@@Z
000000000006fe30	wxbase33u:datetime.obj	?wxNextMonth@@YAXAEAW4Month@wxDateTime@@@Z
000000000006fea0	wxbase33u:datetime.obj	?wxNextWDay@@YAXAEAW4WeekDay@wxDateTime@@@Z
000000000006ff10	wxbase33u:datetime.obj	?wxTryGetTm@@YAPEBUtm@@AEAU1@_JAEBVTimeZone@wxDateTime@@@Z
000000000006ff60	wxbase33u:datetimefmt.obj	??$Format@G@wxString@@SA?AV0@AEBVwxFormatString@@G@Z
0000000000070010	wxbase33u:datetimefmt.obj	?Format@wxDateTime@@QEBA?AVwxString@@AEBV2@AEBVTimeZone@1@@Z
0000000000072184	wxbase33u:datetimefmt.obj	$LN2607
0000000000072194	wxbase33u:datetimefmt.obj	$LN2606
00000000000721c8	wxbase33u:datetimefmt.obj	$LN2605
000000000007222c	wxbase33u:datetimefmt.obj	$LN2604
00000000000722b0	wxbase33u:datetimefmt.obj	?GetAlphaToken@?A0x0fa96387@@YA?AVwxString@@AEAVconst_iterator@2@AEBV32@@Z
0000000000072340	wxbase33u:datetimefmt.obj	?GetNumericToken@?A0x0fa96387@@YA_N_KAEAVconst_iterator@wxString@@AEBV23@PEAKPEA_K@Z
0000000000072490	wxbase33u:datetimefmt.obj	?ParseDate@wxDateTime@@QEAA_NAEBVwxString@@PEAVconst_iterator@2@@Z
00000000000737a0	wxbase33u:datetimefmt.obj	?ParseDateTime@wxDateTime@@QEAA_NAEBVwxString@@PEAVconst_iterator@2@@Z
0000000000073d30	wxbase33u:datetimefmt.obj	?ParseFormat@wxDateTime@@QEAA_NAEBVwxString@@0AEBV1@PEAVconst_iterator@2@@Z
00000000000760f8	wxbase33u:datetimefmt.obj	$LN2549
000000000007615c	wxbase33u:datetimefmt.obj	$LN2548
00000000000761e0	wxbase33u:datetimefmt.obj	?ParseFormatAt@?A0x0fa96387@@YA?AVwxDateTime@@AEAVconst_iterator@wxString@@AEBV34@AEBV4@2@Z
00000000000763e0	wxbase33u:datetimefmt.obj	?ParseRFC822TimeZone@wxDateTime@@AEAA_NPEAVconst_iterator@wxString@@AEBV23@@Z
0000000000076840	wxbase33u:datetimefmt.obj	?ParseTime@wxDateTime@@QEAA_NAEBVwxString@@PEAVconst_iterator@2@@Z
0000000000076fc0	wxbase33u:datetimefmt.obj	?ToLong@wxLongLongNative@@QEBAJXZ
0000000000077030	wxbase33u:utilscmn.obj	??_EwxProcess@@UEAAPEAXI@Z
0000000000077030	wxbase33u:utilscmn.obj	??_GwxProcess@@UEAAPEAXI@Z
0000000000077070	wxbase33u:utilscmn.obj	?wxGetHomeDir@@YA?AVwxString@@XZ
00000000000770c0	wxbase33u:utilscmn.obj	?wxGetUserId@@YA?AVwxString@@XZ
00000000000771e0	wxbase33u:process.obj	??1wxProcess@@UEAA@XZ
0000000000077250	wxbase33u:process.obj	?Clone@wxProcessEvent@@UEBAPEAVwxEvent@@XZ
00000000000772a0	wxbase33u:process.obj	?GetClassInfo@wxProcess@@UEBAPEAVwxClassInfo@@XZ
00000000000772b0	wxbase33u:process.obj	?GetClassInfo@wxProcessEvent@@UEBAPEAVwxClassInfo@@XZ
00000000000772c0	wxbase33u:process.obj	?OnTerminate@wxProcess@@UEAAXHH@Z
0000000000077360	wxbase33u:process.obj	?SetPipeStreams@wxProcess@@QEAAXPEAVwxInputStream@@PEAVwxOutputStream@@0@Z
0000000000077380	wxbase33u:process.obj	?wxCreateObject@wxProcess@@SAPEAVwxObject@@XZ
00000000000773f0	wxbase33u:process.obj	?wxCreateObject@wxProcessEvent@@SAPEAVwxObject@@XZ
0000000000077440	wxbase33u:dde.obj	??$_Try_emplace@AEBVwxString@@$$V@?$_Hash@V?$_Umap_traits@VwxString@@PEAUHSZ__@@V?$_Uhash_compare@VwxString@@UwxStringHash@@UwxStringEqual@@@std@@V?$allocator@U?$pair@$$CBVwxString@@PEAUHSZ__@@@std@@@4@$0A@@std@@@std@@IEAA?AU?$pair@PEAU?$_List_node@U?$pair@$$CBVwxString@@PEAUHSZ__@@@std@@PEAX@std@@_N@1@AEBVwxString@@@Z
00000000000776d0	wxbase33u:dde.obj	??0wxDDEClient@@QEAA@XZ
00000000000777a0	wxbase33u:dde.obj	??1wxDDEClient@@UEAA@XZ
00000000000778a0	wxbase33u:dde.obj	??1wxDDEConnectionList@@QEAA@XZ
0000000000077960	wxbase33u:dde.obj	??1wxDDEServer@@UEAA@XZ
0000000000077da0	wxbase33u:dde.obj	??_EwxDDEClient@@UEAAPEAXI@Z
0000000000077da0	wxbase33u:dde.obj	??_GwxDDEClient@@UEAAPEAXI@Z
0000000000077ec0	wxbase33u:dde.obj	??_EwxDDEConnection@@UEAAPEAXI@Z
0000000000077ec0	wxbase33u:dde.obj	??_GwxDDEConnection@@UEAAPEAXI@Z
0000000000077fc0	wxbase33u:dde.obj	??_EwxDDEServer@@UEAAPEAXI@Z
0000000000077fc0	wxbase33u:dde.obj	??_GwxDDEServer@@UEAAPEAXI@Z
0000000000078000	wxbase33u:dde.obj	?Append@wxDDEConnectionList@@QEAA?AVcompatibility_iterator@1@PEAVwxDDEConnection@@@Z
00000000000780a0	wxbase33u:dde.obj	?ConvertToUTF8@@YA?AVwxCharBuffer@@AEBVwxMBConv@@PEBX_K@Z
0000000000078160	wxbase33u:dde.obj	?Create@wxDDEServer@@UEAA_NAEBVwxString@@@Z
0000000000078490	wxbase33u:dde.obj	?DDEAtomFromString@@YAPEAUHSZ__@@AEBVwxString@@@Z
00000000000786b0	wxbase33u:dde.obj	?DDEDeleteConnection@@YAXPEAUHCONV__@@@Z
00000000000788f0	wxbase33u:dde.obj	?DDEFindConnection@@YAPEAVwxDDEConnection@@PEAUHCONV__@@@Z
0000000000078a70	wxbase33u:dde.obj	?DDEFreeString@@YAXPEAUHSZ__@@@Z
0000000000078ae0	wxbase33u:dde.obj	?DDEGetAtom@@YAPEAUHSZ__@@AEBVwxString@@@Z
0000000000078bd0	wxbase33u:dde.obj	?DDEGetErrorMsg@@YA?AVwxString@@I@Z
000000000007a5ac	wxbase33u:dde.obj	$LN2114
000000000007a5f0	wxbase33u:dde.obj	?DDELogError@@YAXAEBVwxString@@I@Z
000000000007a960	wxbase33u:dde.obj	?DDEStringFromAtom@@YA?AVwxString@@PEAUHSZ__@@@Z
000000000007ab70	wxbase33u:dde.obj	?DeleteObject@wxDDEConnectionList@@QEAA_NPEAVwxDDEConnection@@@Z
000000000007abf0	wxbase33u:dde.obj	?Disconnect@wxDDEConnection@@UEAA_NXZ
000000000007ac90	wxbase33u:dde.obj	?DoAdvise@wxDDEConnection@@MEAA_NAEBVwxString@@PEBX_KW4wxIPCFormat@@@Z
000000000007b0e8	wxbase33u:dde.obj	$LN335
000000000007b0f8	wxbase33u:dde.obj	$LN334
000000000007b110	wxbase33u:dde.obj	?DoExecute@wxDDEConnection@@MEAA_NPEBX_KW4wxIPCFormat@@@Z
000000000007b400	wxbase33u:dde.obj	?DoPoke@wxDDEConnection@@MEAA_NAEBVwxString@@PEBX_KW4wxIPCFormat@@@Z
000000000007b5f0	wxbase33u:dde.obj	?GetClassInfo@wxDDEClient@@UEBAPEAVwxClassInfo@@XZ
000000000007b600	wxbase33u:dde.obj	?GetClassInfo@wxDDEConnection@@UEBAPEAVwxClassInfo@@XZ
000000000007b610	wxbase33u:dde.obj	?GetClassInfo@wxDDEModule@@UEBAPEAVwxClassInfo@@XZ
000000000007b620	wxbase33u:dde.obj	?GetClassInfo@wxDDEServer@@UEBAPEAVwxClassInfo@@XZ
000000000007b630	wxbase33u:dde.obj	?MakeConnection@wxDDEClient@@UEAAPEAVwxConnectionBase@@AEBVwxString@@00@Z
000000000007ba60	wxbase33u:dde.obj	?OnAcceptConnection@wxDDEServer@@UEAAPEAVwxConnectionBase@@AEBVwxString@@@Z
000000000007bad0	wxbase33u:dde.obj	?OnDisconnect@wxConnectionBase@@UEAA_NXZ
000000000007baf0	wxbase33u:dde.obj	?OnExec@wxConnectionBase@@UEAA_NAEBVwxString@@0@Z
000000000007bb50	wxbase33u:dde.obj	?OnExecute@wxConnectionBase@@UEAA_NAEBVwxString@@PEBX_KW4wxIPCFormat@@@Z
000000000007bbd0	wxbase33u:dde.obj	?OnExit@wxDDEModule@@UEAAXXZ
000000000007bc60	wxbase33u:dde.obj	?OnMakeConnection@wxDDEClient@@UEAAPEAVwxConnectionBase@@XZ
000000000007bcd0	wxbase33u:dde.obj	?OnRequest@wxConnectionBase@@UEAAPEBXAEBVwxString@@0PEA_KW4wxIPCFormat@@@Z
000000000007bce0	wxbase33u:dde.obj	?Request@wxDDEConnection@@UEAAPEBXAEBVwxString@@PEA_KW4wxIPCFormat@@@Z
000000000007be40	wxbase33u:dde.obj	?StartAdvise@wxDDEConnection@@UEAA_NAEBVwxString@@@Z
000000000007c030	wxbase33u:dde.obj	?StopAdvise@wxDDEConnection@@UEAA_NAEBVwxString@@@Z
000000000007c220	wxbase33u:dde.obj	?_Forced_rehash@?$_Hash@V?$_Umap_traits@VwxString@@PEAUHSZ__@@V?$_Uhash_compare@VwxString@@UwxStringHash@@UwxStringEqual@@@std@@V?$allocator@U?$pair@$$CBVwxString@@PEAUHSZ__@@@std@@@4@$0A@@std@@@std@@IEAAX_K@Z
000000000007c400	wxbase33u:dde.obj	?_Unchecked_erase@?$_Hash@V?$_Umap_traits@VwxString@@PEAUHSZ__@@V?$_Uhash_compare@VwxString@@UwxStringHash@@UwxStringEqual@@@std@@V?$allocator@U?$pair@$$CBVwxString@@PEAUHSZ__@@@std@@@4@$0A@@std@@@std@@AEAAPEAU?$_List_node@U?$pair@$$CBVwxString@@PEAUHSZ__@@@std@@PEAX@2@PEAU32@QEAU32@@Z
000000000007c5c0	wxbase33u:dde.obj	?clear@?$_Hash@V?$_Umap_traits@VwxString@@PEAUHSZ__@@V?$_Uhash_compare@VwxString@@UwxStringHash@@UwxStringEqual@@@std@@V?$allocator@U?$pair@$$CBVwxString@@PEAUHSZ__@@@std@@@4@$0A@@std@@@std@@QEAAXXZ
000000000007c6a0	wxbase33u:dde.obj	?wxCreateObject@wxDDEClient@@SAPEAVwxObject@@XZ
000000000007c770	wxbase33u:dde.obj	?wxCreateObject@wxDDEConnection@@SAPEAVwxObject@@XZ
000000000007c7e0	wxbase33u:dde.obj	?wxCreateObject@wxDDEModule@@SAPEAVwxObject@@XZ
000000000007c820	wxbase33u:dde.obj	?wxCreateObject@wxDDEServer@@SAPEAVwxObject@@XZ
000000000007c910	wxbase33u:dde.obj	?wxDDEInitialize@@YAXXZ
000000000007c9c0	wxbase33u:dde.obj	_DDECallback
000000000007d320	wxbase33u:filefn.obj	?AddEnvList@wxPathList@@QEAAXAEBVwxString@@@Z
000000000007d550	wxbase33u:filefn.obj	?FindAbsoluteValidPath@wxPathList@@QEBA?AVwxString@@AEBV2@@Z
000000000007d720	wxbase33u:filefn.obj	?FindValidPath@wxPathList@@QEBA?AVwxString@@AEBV2@@Z
000000000007e270	wxbase33u:filefn.obj	?wxCopyFile@@YA_NAEBVwxString@@0_N@Z
000000000007ec30	wxbase33u:filefn.obj	?wxDirExists@@YA_NAEBVwxString@@@Z
000000000007ec40	wxbase33u:filefn.obj	?wxDoGetCwd@@YAPEA_WPEA_WH@Z
000000000007f450	wxbase33u:filefn.obj	?wxEndsWithPathSeparator@@YA_NAEBVwxString@@@Z
000000000007f480	wxbase33u:filefn.obj	?wxFileExists@@YA_NAEBVwxString@@@Z
000000000007f490	wxbase33u:filefn.obj	?wxGetCwd@@YA?AVwxString@@XZ
000000000007f660	wxbase33u:filefn.obj	?wxIsAbsolutePath@@YA_NAEBVwxString@@@Z
000000000007f6f0	wxbase33u:filefn.obj	?wxRemoveFile@@YA_NAEBVwxString@@@Z
0000000000080070	wxbase33u:filefn.obj	?wxRenameFile@@YA_NAEBVwxString@@0_N@Z
0000000000080f60	wxbase33u:filefn.obj	?wxSetWorkingDirectory@@YA_NAEBVwxString@@@Z
0000000000081760	wxbase33u:msw_uilocale.obj	??_EwxRefCounter@@MEAAPEAXI@Z
0000000000081760	wxbase33u:msw_uilocale.obj	??_EwxUILocaleImplStdC@@UEAAPEAXI@Z
0000000000081760	wxbase33u:msw_uilocale.obj	??_GwxRefCounter@@MEAAPEAXI@Z
0000000000081760	wxbase33u:msw_uilocale.obj	??_GwxUILocaleImplStdC@@UEAAPEAXI@Z
0000000000081790	wxbase33u:msw_uilocale.obj	?CompareStrings@wxUILocaleImplStdC@@UEBAHAEBVwxString@@0H@Z
00000000000817d0	wxbase33u:msw_uilocale.obj	?CreateStdC@wxUILocaleImpl@@SAPEAV1@XZ
0000000000081800	wxbase33u:msw_uilocale.obj	?GetInfo@wxUILocaleImplStdC@@UEBA?AVwxString@@W4wxLocaleInfo@@W4wxLocaleCategory@@@Z
0000000000081830	wxbase33u:msw_uilocale.obj	?GetLocaleId@wxUILocaleImplStdC@@UEBA?AVwxLocaleIdent@@XZ
0000000000081a20	wxbase33u:msw_uilocale.obj	?GetLocalizedName@wxUILocaleImplStdC@@UEBA?AVwxString@@W4wxLocaleName@@W4wxLocaleForm@@@Z
0000000000081bb0	wxbase33u:msw_uilocale.obj	?GetName@wxUILocaleImplStdC@@UEBA?AVwxString@@XZ
0000000000081be0	wxbase33u:hash.obj	??0wxHashTableBase@@QEAA@XZ
0000000000081c10	wxbase33u:hash.obj	??0wxHashTableBase_Node@@QEAA@AEBVwxString@@PEAXPEAVwxHashTableBase@@@Z
0000000000081d90	wxbase33u:hash.obj	??_GwxHashTableBase_Node@@QEAAPEAXI@Z
0000000000081ed0	wxbase33u:hash.obj	?Clear@wxHashTableBase@@QEAAXXZ
0000000000082100	wxbase33u:hash.obj	?Create@wxHashTableBase@@QEAAXW4wxKeyType@@_K@Z
0000000000082160	wxbase33u:hash.obj	?Destroy@wxHashTableBase@@QEAAXXZ
00000000000821a0	wxbase33u:hash.obj	?DoDelete@wxHashTableBase@@IEAAPEAXAEBVwxString@@J@Z
00000000000822d0	wxbase33u:hash.obj	?DoDeleteContents@wxHashTable@@EEAAXPEAVwxHashTableBase_Node@@@Z
00000000000822f0	wxbase33u:hash.obj	?DoDestroyNode@wxHashTableBase@@AEAAXPEAVwxHashTableBase_Node@@@Z
0000000000082360	wxbase33u:hash.obj	?DoGet@wxHashTableBase@@IEBAPEAXAEBVwxString@@J@Z
0000000000082430	wxbase33u:hash.obj	?DoPut@wxHashTableBase@@IEAAXAEBVwxString@@JPEAX@Z
0000000000082510	wxbase33u:hash.obj	?MakeKey@wxHashTableBase@@SAJAEBVwxString@@@Z
0000000000082550	wxbase33u:hash.obj	?Next@wxHashTable@@QEAAPEAVwxHashTable_Node@@XZ
0000000000082600	wxbase33u:dir.obj	?Close@wxDir@@QEAAXXZ
0000000000082680	wxbase33u:dir.obj	?DoLogWithNum@wxLogger@@AEAAXJPEB_WZZ
00000000000827a0	wxbase33u:dir.obj	?FreeFindData@?A0x7f149f09@@YAXPEAX@Z
0000000000082ad0	wxbase33u:platinfo.obj	??1wxLinuxDistributionInfo@@QEAA@XZ
0000000000082b40	wxbase33u:debughlp.obj	??1?$wxScopedArray@E@@QEAA@XZ
0000000000082b50	wxbase33u:debughlp.obj	?BindDbgHelpFunctions@wxDbgHelpDLL@@CA_NAEBVwxDynamicLibrary@@@Z
0000000000083460	wxbase33u:debughlp.obj	?CallSymEnumSymbols@wxDbgHelpDLL@@SAHPEAX_KP6AHPEAU_SYMBOL_INFOW@@K0@ZQEAX@Z
0000000000083500	wxbase33u:debughlp.obj	?CallSymFromAddr@wxDbgHelpDLL@@SAHPEAX_KPEA_KPEAVwxString@@@Z
0000000000083640	wxbase33u:debughlp.obj	?CallSymGetLineFromAddr@wxDbgHelpDLL@@SAHPEAX_KPEAVwxString@@PEA_K@Z
00000000000837b0	wxbase33u:debughlp.obj	?CallSymInitialize@wxDbgHelpDLL@@SAHPEAXH@Z
0000000000083820	wxbase33u:debughlp.obj	?DereferenceSymbol@wxDbgHelpDLL@@CA?AW4SymbolTag@1@PEAU_SYMBOL_INFOW@@PEAPEAX@Z
00000000000839c0	wxbase33u:debughlp.obj	?DoGetTypeInfo@@YA_NPEAU_SYMBOL_INFOW@@W4_IMAGEHLP_SYMBOL_TYPE_INFO@@PEAX@Z
0000000000083a70	wxbase33u:debughlp.obj	?DumpBaseType@wxDbgHelpDLL@@CA?AVwxString@@W4BasicType@1@_KPEAX@Z
0000000000084470	wxbase33u:debughlp.obj	?DumpField@wxDbgHelpDLL@@CA?AVwxString@@PEAU_SYMBOL_INFOW@@PEAXI@Z
0000000000084b40	wxbase33u:debughlp.obj	?DumpSymbol@wxDbgHelpDLL@@SA?AVwxString@@PEAU_SYMBOL_INFOW@@PEAX@Z
0000000000084cc0	wxbase33u:debughlp.obj	?DumpUDT@wxDbgHelpDLL@@CA?AVwxString@@PEAU_SYMBOL_INFOW@@PEAXI@Z
0000000000085390	wxbase33u:debughlp.obj	?GetBasicType@@YA?AW4BasicType@wxDbgHelpDLL@@PEAU_SYMBOL_INFOW@@@Z
0000000000085430	wxbase33u:debughlp.obj	?GetErrorMessage@wxDbgHelpDLL@@SAAEBVwxString@@XZ
0000000000085440	wxbase33u:debughlp.obj	?GetSymbolName@wxDbgHelpDLL@@SA?AVwxString@@PEAU_SYMBOL_INFOW@@@Z
0000000000085520	wxbase33u:debughlp.obj	?Init@wxDbgHelpDLL@@SA_NXZ
0000000000085630	wxbase33u:debughlp.obj	?LogError@wxDbgHelpDLL@@SAXPEB_W@Z
0000000000085810	wxbase33u:debughlp.obj	?wxEnumSymbolsCallback@@YAHPEAU_SYMBOL_INFO@@KPEAX@Z
0000000000085950	wxbase33u:any.obj	?DeleteValue@?$wxAnyValueTypeImplBase@VwxString@@@@UEBAXAEATwxAnyValueBuffer@@@Z
0000000000085950	wxbase33u:any.obj	?DeleteValue@?$wxAnyValueTypeImplBase@VwxVariant@@@@UEBAXAEATwxAnyValueBuffer@@@Z
0000000000085950	wxbase33u:variant.obj	?DeleteValue@?$wxAnyValueTypeImplBase@VwxAnyList@@@@UEBAXAEATwxAnyValueBuffer@@@Z
0000000000085950	wxbase33u:variant.obj	?DeleteValue@?$wxAnyValueTypeImplBase@VwxArrayString@@@@UEBAXAEATwxAnyValueBuffer@@@Z
0000000000085970	wxbase33u:any.obj	?CopyBuffer@?$wxAnyValueTypeImplBase@VwxVariant@@@@UEBAXAEBTwxAnyValueBuffer@@AEAT2@@Z
00000000000859d0	wxbase33u:any.obj	?IsSameType@?$wxAnyValueTypeImpl@VwxVariant@@@@UEBA_NPEBVwxAnyValueType@@@Z
0000000000085a20	wxbase33u:any.obj	??_E?$wxAnyValueTypeImpl@VwxAnyNullValue@@@@UEAAPEAXI@Z
0000000000085a20	wxbase33u:any.obj	??_E?$wxAnyValueTypeImpl@VwxDateTime@@@@UEAAPEAXI@Z
0000000000085a20	wxbase33u:any.obj	??_E?$wxAnyValueTypeImpl@VwxVariant@@@@UEAAPEAXI@Z
0000000000085a20	wxbase33u:any.obj	??_E?$wxAnyValueTypeImpl@_N@@UEAAPEAXI@Z
0000000000085a20	wxbase33u:any.obj	??_EwxAnyValueType@@UEAAPEAXI@Z
0000000000085a20	wxbase33u:any.obj	??_EwxAnyValueTypeImplConstCharPtr@@UEAAPEAXI@Z
0000000000085a20	wxbase33u:any.obj	??_EwxAnyValueTypeImplConstWchar_tPtr@@UEAAPEAXI@Z
0000000000085a20	wxbase33u:any.obj	??_EwxAnyValueTypeImplDouble@@UEAAPEAXI@Z
0000000000085a20	wxbase33u:any.obj	??_EwxAnyValueTypeImplInt@@UEAAPEAXI@Z
0000000000085a20	wxbase33u:any.obj	??_EwxAnyValueTypeImplUint@@UEAAPEAXI@Z
0000000000085a20	wxbase33u:any.obj	??_EwxAnyValueTypeImplVariantData@@UEAAPEAXI@Z
0000000000085a20	wxbase33u:any.obj	??_EwxAnyValueTypeImplwxString@@UEAAPEAXI@Z
0000000000085a20	wxbase33u:any.obj	??_G?$wxAnyValueTypeImpl@VwxAnyNullValue@@@@UEAAPEAXI@Z
0000000000085a20	wxbase33u:any.obj	??_G?$wxAnyValueTypeImpl@VwxDateTime@@@@UEAAPEAXI@Z
0000000000085a20	wxbase33u:any.obj	??_G?$wxAnyValueTypeImpl@VwxVariant@@@@UEAAPEAXI@Z
0000000000085a20	wxbase33u:any.obj	??_G?$wxAnyValueTypeImpl@_N@@UEAAPEAXI@Z
0000000000085a20	wxbase33u:any.obj	??_GwxAnyValueType@@UEAAPEAXI@Z
0000000000085a20	wxbase33u:any.obj	??_GwxAnyValueTypeImplConstCharPtr@@UEAAPEAXI@Z
0000000000085a20	wxbase33u:any.obj	??_GwxAnyValueTypeImplConstWchar_tPtr@@UEAAPEAXI@Z
0000000000085a20	wxbase33u:any.obj	??_GwxAnyValueTypeImplDouble@@UEAAPEAXI@Z
0000000000085a20	wxbase33u:any.obj	??_GwxAnyValueTypeImplInt@@UEAAPEAXI@Z
0000000000085a20	wxbase33u:any.obj	??_GwxAnyValueTypeImplUint@@UEAAPEAXI@Z
0000000000085a20	wxbase33u:any.obj	??_GwxAnyValueTypeImplVariantData@@UEAAPEAXI@Z
0000000000085a20	wxbase33u:any.obj	??_GwxAnyValueTypeImplwxString@@UEAAPEAXI@Z
0000000000085a20	wxbase33u:variant.obj	??_E?$wxAnyValueTypeImpl@PEAVwxObject@@@@UEAAPEAXI@Z
0000000000085a20	wxbase33u:variant.obj	??_E?$wxAnyValueTypeImpl@PEAX@@UEAAPEAXI@Z
0000000000085a20	wxbase33u:variant.obj	??_E?$wxAnyValueTypeImpl@VwxAnyList@@@@UEAAPEAXI@Z
0000000000085a20	wxbase33u:variant.obj	??_E?$wxAnyValueTypeImpl@VwxArrayString@@@@UEAAPEAXI@Z
0000000000085a20	wxbase33u:variant.obj	??_E?$wxAnyValueTypeImpl@VwxUniChar@@@@UEAAPEAXI@Z
0000000000085a20	wxbase33u:variant.obj	??_G?$wxAnyValueTypeImpl@PEAVwxObject@@@@UEAAPEAXI@Z
0000000000085a20	wxbase33u:variant.obj	??_G?$wxAnyValueTypeImpl@PEAX@@UEAAPEAXI@Z
0000000000085a20	wxbase33u:variant.obj	??_G?$wxAnyValueTypeImpl@VwxAnyList@@@@UEAAPEAXI@Z
0000000000085a20	wxbase33u:variant.obj	??_G?$wxAnyValueTypeImpl@VwxArrayString@@@@UEAAPEAXI@Z
0000000000085a20	wxbase33u:variant.obj	??_G?$wxAnyValueTypeImpl@VwxUniChar@@@@UEAAPEAXI@Z
0000000000085a50	wxbase33u:any.obj	?IsSameType@?$wxAnyValueTypeImpl@VwxAnyNullValue@@@@UEBA_NPEBVwxAnyValueType@@@Z
0000000000085aa0	wxbase33u:any.obj	?CopyBuffer@?$wxAnyValueTypeImplBase@N@@UEBAXAEBTwxAnyValueBuffer@@AEAT2@@Z
0000000000085aa0	wxbase33u:any.obj	?CopyBuffer@?$wxAnyValueTypeImplBase@PEBD@@UEBAXAEBTwxAnyValueBuffer@@AEAT2@@Z
0000000000085aa0	wxbase33u:any.obj	?CopyBuffer@?$wxAnyValueTypeImplBase@PEB_W@@UEBAXAEBTwxAnyValueBuffer@@AEAT2@@Z
0000000000085aa0	wxbase33u:any.obj	?CopyBuffer@?$wxAnyValueTypeImplBase@VwxDateTime@@@@UEBAXAEBTwxAnyValueBuffer@@AEAT2@@Z
0000000000085aa0	wxbase33u:any.obj	?CopyBuffer@?$wxAnyValueTypeImplBase@_J@@UEBAXAEBTwxAnyValueBuffer@@AEAT2@@Z
0000000000085aa0	wxbase33u:any.obj	?CopyBuffer@?$wxAnyValueTypeImplBase@_K@@UEBAXAEBTwxAnyValueBuffer@@AEAT2@@Z
0000000000085aa0	wxbase33u:variant.obj	?CopyBuffer@?$wxAnyValueTypeImplBase@PEAVwxObject@@@@UEBAXAEBTwxAnyValueBuffer@@AEAT2@@Z
0000000000085aa0	wxbase33u:variant.obj	?CopyBuffer@?$wxAnyValueTypeImplBase@PEAX@@UEBAXAEBTwxAnyValueBuffer@@AEAT2@@Z
0000000000085ab0	wxbase33u:any.obj	?IsSameType@?$wxAnyValueTypeImpl@VwxDateTime@@@@UEBA_NPEBVwxAnyValueType@@@Z
0000000000085b00	wxbase33u:any.obj	??_E?$DataHolder@VwxVariant@@@?$wxAnyValueTypeOpsGeneric@VwxVariant@@@wxPrivate@@UEAAPEAXI@Z
0000000000085b00	wxbase33u:any.obj	??_G?$DataHolder@VwxVariant@@@?$wxAnyValueTypeOpsGeneric@VwxVariant@@@wxPrivate@@UEAAPEAXI@Z
0000000000085b50	wxbase33u:any.obj	?IsSameType@wxAnyValueTypeImplVariantData@@UEBA_NPEBVwxAnyValueType@@@Z
0000000000085ba0	wxbase33u:any.obj	?DeleteValue@wxAnyValueTypeImplVariantData@@UEBAXAEATwxAnyValueBuffer@@@Z
0000000000085bb0	wxbase33u:any.obj	?CopyBuffer@wxAnyValueTypeImplVariantData@@UEBAXAEBTwxAnyValueBuffer@@AEAT2@@Z
0000000000085bc0	wxbase33u:any.obj	?IsSameType@wxAnyValueTypeImplInt@@UEBA_NPEBVwxAnyValueType@@@Z
0000000000085c10	wxbase33u:any.obj	?ConvertValue@wxAnyValueTypeImplInt@@UEBA_NAEBTwxAnyValueBuffer@@PEAVwxAnyValueType@@AEAT2@@Z
0000000000085d80	wxbase33u:any.obj	?IsSameType@wxAnyValueTypeImplUint@@UEBA_NPEBVwxAnyValueType@@@Z
0000000000085dd0	wxbase33u:any.obj	?ConvertValue@wxAnyValueTypeImplUint@@UEBA_NAEBTwxAnyValueBuffer@@PEAVwxAnyValueType@@AEAT2@@Z
0000000000085f70	wxbase33u:any.obj	?CopyBuffer@?$wxAnyValueTypeImplBase@VwxString@@@@UEBAXAEBTwxAnyValueBuffer@@AEAT2@@Z
0000000000085fd0	wxbase33u:any.obj	?IsSameType@wxAnyValueTypeImplwxString@@UEBA_NPEBVwxAnyValueType@@@Z
0000000000086020	wxbase33u:any.obj	?ConvertValue@wxAnyValueTypeImplwxString@@UEBA_NAEBTwxAnyValueBuffer@@PEAVwxAnyValueType@@AEAT2@@Z
0000000000086040	wxbase33u:any.obj	?IsSameType@wxAnyValueTypeImplConstCharPtr@@UEBA_NPEBVwxAnyValueType@@@Z
0000000000086090	wxbase33u:any.obj	?ConvertValue@wxAnyValueTypeImplConstCharPtr@@UEBA_NAEBTwxAnyValueBuffer@@PEAVwxAnyValueType@@AEAT2@@Z
00000000000861f0	wxbase33u:any.obj	?IsSameType@wxAnyValueTypeImplConstWchar_tPtr@@UEBA_NPEBVwxAnyValueType@@@Z
0000000000086240	wxbase33u:any.obj	?ConvertValue@wxAnyValueTypeImplConstWchar_tPtr@@UEBA_NAEBTwxAnyValueBuffer@@PEAVwxAnyValueType@@AEAT2@@Z
00000000000862d0	wxbase33u:any.obj	?CopyBuffer@?$wxAnyValueTypeImplBase@_N@@UEBAXAEBTwxAnyValueBuffer@@AEAT2@@Z
00000000000862e0	wxbase33u:any.obj	?IsSameType@?$wxAnyValueTypeImpl@_N@@UEBA_NPEBVwxAnyValueType@@@Z
0000000000086330	wxbase33u:any.obj	?ConvertValue@?$wxAnyValueTypeImpl@_N@@UEBA_NAEBTwxAnyValueBuffer@@PEAVwxAnyValueType@@AEAT2@@Z
0000000000086580	wxbase33u:any.obj	?IsSameType@wxAnyValueTypeImplDouble@@UEBA_NPEBVwxAnyValueType@@@Z
00000000000865d0	wxbase33u:any.obj	?ConvertValue@wxAnyValueTypeImplDouble@@UEBA_NAEBTwxAnyValueBuffer@@PEAVwxAnyValueType@@AEAT2@@Z
0000000000086770	wxbase33u:any.obj	??$_Try_emplace@AEBQEAVwxAnyValueType@@$$V@?$_Hash@V?$_Umap_traits@PEAVwxAnyValueType@@P6APEAVwxVariantData@@AEBVwxAny@@@ZV?$_Uhash_compare@PEAVwxAnyValueType@@UwxPointerHash@@UwxPointerEqual@@@std@@V?$allocator@U?$pair@QEAVwxAnyValueType@@P6APEAVwxVariantData@@AEBVwxAny@@@Z@std@@@5@$0A@@std@@@std@@IEAA?AU?$pair@PEAU?$_List_node@U?$pair@QEAVwxAnyValueType@@P6APEAVwxVariantData@@AEBVwxAny@@@Z@std@@PEAX@std@@_N@1@AEBQEAVwxAnyValueType@@@Z
0000000000086a10	wxbase33u:any.obj	??1?$_Alloc_construct_ptr@V?$allocator@U?$_List_node@U?$pair@QEAVwxAnyValueType@@P6APEAVwxVariantData@@AEBVwxAny@@@Z@std@@PEAX@std@@@std@@@std@@QEAA@XZ
0000000000086a10	wxbase33u:any.obj	??1?$_List_node_emplace_op2@V?$allocator@U?$_List_node@U?$pair@QEAVwxAnyValueType@@P6APEAVwxVariantData@@AEBVwxAny@@@Z@std@@PEAX@std@@@std@@@std@@QEAA@XZ
0000000000086a10	wxbase33u:timer.obj	??1?$_Alloc_construct_ptr@V?$allocator@U?$_List_node@U?$pair@$$CB_KPEAVwxMSWTimerImpl@@@std@@PEAX@std@@@std@@@std@@QEAA@XZ
0000000000086a10	wxbase33u:timer.obj	??1?$_List_node_emplace_op2@V?$allocator@U?$_List_node@U?$pair@$$CB_KPEAVwxMSWTimerImpl@@@std@@PEAX@std@@@std@@@std@@QEAA@XZ
0000000000086a30	wxbase33u:any.obj	??1?$_Hash@V?$_Umap_traits@PEAVwxAnyValueType@@P6APEAVwxVariantData@@AEBVwxAny@@@ZV?$_Uhash_compare@PEAVwxAnyValueType@@UwxPointerHash@@UwxPointerEqual@@@std@@V?$allocator@U?$pair@QEAVwxAnyValueType@@P6APEAVwxVariantData@@AEBVwxAny@@@Z@std@@@5@$0A@@std@@@std@@QEAA@XZ
0000000000086ae0	wxbase33u:any.obj	??1?$list@U?$pair@QEAVwxAnyValueType@@P6APEAVwxVariantData@@AEBVwxAny@@@Z@std@@V?$allocator@U?$pair@QEAVwxAnyValueType@@P6APEAVwxVariantData@@AEBVwxAny@@@Z@std@@@2@@std@@QEAA@XZ
0000000000086ae0	wxbase33u:timer.obj	??1?$list@U?$pair@$$CB_KPEAVwxMSWTimerImpl@@@std@@V?$allocator@U?$pair@$$CB_KPEAVwxMSWTimerImpl@@@std@@@2@@std@@QEAA@XZ
0000000000086b40	wxbase33u:any.obj	??C?$wxScopedPtr@VwxAnyValueTypeGlobals@@@@QEBAPEAVwxAnyValueTypeGlobals@@XZ
0000000000086bb0	wxbase33u:any.obj	??_E?$DataHolder@VwxString@@@?$wxAnyValueTypeOpsGeneric@VwxString@@@wxPrivate@@UEAAPEAXI@Z
0000000000086bb0	wxbase33u:any.obj	??_G?$DataHolder@VwxString@@@?$wxAnyValueTypeOpsGeneric@VwxString@@@wxPrivate@@UEAAPEAXI@Z
0000000000086c10	wxbase33u:any.obj	??_EwxAnyValueTypeGlobalsManager@@UEAAPEAXI@Z
0000000000086c10	wxbase33u:any.obj	??_GwxAnyValueTypeGlobalsManager@@UEAAPEAXI@Z
0000000000086c50	wxbase33u:any.obj	?DeleteFunction@_WX_LIST_HELPER_wxAnyList@@SAXPEAVwxAny@@@Z
0000000000086c80	wxbase33u:any.obj	?FindVariantDataFactory@wxAnyValueTypeGlobals@@QEAAP6APEAVwxVariantData@@AEBVwxAny@@@ZPEBVwxAnyValueType@@@Z
0000000000086e30	wxbase33u:any.obj	?GetAnyValueTypeGlobals@@YAAEAV?$wxScopedPtr@VwxAnyValueTypeGlobals@@@@XZ
0000000000086f50	wxbase33u:any.obj	?GetClassInfo@wxAnyValueTypeGlobalsManager@@UEBAPEAVwxClassInfo@@XZ
0000000000086f60	wxbase33u:any.obj	?IsSameClass@?$wxAnyValueTypeImpl@VwxVariant@@@@SA_NPEBVwxAnyValueType@@@Z
0000000000086fa0	wxbase33u:any.obj	?IsSameClass@?$wxAnyValueTypeImpl@_N@@SA_NPEBVwxAnyValueType@@@Z
0000000000086fe0	wxbase33u:any.obj	?IsSameClass@wxAnyValueTypeImplDouble@@SA_NPEBVwxAnyValueType@@@Z
0000000000087020	wxbase33u:any.obj	?OnExit@wxAnyValueTypeGlobalsManager@@UEAAXXZ
0000000000087040	wxbase33u:any.obj	?_Forced_rehash@?$_Hash@V?$_Umap_traits@PEAVwxAnyValueType@@P6APEAVwxVariantData@@AEBVwxAny@@@ZV?$_Uhash_compare@PEAVwxAnyValueType@@UwxPointerHash@@UwxPointerEqual@@@std@@V?$allocator@U?$pair@QEAVwxAnyValueType@@P6APEAVwxVariantData@@AEBVwxAny@@@Z@std@@@5@$0A@@std@@@std@@IEAAX_K@Z
00000000000871b0	wxbase33u:any.obj	?clear@?$_Hash@V?$_Umap_traits@PEAVwxAnyValueType@@P6APEAVwxVariantData@@AEBVwxAny@@@ZV?$_Uhash_compare@PEAVwxAnyValueType@@UwxPointerHash@@UwxPointerEqual@@@std@@V?$allocator@U?$pair@QEAVwxAnyValueType@@P6APEAVwxVariantData@@AEBVwxAny@@@Z@std@@@5@$0A@@std@@@std@@QEAAXXZ
0000000000087380	wxbase33u:any.obj	?reset@?$wxScopedPtr@VwxAnyValueTypeGlobals@@@@QEAAXPEAVwxAnyValueTypeGlobals@@@Z
0000000000087430	wxbase33u:any.obj	?wxAnyConvertString@@YA_NAEBVwxString@@PEAVwxAnyValueType@@AEATwxAnyValueBuffer@@@Z
0000000000087690	wxbase33u:any.obj	?wxConvertAnyToVariant@@YA_NAEBVwxAny@@PEAVwxVariant@@@Z
0000000000087930	wxbase33u:any.obj	?wxCreateObject@wxAnyValueTypeGlobalsManager@@SAPEAVwxObject@@XZ
0000000000087970	wxbase33u:any.obj	?wxPreRegisterAnyToVariant@@YAXPEAVwxAnyToVariantRegistration@@@Z
00000000000879c0	wxbase33u:regconf.obj	??$DoReadValue@J@wxRegConfig@@IEBA_NAEBVwxString@@PEAJ@Z
0000000000087df0	wxbase33u:regconf.obj	??$DoReadValue@VwxMemoryBuffer@@@wxRegConfig@@IEBA_NAEBVwxString@@PEAVwxMemoryBuffer@@@Z
0000000000088220	wxbase33u:regconf.obj	??$DoReadValue@VwxString@@@wxRegConfig@@IEBA_NAEBVwxString@@PEAV1@@Z
0000000000088650	wxbase33u:regconf.obj	??$DoReadValue@_J@wxRegConfig@@IEBA_NAEBVwxString@@PEA_J@Z
0000000000088a80	wxbase33u:regconf.obj	??$DoWriteValue@J@wxRegConfig@@IEAA_NAEBVwxString@@AEBJ@Z
0000000000088f40	wxbase33u:regconf.obj	??$DoWriteValue@VwxMemoryBuffer@@@wxRegConfig@@IEAA_NAEBVwxString@@AEBVwxMemoryBuffer@@@Z
0000000000089400	wxbase33u:regconf.obj	??$DoWriteValue@VwxString@@@wxRegConfig@@IEAA_NAEBVwxString@@0@Z
00000000000898c0	wxbase33u:regconf.obj	??$DoWriteValue@_J@wxRegConfig@@IEAA_NAEBVwxString@@AEB_J@Z
0000000000089d80	wxbase33u:regconf.obj	??0?$wxStringTypeBufferLength@_W@@QEAA@AEAVwxString@@_K@Z
0000000000089eb0	wxbase33u:regconf.obj	??0wxRegConfig@@QEAA@AEBVwxString@@000J@Z
000000000008a5e0	wxbase33u:regconf.obj	??1?$wxStringTypeBufferLength@_W@@QEAA@XZ
000000000008a6a0	wxbase33u:regconf.obj	??1?$wxStringTypeBufferLengthBase@_W@@QEAA@XZ
000000000008a750	wxbase33u:regconf.obj	??_EwxRegConfig@@UEAAPEAXI@Z
000000000008a750	wxbase33u:regconf.obj	??_GwxRegConfig@@UEAAPEAXI@Z
000000000008a7f0	wxbase33u:regconf.obj	?DeleteAll@wxRegConfig@@UEAA_NXZ
000000000008a840	wxbase33u:regconf.obj	?DeleteEntry@wxRegConfig@@UEAA_NAEBVwxString@@_N@Z
000000000008a9b0	wxbase33u:regconf.obj	?DeleteGroup@wxRegConfig@@UEAA_NAEBVwxString@@@Z
000000000008aa70	wxbase33u:regconf.obj	?DoReadBinary@wxRegConfig@@MEBA_NAEBVwxString@@PEAVwxMemoryBuffer@@@Z
000000000008aa80	wxbase33u:regconf.obj	?DoReadLong@wxRegConfig@@MEBA_NAEBVwxString@@PEAJ@Z
000000000008aa90	wxbase33u:regconf.obj	?DoReadLongLong@wxRegConfig@@MEBA_NAEBVwxString@@PEA_J@Z
000000000008aaa0	wxbase33u:regconf.obj	?DoReadString@wxRegConfig@@MEBA_NAEBVwxString@@PEAV2@@Z
000000000008aab0	wxbase33u:regconf.obj	?DoWriteBinary@wxRegConfig@@MEAA_NAEBVwxString@@AEBVwxMemoryBuffer@@@Z
000000000008aac0	wxbase33u:regconf.obj	?DoWriteLong@wxRegConfig@@MEAA_NAEBVwxString@@J@Z
000000000008aae0	wxbase33u:regconf.obj	?DoWriteLongLong@wxRegConfig@@MEAA_NAEBVwxString@@_J@Z
000000000008ab00	wxbase33u:regconf.obj	?DoWriteString@wxRegConfig@@MEAA_NAEBVwxString@@0@Z
000000000008ab10	wxbase33u:regconf.obj	?GetClassInfo@wxRegConfig@@UEBAPEAVwxClassInfo@@XZ
000000000008ab20	wxbase33u:regconf.obj	?GetEntryType@wxRegConfig@@UEBA?AW4EntryType@wxConfigBase@@AEBVwxString@@@Z
000000000008ac20	wxbase33u:fileconf.obj	?GetFirstEntry@wxFileConfig@@UEBA_NAEAVwxString@@AEAJ@Z
000000000008ac20	wxbase33u:regconf.obj	?GetFirstEntry@wxRegConfig@@UEBA_NAEAVwxString@@AEAJ@Z
000000000008ac30	wxbase33u:fileconf.obj	?GetFirstGroup@wxFileConfig@@UEBA_NAEAVwxString@@AEAJ@Z
000000000008ac30	wxbase33u:regconf.obj	?GetFirstGroup@wxRegConfig@@UEBA_NAEAVwxString@@AEAJ@Z
000000000008ac40	wxbase33u:regconf.obj	?GetNextEntry@wxRegConfig@@UEBA_NAEAVwxString@@AEAJ@Z
000000000008ad50	wxbase33u:regconf.obj	?GetNextGroup@wxRegConfig@@UEBA_NAEAVwxString@@AEAJ@Z
000000000008ae60	wxbase33u:regconf.obj	?GetNumberOfEntries@wxRegConfig@@UEBA_K_N@Z
000000000008af50	wxbase33u:regconf.obj	?GetNumberOfGroups@wxRegConfig@@UEBA_K_N@Z
000000000008b040	wxbase33u:regconf.obj	?GetPath@wxRegConfig@@UEBAAEBVwxString@@XZ
000000000008b050	wxbase33u:regconf.obj	?HasEntry@wxRegConfig@@UEBA_NAEBVwxString@@@Z
000000000008b130	wxbase33u:regconf.obj	?HasGroup@wxRegConfig@@UEBA_NAEBVwxString@@@Z
000000000008b210	wxbase33u:regconf.obj	?RenameEntry@wxRegConfig@@UEAA_NAEBVwxString@@0@Z
000000000008b280	wxbase33u:regconf.obj	?RenameGroup@wxRegConfig@@UEAA_NAEBVwxString@@0@Z
000000000008b310	wxbase33u:regconf.obj	?SetPath@wxRegConfig@@UEAAXAEBVwxString@@@Z
000000000008bd60	wxbase33u:regconf.obj	?TryGetValue@@YA_NAEBVwxRegKey@@AEBVwxString@@PEAJ@Z
000000000008bdc0	wxbase33u:regconf.obj	?TryGetValue@@YA_NAEBVwxRegKey@@AEBVwxString@@PEAV2@@Z
000000000008be20	wxbase33u:regconf.obj	?TryGetValue@@YA_NAEBVwxRegKey@@AEBVwxString@@PEAVwxMemoryBuffer@@@Z
000000000008be80	wxbase33u:regconf.obj	?TryGetValue@@YA_NAEBVwxRegKey@@AEBVwxString@@PEA_J@Z
000000000008bee0	wxbase33u:stdpaths.obj	??0wxStandardPaths@@IEAA@XZ
000000000008bf30	wxbase33u:stdpaths.obj	??1?$wxCoTaskMemPtr@_W@@QEAA@XZ
000000000008bf40	wxbase33u:stdpaths.obj	??_EwxStandardPaths@@UEAAPEAXI@Z
000000000008bf40	wxbase33u:stdpaths.obj	??_GwxStandardPaths@@UEAAPEAXI@Z
000000000008bfa0	wxbase33u:stdpaths.obj	?DoGetDirectory@wxStandardPaths@@KA?AVwxString@@H@Z
000000000008c170	wxbase33u:stdpaths.obj	?DoGetKnownFolder@wxStandardPaths@@KA?AVwxString@@AEBU_GUID@@@Z
000000000008c250	wxbase33u:stdpaths.obj	?GetAppDir@wxStandardPaths@@IEBA?AVwxString@@XZ
000000000008c5d0	wxbase33u:stdpaths.obj	?GetConfigDir@wxStandardPaths@@UEBA?AVwxString@@XZ
000000000008c650	wxbase33u:stdpaths.obj	?GetDataDir@wxStandardPaths@@UEBA?AVwxString@@XZ
000000000008c650	wxbase33u:stdpaths.obj	?GetPluginsDir@wxStandardPaths@@UEBA?AVwxString@@XZ
000000000008c670	wxbase33u:stdpaths.obj	?GetExecutablePath@wxStandardPaths@@UEBA?AVwxString@@XZ
000000000008c6a0	wxbase33u:stdpaths.obj	?GetUserConfigDir@wxStandardPaths@@UEBA?AVwxString@@XZ
000000000008c6c0	wxbase33u:stdpaths.obj	?GetUserDataDir@wxStandardPaths@@UEBA?AVwxString@@XZ
000000000008c740	wxbase33u:stdpaths.obj	?GetUserDir@wxStandardPaths@@UEBA?AVwxString@@W4Dir@wxStandardPathsBase@@@Z
000000000008c8a8	wxbase33u:stdpaths.obj	$LN160
000000000008c8d0	wxbase33u:stdpaths.obj	?GetUserLocalDataDir@wxStandardPaths@@UEBA?AVwxString@@XZ
000000000008c950	wxbase33u:stdpaths.obj	?IgnoreAppBuildSubDirs@wxStandardPaths@@QEAAXXZ
000000000008cc00	wxbase33u:stdpaths.obj	?IgnoreAppSubDir@wxStandardPaths@@QEAAXAEBVwxString@@@Z
000000000008ce80	wxbase33u:stdpaths.obj	?MakeConfigFileName@wxStandardPaths@@UEBA?AVwxString@@AEBV2@W4ConfigFileConv@wxStandardPathsBase@@@Z
000000000008d1f0	wxbase33u:stdpaths.obj	?ResolveShellFunctions@?A0x022ab952@@YAXXZ
000000000008d780	wxbase33u:evtloopconsole.obj	??0wxMSWEventLoopBase@@QEAA@XZ
000000000008dae0	wxbase33u:evtloopconsole.obj	??1wxEventLoopManual@@UEAA@XZ
000000000008daf0	wxbase33u:evtloopconsole.obj	??1wxMSWEventLoopBase@@UEAA@XZ
000000000008de50	wxbase33u:evtloopconsole.obj	?Dispatch@wxConsoleEventLoop@@UEAA_NXZ
000000000008dea0	wxbase33u:evtloopconsole.obj	?DispatchTimeout@wxConsoleEventLoop@@UEAAHK@Z
000000000008dee0	wxbase33u:evtloopconsole.obj	?DoYieldFor@wxConsoleEventLoop@@MEAAXJ@Z
000000000008def0	wxbase33u:evtloopconsole.obj	?GetNextMessageTimeout@wxMSWEventLoopBase@@IEAAHPEAUtagMSG@@K@Z
000000000008e2c0	wxbase33u:evtloopconsole.obj	?Pending@wxMSWEventLoopBase@@UEBA_NXZ
000000000008e2f0	wxbase33u:evtloopconsole.obj	?ProcessMessage@wxConsoleEventLoop@@UEAAXPEAUtagMSG@@@Z
000000000008e300	wxbase33u:evtloopconsole.obj	?WakeUp@wxMSWEventLoopBase@@UEAAXXZ
000000000008e630	wxbase33u:timerimpl.obj	??0wxTimerImpl@@QEAA@PEAVwxTimer@@@Z
000000000008e660	wxbase33u:timerimpl.obj	?Start@wxTimerImpl@@UEAA_NH_N@Z
000000000008e710	wxbase33u:timer.obj	??$_Try_emplace@AEB_K$$V@?$_Hash@V?$_Umap_traits@_KPEAVwxMSWTimerImpl@@V?$_Uhash_compare@_KUwxIntegerHash@@UwxIntegerEqual@@@std@@V?$allocator@U?$pair@$$CB_KPEAVwxMSWTimerImpl@@@std@@@3@$0A@@std@@@std@@IEAA?AU?$pair@PEAU?$_List_node@U?$pair@$$CB_KPEAVwxMSWTimerImpl@@@std@@PEAX@std@@_N@1@AEB_K@Z
000000000008ea20	wxbase33u:timer.obj	??$find@X@?$_Hash@V?$_Umap_traits@_KPEAVwxMSWTimerImpl@@V?$_Uhash_compare@_KUwxIntegerHash@@UwxIntegerEqual@@@std@@V?$allocator@U?$pair@$$CB_KPEAVwxMSWTimerImpl@@@std@@@3@$0A@@std@@@std@@QEAA?AV?$_List_iterator@V?$_List_val@U?$_List_simple_types@U?$pair@$$CB_KPEAVwxMSWTimerImpl@@@std@@@std@@@std@@@1@AEB_K@Z
000000000008eb10	wxbase33u:timer.obj	??1?$_Hash@V?$_Umap_traits@_KPEAVwxMSWTimerImpl@@V?$_Uhash_compare@_KUwxIntegerHash@@UwxIntegerEqual@@@std@@V?$allocator@U?$pair@$$CB_KPEAVwxMSWTimerImpl@@@std@@@3@$0A@@std@@@std@@QEAA@XZ
000000000008ebc0	wxbase33u:timer.obj	?GetClassInfo@wxTimerHiddenWindowModule@@UEBAPEAVwxClassInfo@@XZ
000000000008ebd0	wxbase33u:timer.obj	?OnExit@wxTimerHiddenWindowModule@@UEAAXXZ
000000000008f1f0	wxbase33u:timer.obj	?Start@wxMSWTimerImpl@@UEAA_NH_N@Z
000000000008fba0	wxbase33u:timer.obj	?Stop@wxMSWTimerImpl@@UEAAXXZ
000000000008fd20	wxbase33u:timer.obj	?TimerMap@@YAAEAV?$unordered_map@_KPEAVwxMSWTimerImpl@@UwxIntegerHash@@UwxIntegerEqual@@V?$allocator@U?$pair@$$CB_KPEAVwxMSWTimerImpl@@@std@@@std@@@std@@XZ
000000000008fe10	wxbase33u:timer.obj	?_Forced_rehash@?$_Hash@V?$_Umap_traits@_KPEAVwxMSWTimerImpl@@V?$_Uhash_compare@_KUwxIntegerHash@@UwxIntegerEqual@@@std@@V?$allocator@U?$pair@$$CB_KPEAVwxMSWTimerImpl@@@std@@@3@$0A@@std@@@std@@IEAAX_K@Z
0000000000090020	wxbase33u:timer.obj	?wxCreateObject@wxTimerHiddenWindowModule@@SAPEAVwxObject@@XZ
0000000000090060	wxbase33u:timer.obj	?wxTimerWndProc@@YA_JPEAUHWND__@@I_K_J@Z
0000000000090150	wxbase33u:longlong.obj	?ToString@wxLongLongNative@@QEBA?AVwxString@@XZ
00000000000905c0	wxbase33u:longlong.obj	?ToString@wxULongLongNative@@QEBA?AVwxString@@XZ
00000000000907d0	wxbase33u:ffile.obj	?Close@wxFFile@@QEAA_NXZ
00000000000910a0	wxbase33u:fileconf.obj	??$LogTrace@VwxString@@V1@@wxLogger@@QEAAXAEBVwxString@@AEBVwxFormatString@@V1@2@Z
0000000000091220	wxbase33u:fileconf.obj	??$_Emplace_reallocate@AEBW4wxTextFileType@@@?$vector@W4wxTextFileType@@V?$allocator@W4wxTextFileType@@@std@@@std@@AEAAPEAW4wxTextFileType@@QEAW42@AEBW42@@Z
0000000000091360	wxbase33u:fileconf.obj	??0wxFileConfig@@QEAA@AEBVwxString@@000JAEBVwxMBConv@@@Z
0000000000091d60	wxbase33u:fileconf.obj	??0wxFileConfigGroup@@QEAA@PEAV0@AEBVwxString@@PEAVwxFileConfig@@@Z
0000000000091e00	wxbase33u:fileconf.obj	??1wxFileConfig@@UEAA@XZ
0000000000091f20	wxbase33u:fileconf.obj	??1wxFileConfigGroup@@QEAA@XZ
00000000000920a0	wxbase33u:fileconf.obj	??1wxTextFile@@UEAA@XZ
00000000000920c0	wxbase33u:fileconf.obj	??_EwxFileConfig@@UEAAPEAXI@Z
00000000000920c0	wxbase33u:fileconf.obj	??_GwxFileConfig@@UEAAPEAXI@Z
0000000000092200	wxbase33u:fileconf.obj	?Add@?$wxBaseSortedArray@PEAVwxFileConfigGroup@@V?$wxSortedArray_SortFunction@PEAVwxFileConfigGroup@@@@@@QEAA_KPEAVwxFileConfigGroup@@@Z
00000000000922b0	wxbase33u:fileconf.obj	?AddEntry@wxFileConfigGroup@@QEAAPEAVwxFileConfigEntry@@AEBVwxString@@H@Z
0000000000092500	wxbase33u:fileconf.obj	?CleanUp@wxFileConfig@@AEAAXXZ
0000000000092580	wxbase33u:fileconf.obj	?CompareEntries@@YAHPEAVwxFileConfigEntry@@0@Z
0000000000092590	wxbase33u:fileconf.obj	?CompareGroups@@YAHPEAVwxFileConfigGroup@@0@Z
00000000000925a0	wxbase33u:fileconf.obj	?DeleteAll@wxFileConfig@@UEAA_NXZ
0000000000092e50	wxbase33u:fileconf.obj	?DeleteEntry@wxFileConfig@@UEAA_NAEBVwxString@@_N@Z
0000000000092f70	wxbase33u:fileconf.obj	?DeleteEntry@wxFileConfigGroup@@QEAA_NAEBVwxString@@@Z
0000000000093170	wxbase33u:fileconf.obj	?DeleteGroup@wxFileConfig@@UEAA_NAEBVwxString@@@Z
0000000000093230	wxbase33u:fileconf.obj	?DeleteSubgroup@wxFileConfigGroup@@AEAA_NPEAV1@@Z
0000000000095a50	wxbase33u:fileconf.obj	?DoReadBinary@wxFileConfig@@MEBA_NAEBVwxString@@PEAVwxMemoryBuffer@@@Z
0000000000095c40	wxbase33u:fileconf.obj	?DoReadLong@wxFileConfig@@MEBA_NAEBVwxString@@PEAJ@Z
0000000000095d20	wxbase33u:fileconf.obj	?DoReadString@wxFileConfig@@MEBA_NAEBVwxString@@PEAV2@@Z
0000000000095dd0	wxbase33u:fileconf.obj	?DoSetPath@wxFileConfig@@AEAA_NAEBVwxString@@_N@Z
00000000000961f0	wxbase33u:fileconf.obj	?DoWriteBinary@wxFileConfig@@MEAA_NAEBVwxString@@AEBVwxMemoryBuffer@@@Z
0000000000096350	wxbase33u:fileconf.obj	?DoWriteLong@wxFileConfig@@MEAA_NAEBVwxString@@J@Z
0000000000096490	wxbase33u:fileconf.obj	?DoWriteString@wxFileConfig@@MEAA_NAEBVwxString@@0@Z
0000000000097c70	wxbase33u:fileconf.obj	?FilterInEntryName@@YA?AVwxString@@AEBV1@@Z
0000000000097d00	wxbase33u:fileconf.obj	?FilterInValue@@YA?AVwxString@@AEBV1@@Z
0000000000098d30	wxbase33u:fileconf.obj	?FilterOutEntryName@@YA?AVwxString@@AEBV1@@Z
0000000000098df0	wxbase33u:fileconf.obj	?FilterOutValue@@YA?AVwxString@@AEBV1@@Z
0000000000099170	wxbase33u:fileconf.obj	?FindEntry@wxFileConfigGroup@@QEBAPEAVwxFileConfigEntry@@AEBVwxString@@@Z
00000000000991f0	wxbase33u:fileconf.obj	?FindSubgroup@wxFileConfigGroup@@QEBAPEAV1@AEBVwxString@@@Z
0000000000099270	wxbase33u:fileconf.obj	?Flush@wxFileConfig@@UEAA_N_N@Z
000000000009a1d0	wxbase33u:fileconf.obj	?GetClassInfo@wxFileConfig@@UEBAPEAVwxClassInfo@@XZ
000000000009a1e0	wxbase33u:fileconf.obj	?GetFullName@wxFileConfigGroup@@QEBA?AVwxString@@XZ
000000000009a310	wxbase33u:fileconf.obj	?GetGroupLine@wxFileConfigGroup@@QEAAPEAVwxFileConfigLineList@@XZ
000000000009b0e0	wxbase33u:fileconf.obj	?GetLastEntryLine@wxFileConfigGroup@@QEAAPEAVwxFileConfigLineList@@XZ
000000000009b5e0	wxbase33u:fileconf.obj	?GetLastGroupLine@wxFileConfigGroup@@QEAAPEAVwxFileConfigLineList@@XZ
000000000009b660	wxbase33u:fileconf.obj	?GetLocalDir@wxFileConfig@@CA?AVwxString@@H@Z
000000000009b740	wxbase33u:fileconf.obj	?GetNextEntry@wxFileConfig@@UEBA_NAEAVwxString@@AEAJ@Z
000000000009b7b0	wxbase33u:fileconf.obj	?GetNextGroup@wxFileConfig@@UEBA_NAEAVwxString@@AEAJ@Z
000000000009b820	wxbase33u:fileconf.obj	?GetNumberOfEntries@wxFileConfig@@UEBA_K_N@Z
000000000009b8d0	wxbase33u:fileconf.obj	?GetNumberOfGroups@wxFileConfig@@UEBA_K_N@Z
000000000009b970	wxbase33u:fileconf.obj	?GetPath@wxFileConfig@@UEBAAEBVwxString@@XZ
000000000009b980	wxbase33u:fileconf.obj	?HasEntry@wxFileConfig@@UEBA_NAEBVwxString@@@Z
000000000009bbd0	wxbase33u:fileconf.obj	?HasGroup@wxFileConfig@@UEBA_NAEBVwxString@@@Z
000000000009bc70	wxbase33u:fileconf.obj	?ImplStr@wxString@@CA?BU?$SubstrBufFromType@PEB_W@1@PEB_W_K@Z
000000000009bd00	wxbase33u:fileconf.obj	?Init@wxFileConfig@@AEAAXXZ
000000000009cce0	wxbase33u:fileconf.obj	?LineListAppend@wxFileConfig@@QEAAPEAVwxFileConfigLineList@@AEBVwxString@@@Z
000000000009e660	wxbase33u:fileconf.obj	?LineListInsert@wxFileConfig@@QEAAPEAVwxFileConfigLineList@@AEBVwxString@@PEAV2@@Z
00000000000a02c0	wxbase33u:fileconf.obj	?LineListRemove@wxFileConfig@@QEAAXPEAVwxFileConfigLineList@@@Z
00000000000a1c00	wxbase33u:fileconf.obj	?Parse@wxFileConfig@@AEAAXAEBVwxTextBuffer@@_N@Z
00000000000a43f0	wxbase33u:fileconf.obj	?Remove@?$wxBaseArray@PEAVwxFileConfigGroup@@V?$wxSortedArray_SortFunction@PEAVwxFileConfigGroup@@@@@@QEAAXPEAVwxFileConfigGroup@@@Z
00000000000a44c0	wxbase33u:fileconf.obj	?RenameEntry@wxFileConfig@@UEAA_NAEBVwxString@@0@Z
00000000000a4600	wxbase33u:fileconf.obj	?RenameGroup@wxFileConfig@@UEAA_NAEBVwxString@@0@Z
00000000000a4740	wxbase33u:fileconf.obj	?Save@wxFileConfig@@UEAA_NAEAVwxOutputStream@@AEBVwxMBConv@@@Z
00000000000a50f0	wxbase33u:fileconf.obj	?SetLastEntry@wxFileConfigGroup@@QEAAXPEAVwxFileConfigEntry@@@Z
00000000000a5180	wxbase33u:fileconf.obj	?SetLine@wxFileConfigEntry@@QEAAXPEAVwxFileConfigLineList@@@Z
00000000000a5910	wxbase33u:fileconf.obj	?SetLine@wxFileConfigGroup@@QEAAXPEAVwxFileConfigLineList@@@Z
00000000000a59a0	wxbase33u:fileconf.obj	?SetPath@wxFileConfig@@UEAAXAEBVwxString@@@Z
00000000000a59b0	wxbase33u:fileconf.obj	?SetValue@wxFileConfigEntry@@QEAAXAEBVwxString@@_N@Z
00000000000a6330	wxbase33u:fileconf.obj	?UpdateGroupAndSubgroupsLines@wxFileConfigGroup@@AEAAXXZ
00000000000a6590	wxbase33u:fileconf.obj	?allocate@?$allocator@W4wxTextFileType@@@std@@QEAAPEAW4wxTextFileType@@_K@Z
00000000000a6600	wxbase33u:fileconf.obj	?deallocate@?$allocator@W4wxTextFileType@@@std@@QEAAXQEAW4wxTextFileType@@_K@Z
00000000000a6650	wxbase33u:registry.obj	??$Log@VwxCStrData@@@wxLogger@@QEAAXJAEBVwxFormatString@@VwxCStrData@@@Z
00000000000a6740	wxbase33u:registry.obj	??$Log@VwxString@@V1@@wxLogger@@QEAAXAEBVwxFormatString@@VwxString@@1@Z
00000000000a68b0	wxbase33u:registry.obj	??0wxRegKey@@QEAA@AEBV0@AEBVwxString@@@Z
00000000000a6990	wxbase33u:registry.obj	??0wxRegKey@@QEAA@W4StdKey@0@AEBVwxString@@W4WOW64ViewMode@0@@Z
00000000000a6a30	wxbase33u:registry.obj	??0wxRegKey@@QEAA@W4WOW64ViewMode@0@@Z
00000000000a6a70	wxbase33u:registry.obj	??1wxRegKey@@QEAA@XZ
00000000000a6aa0	wxbase33u:registry.obj	?Close@wxRegKey@@QEAA_NXZ
00000000000a7360	wxbase33u:registry.obj	?Copy@wxRegKey@@QEAA_NAEAV1@@Z
00000000000a8b10	wxbase33u:registry.obj	?CopyValue@wxRegKey@@QEAA_NAEBVwxString@@AEAV1@0@Z
00000000000a9180	wxbase33u:registry.obj	$LN434
00000000000a91b0	wxbase33u:registry.obj	?Create@wxRegKey@@QEAA_N_N@Z
00000000000a96f0	wxbase33u:registry.obj	?DeleteKey@wxRegKey@@QEAA_NAEBVwxString@@@Z
00000000000a9780	wxbase33u:registry.obj	?DeleteSelf@wxRegKey@@QEAA_NXZ
00000000000aa9e0	wxbase33u:registry.obj	?DeleteValue@wxRegKey@@QEAA_NAEBVwxString@@@Z
00000000000ab050	wxbase33u:registry.obj	?Exists@wxRegKey@@QEBA_NXZ
00000000000ab070	wxbase33u:registry.obj	?ExtractKeyName@wxRegKey@@SA?AW4StdKey@1@AEAVwxString@@@Z
00000000000ab2e0	wxbase33u:registry.obj	?GetFullName@@YA?AVwxString@@PEBVwxRegKey@@AEBV1@@Z
00000000000ab370	wxbase33u:registry.obj	?GetMSWViewFlags@@YAJW4WOW64ViewMode@wxRegKey@@@Z
00000000000ab3e0	wxbase33u:registry.obj	?GetName@wxRegKey@@QEBA?AVwxString@@_N@Z
00000000000ab4b0	wxbase33u:registry.obj	?GetNextKey@wxRegKey@@QEBA_NAEAVwxString@@AEAJ@Z
00000000000abac0	wxbase33u:registry.obj	?GetNextValue@wxRegKey@@QEBA_NAEAVwxString@@AEAJ@Z
00000000000ac0e0	wxbase33u:registry.obj	?GetStdKeyFromHkey@wxRegKey@@SA?AW4StdKey@1@PEAX@Z
00000000000ac160	wxbase33u:registry.obj	?GetTypeString@@YA?AVwxString@@K@Z
00000000000ac4fc	wxbase33u:registry.obj	$LN273
00000000000ac530	wxbase33u:registry.obj	?GetValueType@wxRegKey@@QEBA?AW4ValueType@1@AEBVwxString@@@Z
00000000000ace20	wxbase33u:registry.obj	?HasSubKey@wxRegKey@@QEBA_NAEBVwxString@@@Z
00000000000aced0	wxbase33u:registry.obj	?HasSubkeys@wxRegKey@@QEBA_NXZ
00000000000ad010	wxbase33u:registry.obj	?HasValue@wxRegKey@@QEBA_NAEBVwxString@@@Z
00000000000ad0e0	wxbase33u:registry.obj	?HasValues@wxRegKey@@QEBA_NXZ
00000000000ad220	wxbase33u:registry.obj	?IsNumericValue@wxRegKey@@QEBA_NAEBVwxString@@@Z
00000000000ad250	wxbase33u:registry.obj	?KeyExists@@YA_NPEAXAEBVwxString@@W4WOW64ViewMode@wxRegKey@@@Z
00000000000ad2d0	wxbase33u:registry.obj	?Open@wxRegKey@@QEAA_NW4AccessMode@1@@Z
00000000000adbf0	wxbase33u:registry.obj	?QueryValue64@wxRegKey@@QEBA_NAEBVwxString@@PEA_J@Z
00000000000ae7f0	wxbase33u:registry.obj	?QueryValue@wxRegKey@@QEBA_NAEBVwxString@@AEAV2@_N@Z
00000000000afb34	wxbase33u:registry.obj	$LN1376
00000000000afb70	wxbase33u:registry.obj	?QueryValue@wxRegKey@@QEBA_NAEBVwxString@@AEAVwxMemoryBuffer@@@Z
00000000000b04d0	wxbase33u:registry.obj	?QueryValue@wxRegKey@@QEBA_NAEBVwxString@@PEAJ@Z
00000000000b10c0	wxbase33u:registry.obj	?Rename@wxRegKey@@QEAA_NAEBVwxString@@@Z
00000000000b23a0	wxbase33u:registry.obj	?RenameValue@wxRegKey@@QEAA_NAEBVwxString@@0@Z
00000000000b3300	wxbase33u:registry.obj	?SetName@wxRegKey@@QEAAXAEBV1@AEBVwxString@@@Z
00000000000b33f0	wxbase33u:registry.obj	?SetName@wxRegKey@@QEAAXW4StdKey@1@AEBVwxString@@@Z
00000000000b3490	wxbase33u:registry.obj	?SetValue64@wxRegKey@@QEAA_NAEBVwxString@@_J@Z
00000000000b3ce0	wxbase33u:registry.obj	?SetValue@wxRegKey@@QEAA_NAEBVwxString@@0@Z
00000000000b4540	wxbase33u:registry.obj	?SetValue@wxRegKey@@QEAA_NAEBVwxString@@AEBVwxMemoryBuffer@@@Z
00000000000b4d90	wxbase33u:registry.obj	?SetValue@wxRegKey@@QEAA_NAEBVwxString@@J@Z
00000000000b55e0	wxbase33u:txtstrm.obj	??0wxTextInputStream@@QEAA@AEAVwxInputStream@@AEBVwxString@@AEBVwxMBConv@@@Z
00000000000b5630	wxbase33u:txtstrm.obj	??0wxTextOutputStream@@QEAA@AEAVwxOutputStream@@W4wxEOL@@AEBVwxMBConv@@@Z
00000000000b5680	wxbase33u:txtstrm.obj	??1wxTextInputStream@@QEAA@XZ
00000000000b56c0	wxbase33u:txtstrm.obj	??1wxTextOutputStream@@UEAA@XZ
00000000000b56e0	wxbase33u:txtstrm.obj	??5wxTextInputStream@@QEAAAEAV0@AEA_W@Z
00000000000b5710	wxbase33u:txtstrm.obj	??6wxTextOutputStream@@QEAAAEAV0@_W@Z
00000000000b5730	wxbase33u:txtstrm.obj	??_EwxTextOutputStream@@UEAAPEAXI@Z
00000000000b5730	wxbase33u:txtstrm.obj	??_GwxTextOutputStream@@UEAAPEAXI@Z
00000000000b5780	wxbase33u:txtstrm.obj	?GetChar@wxTextInputStream@@QEAA_WXZ
00000000000b5910	wxbase33u:txtstrm.obj	?PutChar@wxTextOutputStream@@QEAAAEAV1@_W@Z
00000000000b5b90	wxbase33u:txtstrm.obj	?Read32@wxTextInputStream@@QEAAIH@Z
00000000000b5ce0	wxbase33u:txtstrm.obj	?Read8@wxTextInputStream@@QEAAEH@Z
00000000000b5cf0	wxbase33u:txtstrm.obj	?ReadDouble@wxTextInputStream@@QEAANXZ
00000000000b5df0	wxbase33u:txtstrm.obj	?ReadLine@wxTextInputStream@@QEAA?AVwxString@@XZ
00000000000b5f00	wxbase33u:txtstrm.obj	?ReadWord@wxTextInputStream@@QEAA?AVwxString@@XZ
00000000000b61a0	wxbase33u:txtstrm.obj	?Write32@wxTextOutputStream@@QEAAXI@Z
00000000000b6330	wxbase33u:txtstrm.obj	?Write8@wxTextOutputStream@@QEAAXE@Z
00000000000b64c0	wxbase33u:txtstrm.obj	?WriteDouble@wxTextOutputStream@@UEAAXN@Z
00000000000b6650	wxbase33u:txtstrm.obj	?WriteString@wxTextOutputStream@@UEAAXAEBVwxString@@@Z
00000000000b68b0	wxbase33u:ipcbase.obj	??0wxConnectionBase@@QEAA@XZ
00000000000b68e0	wxbase33u:ipcbase.obj	??1wxConnectionBase@@UEAA@XZ
00000000000b6920	wxbase33u:ipcbase.obj	??_EwxConnectionBase@@UEAAPEAXI@Z
00000000000b6920	wxbase33u:ipcbase.obj	??_GwxConnectionBase@@UEAAPEAXI@Z
00000000000b6980	wxbase33u:ipcbase.obj	?GetBufferAtLeast@wxConnectionBase@@QEAAPEAX_K@Z
00000000000b69e0	wxbase33u:ipcbase.obj	?GetClassInfo@wxConnectionBase@@UEBAPEAVwxClassInfo@@XZ
00000000000b69f0	wxbase33u:ipcbase.obj	?GetTextFromData@wxConnectionBase@@SA?AVwxString@@PEBX_KW4wxIPCFormat@@@Z
00000000000b6e50	wxbase33u:variant.obj	?GetAssociatedType@?$wxAnyToVariantRegistrationImpl@N@@UEAAPEAVwxAnyValueType@@XZ
00000000000b6e60	wxbase33u:variant.obj	??_E?$wxAnyToVariantRegistrationImpl@N@@UEAAPEAXI@Z
00000000000b6e60	wxbase33u:variant.obj	??_E?$wxAnyToVariantRegistrationImpl@PEAVwxObject@@@@UEAAPEAXI@Z
00000000000b6e60	wxbase33u:variant.obj	??_E?$wxAnyToVariantRegistrationImpl@PEAX@@UEAAPEAXI@Z
00000000000b6e60	wxbase33u:variant.obj	??_E?$wxAnyToVariantRegistrationImpl@PEBD@@UEAAPEAXI@Z
00000000000b6e60	wxbase33u:variant.obj	??_E?$wxAnyToVariantRegistrationImpl@PEB_W@@UEAAPEAXI@Z
00000000000b6e60	wxbase33u:variant.obj	??_E?$wxAnyToVariantRegistrationImpl@VwxAnyList@@@@UEAAPEAXI@Z
00000000000b6e60	wxbase33u:variant.obj	??_E?$wxAnyToVariantRegistrationImpl@VwxArrayString@@@@UEAAPEAXI@Z
00000000000b6e60	wxbase33u:variant.obj	??_E?$wxAnyToVariantRegistrationImpl@VwxDateTime@@@@UEAAPEAXI@Z
00000000000b6e60	wxbase33u:variant.obj	??_E?$wxAnyToVariantRegistrationImpl@VwxString@@@@UEAAPEAXI@Z
00000000000b6e60	wxbase33u:variant.obj	??_E?$wxAnyToVariantRegistrationImpl@VwxUniChar@@@@UEAAPEAXI@Z
00000000000b6e60	wxbase33u:variant.obj	??_E?$wxAnyToVariantRegistrationImpl@_J@@UEAAPEAXI@Z
00000000000b6e60	wxbase33u:variant.obj	??_E?$wxAnyToVariantRegistrationImpl@_K@@UEAAPEAXI@Z
00000000000b6e60	wxbase33u:variant.obj	??_E?$wxAnyToVariantRegistrationImpl@_N@@UEAAPEAXI@Z
00000000000b6e60	wxbase33u:variant.obj	??_EwxAnyToVariantRegistration@@UEAAPEAXI@Z
00000000000b6e60	wxbase33u:variant.obj	??_G?$wxAnyToVariantRegistrationImpl@N@@UEAAPEAXI@Z
00000000000b6e60	wxbase33u:variant.obj	??_G?$wxAnyToVariantRegistrationImpl@PEAVwxObject@@@@UEAAPEAXI@Z
00000000000b6e60	wxbase33u:variant.obj	??_G?$wxAnyToVariantRegistrationImpl@PEAX@@UEAAPEAXI@Z
00000000000b6e60	wxbase33u:variant.obj	??_G?$wxAnyToVariantRegistrationImpl@PEBD@@UEAAPEAXI@Z
00000000000b6e60	wxbase33u:variant.obj	??_G?$wxAnyToVariantRegistrationImpl@PEB_W@@UEAAPEAXI@Z
00000000000b6e60	wxbase33u:variant.obj	??_G?$wxAnyToVariantRegistrationImpl@VwxAnyList@@@@UEAAPEAXI@Z
00000000000b6e60	wxbase33u:variant.obj	??_G?$wxAnyToVariantRegistrationImpl@VwxArrayString@@@@UEAAPEAXI@Z
00000000000b6e60	wxbase33u:variant.obj	??_G?$wxAnyToVariantRegistrationImpl@VwxDateTime@@@@UEAAPEAXI@Z
00000000000b6e60	wxbase33u:variant.obj	??_G?$wxAnyToVariantRegistrationImpl@VwxString@@@@UEAAPEAXI@Z
00000000000b6e60	wxbase33u:variant.obj	??_G?$wxAnyToVariantRegistrationImpl@VwxUniChar@@@@UEAAPEAXI@Z
00000000000b6e60	wxbase33u:variant.obj	??_G?$wxAnyToVariantRegistrationImpl@_J@@UEAAPEAXI@Z
00000000000b6e60	wxbase33u:variant.obj	??_G?$wxAnyToVariantRegistrationImpl@_K@@UEAAPEAXI@Z
00000000000b6e60	wxbase33u:variant.obj	??_G?$wxAnyToVariantRegistrationImpl@_N@@UEAAPEAXI@Z
00000000000b6e60	wxbase33u:variant.obj	??_GwxAnyToVariantRegistration@@UEAAPEAXI@Z
00000000000b6e90	wxbase33u:variant.obj	?GetAssociatedType@?$wxAnyToVariantRegistrationImpl@_N@@UEAAPEAVwxAnyValueType@@XZ
00000000000b6ea0	wxbase33u:variant.obj	?GetAssociatedType@?$wxAnyToVariantRegistrationImpl@VwxUniChar@@@@UEAAPEAVwxAnyValueType@@XZ
00000000000b6eb0	wxbase33u:variant.obj	?GetAssociatedType@?$wxAnyToVariantRegistrationImpl@VwxString@@@@UEAAPEAVwxAnyValueType@@XZ
00000000000b6ec0	wxbase33u:variant.obj	?GetAssociatedType@?$wxAnyToVariantRegistrationImpl@PEBD@@UEAAPEAVwxAnyValueType@@XZ
00000000000b6ed0	wxbase33u:variant.obj	?GetAssociatedType@?$wxAnyToVariantRegistrationImpl@PEB_W@@UEAAPEAVwxAnyValueType@@XZ
00000000000b6ee0	wxbase33u:variant.obj	?GetAssociatedType@?$wxAnyToVariantRegistrationImpl@PEAVwxObject@@@@UEAAPEAVwxAnyValueType@@XZ
00000000000b6ef0	wxbase33u:variant.obj	?GetAssociatedType@?$wxAnyToVariantRegistrationImpl@PEAX@@UEAAPEAVwxAnyValueType@@XZ
00000000000b6f00	wxbase33u:variant.obj	?GetAssociatedType@?$wxAnyToVariantRegistrationImpl@VwxDateTime@@@@UEAAPEAVwxAnyValueType@@XZ
00000000000b6f10	wxbase33u:variant.obj	?GetAssociatedType@?$wxAnyToVariantRegistrationImpl@VwxArrayString@@@@UEAAPEAVwxAnyValueType@@XZ
00000000000b6f20	wxbase33u:variant.obj	?GetAssociatedType@?$wxAnyToVariantRegistrationImpl@_J@@UEAAPEAVwxAnyValueType@@XZ
00000000000b6f30	wxbase33u:variant.obj	?GetAssociatedType@?$wxAnyToVariantRegistrationImpl@_K@@UEAAPEAVwxAnyValueType@@XZ
00000000000b6f40	wxbase33u:variant.obj	?GetAssociatedType@?$wxAnyToVariantRegistrationImpl@VwxAnyList@@@@UEAAPEAVwxAnyValueType@@XZ
00000000000b6f50	wxbase33u:variant.obj	?CopyBuffer@?$wxAnyValueTypeImplBase@VwxAnyList@@@@UEBAXAEBTwxAnyValueBuffer@@AEAT2@@Z
00000000000b6fb0	wxbase33u:variant.obj	?IsSameType@?$wxAnyValueTypeImpl@VwxAnyList@@@@UEBA_NPEBVwxAnyValueType@@@Z
00000000000b7000	wxbase33u:variant.obj	?CopyBuffer@?$wxAnyValueTypeImplBase@VwxArrayString@@@@UEBAXAEBTwxAnyValueBuffer@@AEAT2@@Z
00000000000b7060	wxbase33u:variant.obj	?IsSameType@?$wxAnyValueTypeImpl@VwxArrayString@@@@UEBA_NPEBVwxAnyValueType@@@Z
00000000000b70b0	wxbase33u:variant.obj	?IsSameType@?$wxAnyValueTypeImpl@PEAX@@UEBA_NPEBVwxAnyValueType@@@Z
00000000000b7100	wxbase33u:variant.obj	?IsSameType@?$wxAnyValueTypeImpl@PEAVwxObject@@@@UEBA_NPEBVwxAnyValueType@@@Z
00000000000b7150	wxbase33u:variant.obj	?CopyBuffer@?$wxAnyValueTypeImplBase@VwxUniChar@@@@UEBAXAEBTwxAnyValueBuffer@@AEAT2@@Z
00000000000b7160	wxbase33u:variant.obj	?IsSameType@?$wxAnyValueTypeImpl@VwxUniChar@@@@UEBA_NPEBVwxAnyValueType@@@Z
00000000000b71b0	wxbase33u:variant.obj	??0wxAnyList@@QEAA@AEBV0@@Z
00000000000b72f0	wxbase33u:variant.obj	??0wxVariant@@QEAA@AEBV0@@Z
00000000000b7370	wxbase33u:variant.obj	??0wxVariant@@QEAA@AEBVwxAny@@@Z
00000000000b76a0	wxbase33u:variant.obj	??0wxVariantDataList@@QEAA@AEBVwxVariantList@@@Z
00000000000b7720	wxbase33u:variant.obj	??1?$_List_node_insert_op2@V?$allocator@U?$_List_node@PEAVwxAny@@PEAX@std@@@std@@@std@@QEAA@XZ
00000000000b7770	wxbase33u:variant.obj	??1wxAnyList@@QEAA@XZ
00000000000b7840	wxbase33u:variant.obj	??1wxVariant@@UEAA@XZ
00000000000b7890	wxbase33u:variant.obj	??1wxVariantData@@MEAA@XZ
00000000000b78a0	wxbase33u:variant.obj	??1wxVariantDataList@@UEAA@XZ
00000000000b7920	wxbase33u:variant.obj	??1wxVariantList@@QEAA@XZ
00000000000b7980	wxbase33u:variant.obj	??4wxVariant@@QEAAXAEBV0@@Z
00000000000b79d0	wxbase33u:variant.obj	??4wxVariant@@QEAAXJ@Z
00000000000b7b30	wxbase33u:variant.obj	??4wxVariant@@QEAAXVwxLongLongNative@@@Z
00000000000b7c90	wxbase33u:variant.obj	??8wxVariant@@QEBA_NAEBV0@@Z
00000000000b7e50	wxbase33u:variant.obj	??_E?$DataHolder@VwxAnyList@@@?$wxAnyValueTypeOpsGeneric@VwxAnyList@@@wxPrivate@@UEAAPEAXI@Z
00000000000b7e50	wxbase33u:variant.obj	??_G?$DataHolder@VwxAnyList@@@?$wxAnyValueTypeOpsGeneric@VwxAnyList@@@wxPrivate@@UEAAPEAXI@Z
00000000000b7ea0	wxbase33u:variant.obj	??_E?$DataHolder@VwxArrayString@@@?$wxAnyValueTypeOpsGeneric@VwxArrayString@@@wxPrivate@@UEAAPEAXI@Z
00000000000b7ea0	wxbase33u:variant.obj	??_G?$DataHolder@VwxArrayString@@@?$wxAnyValueTypeOpsGeneric@VwxArrayString@@@wxPrivate@@UEAAPEAXI@Z
00000000000b7ef0	wxbase33u:variant.obj	??_EwxVariant@@UEAAPEAXI@Z
00000000000b7ef0	wxbase33u:variant.obj	??_GwxVariant@@UEAAPEAXI@Z
00000000000b7f60	wxbase33u:variant.obj	??_EwxVariantDataArrayString@@UEAAPEAXI@Z
00000000000b7f60	wxbase33u:variant.obj	??_GwxVariantDataArrayString@@UEAAPEAXI@Z
00000000000b7fb0	wxbase33u:variant.obj	??_EwxVariantDataBool@@UEAAPEAXI@Z
00000000000b7fb0	wxbase33u:variant.obj	??_EwxVariantDataChar@@UEAAPEAXI@Z
00000000000b7fb0	wxbase33u:variant.obj	??_EwxVariantDataDateTime@@UEAAPEAXI@Z
00000000000b7fb0	wxbase33u:variant.obj	??_EwxVariantDataLong@@UEAAPEAXI@Z
00000000000b7fb0	wxbase33u:variant.obj	??_EwxVariantDataLongLong@@UEAAPEAXI@Z
00000000000b7fb0	wxbase33u:variant.obj	??_EwxVariantDataULongLong@@UEAAPEAXI@Z
00000000000b7fb0	wxbase33u:variant.obj	??_EwxVariantDataVoidPtr@@UEAAPEAXI@Z
00000000000b7fb0	wxbase33u:variant.obj	??_EwxVariantDataWxObjectPtr@@UEAAPEAXI@Z
00000000000b7fb0	wxbase33u:variant.obj	??_EwxVariantDoubleData@@UEAAPEAXI@Z
00000000000b7fb0	wxbase33u:variant.obj	??_GwxVariantDataBool@@UEAAPEAXI@Z
00000000000b7fb0	wxbase33u:variant.obj	??_GwxVariantDataChar@@UEAAPEAXI@Z
00000000000b7fb0	wxbase33u:variant.obj	??_GwxVariantDataDateTime@@UEAAPEAXI@Z
00000000000b7fb0	wxbase33u:variant.obj	??_GwxVariantDataLong@@UEAAPEAXI@Z
00000000000b7fb0	wxbase33u:variant.obj	??_GwxVariantDataLongLong@@UEAAPEAXI@Z
00000000000b7fb0	wxbase33u:variant.obj	??_GwxVariantDataULongLong@@UEAAPEAXI@Z
00000000000b7fb0	wxbase33u:variant.obj	??_GwxVariantDataVoidPtr@@UEAAPEAXI@Z
00000000000b7fb0	wxbase33u:variant.obj	??_GwxVariantDataWxObjectPtr@@UEAAPEAXI@Z
00000000000b7fb0	wxbase33u:variant.obj	??_GwxVariantDoubleData@@UEAAPEAXI@Z
00000000000b7fe0	wxbase33u:variant.obj	??_EwxVariantDataList@@UEAAPEAXI@Z
00000000000b7fe0	wxbase33u:variant.obj	??_GwxVariantDataList@@UEAAPEAXI@Z
00000000000b8020	wxbase33u:variant.obj	??_EwxVariantDataString@@UEAAPEAXI@Z
00000000000b8020	wxbase33u:variant.obj	??_GwxVariantDataString@@UEAAPEAXI@Z
00000000000b8080	wxbase33u:variant.obj	?Clear@wxVariantDataList@@QEAAXXZ
00000000000b8110	wxbase33u:variant.obj	?Clear@wxVariantList@@QEAAXXZ
00000000000b81a0	wxbase33u:variant.obj	?Clone@wxVariantDataArrayString@@UEBAPEAVwxVariantData@@XZ
00000000000b81f0	wxbase33u:variant.obj	?Clone@wxVariantDataBool@@UEBAPEAVwxVariantData@@XZ
00000000000b8230	wxbase33u:variant.obj	?Clone@wxVariantDataChar@@UEBAPEAVwxVariantData@@XZ
00000000000b8270	wxbase33u:variant.obj	?Clone@wxVariantDataDateTime@@UEBAPEAVwxVariantData@@XZ
00000000000b82b0	wxbase33u:variant.obj	?Clone@wxVariantDataList@@UEBAPEAVwxVariantData@@XZ
00000000000b82e0	wxbase33u:variant.obj	?Clone@wxVariantDataLong@@UEBAPEAVwxVariantData@@XZ
00000000000b8320	wxbase33u:variant.obj	?Clone@wxVariantDataLongLong@@UEBAPEAVwxVariantData@@XZ
00000000000b8360	wxbase33u:variant.obj	?Clone@wxVariantDataString@@UEBAPEAVwxVariantData@@XZ
00000000000b83d0	wxbase33u:variant.obj	?Clone@wxVariantDataULongLong@@UEBAPEAVwxVariantData@@XZ
00000000000b8410	wxbase33u:variant.obj	?Clone@wxVariantDataVoidPtr@@UEBAPEAVwxVariantData@@XZ
00000000000b8450	wxbase33u:variant.obj	?Clone@wxVariantDataWxObjectPtr@@UEBAPEAVwxVariantData@@XZ
00000000000b8490	wxbase33u:variant.obj	?Clone@wxVariantDoubleData@@UEBAPEAVwxVariantData@@XZ
00000000000b84d0	wxbase33u:variant.obj	?CloneRefData@wxVariant@@MEBAPEAVwxRefCounter@@PEBV2@@Z
00000000000b84e0	wxbase33u:variant.obj	?CreateRefData@wxVariant@@MEBAPEAVwxRefCounter@@XZ
00000000000b8540	wxbase33u:variant.obj	?DoAs@?$wxAnyAsImpl@VwxString@@@wxPrivate@@SA?AVwxString@@AEBVwxAny@@@Z
00000000000b8720	wxbase33u:variant.obj	?Eq@wxVariantDataArrayString@@UEBA_NAEAVwxVariantData@@@Z
00000000000b88a0	wxbase33u:variant.obj	?Eq@wxVariantDataBool@@UEBA_NAEAVwxVariantData@@@Z
00000000000b8970	wxbase33u:variant.obj	?Eq@wxVariantDataChar@@UEBA_NAEAVwxVariantData@@@Z
00000000000b8a40	wxbase33u:variant.obj	?Eq@wxVariantDataDateTime@@UEBA_NAEAVwxVariantData@@@Z
00000000000b8b10	wxbase33u:variant.obj	?Eq@wxVariantDataList@@UEBA_NAEAVwxVariantData@@@Z
00000000000b8ca0	wxbase33u:variant.obj	?Eq@wxVariantDataLong@@UEBA_NAEAVwxVariantData@@@Z
00000000000b8d70	wxbase33u:variant.obj	?Eq@wxVariantDataLongLong@@UEBA_NAEAVwxVariantData@@@Z
00000000000b8e40	wxbase33u:variant.obj	?Eq@wxVariantDataString@@UEBA_NAEAVwxVariantData@@@Z
00000000000b8f30	wxbase33u:variant.obj	?Eq@wxVariantDataULongLong@@UEBA_NAEAVwxVariantData@@@Z
00000000000b9000	wxbase33u:variant.obj	?Eq@wxVariantDataVoidPtr@@UEBA_NAEAVwxVariantData@@@Z
00000000000b90d0	wxbase33u:variant.obj	?Eq@wxVariantDataWxObjectPtr@@UEBA_NAEAVwxVariantData@@@Z
00000000000b91e0	wxbase33u:variant.obj	?Eq@wxVariantDoubleData@@UEBA_NAEAVwxVariantData@@@Z
00000000000b92c0	wxbase33u:variant.obj	?GetAsAny@wxVariantDataArrayString@@UEBA_NPEAVwxAny@@@Z
00000000000b9330	wxbase33u:variant.obj	?GetAsAny@wxVariantDataBool@@UEBA_NPEAVwxAny@@@Z
00000000000b9370	wxbase33u:variant.obj	?GetAsAny@wxVariantDataChar@@UEBA_NPEAVwxAny@@@Z
00000000000b93b0	wxbase33u:variant.obj	?GetAsAny@wxVariantDataDateTime@@UEBA_NPEAVwxAny@@@Z
00000000000b93f0	wxbase33u:variant.obj	?GetAsAny@wxVariantDataList@@UEBA_NPEAVwxAny@@@Z
00000000000b9750	wxbase33u:variant.obj	?GetAsAny@wxVariantDataLong@@UEBA_NPEAVwxAny@@@Z
00000000000b9790	wxbase33u:variant.obj	?GetAsAny@wxVariantDataLongLong@@UEBA_NPEAVwxAny@@@Z
00000000000b97d0	wxbase33u:variant.obj	?GetAsAny@wxVariantDataString@@UEBA_NPEAVwxAny@@@Z
00000000000b9850	wxbase33u:variant.obj	?GetAsAny@wxVariantDataULongLong@@UEBA_NPEAVwxAny@@@Z
00000000000b9890	wxbase33u:variant.obj	?GetAsAny@wxVariantDataVoidPtr@@UEBA_NPEAVwxAny@@@Z
00000000000b98d0	wxbase33u:variant.obj	?GetAsAny@wxVariantDataWxObjectPtr@@UEBA_NPEAVwxAny@@@Z
00000000000b9910	wxbase33u:variant.obj	?GetAsAny@wxVariantDoubleData@@UEBA_NPEAVwxAny@@@Z
00000000000b9950	wxbase33u:variant.obj	?GetClassInfo@wxVariant@@UEBAPEAVwxClassInfo@@XZ
00000000000b9960	wxbase33u:variant.obj	?GetType@wxVariantDataArrayString@@UEBA?AVwxString@@XZ
00000000000b99b0	wxbase33u:variant.obj	?GetType@wxVariantDataBool@@UEBA?AVwxString@@XZ
00000000000b9a00	wxbase33u:variant.obj	?GetType@wxVariantDataChar@@UEBA?AVwxString@@XZ
00000000000b9a50	wxbase33u:variant.obj	?GetType@wxVariantDataDateTime@@UEBA?AVwxString@@XZ
00000000000b9aa0	wxbase33u:variant.obj	?GetType@wxVariantDataList@@UEBA?AVwxString@@XZ
00000000000b9af0	wxbase33u:variant.obj	?GetType@wxVariantDataLong@@UEBA?AVwxString@@XZ
00000000000b9b40	wxbase33u:variant.obj	?GetType@wxVariantDataLongLong@@UEBA?AVwxString@@XZ
00000000000b9b90	wxbase33u:variant.obj	?GetType@wxVariantDataString@@UEBA?AVwxString@@XZ
00000000000b9be0	wxbase33u:variant.obj	?GetType@wxVariantDataULongLong@@UEBA?AVwxString@@XZ
00000000000b9c30	wxbase33u:variant.obj	?GetType@wxVariantDataVoidPtr@@UEBA?AVwxString@@XZ
00000000000b9c80	wxbase33u:variant.obj	?GetType@wxVariantDataWxObjectPtr@@UEBA?AVwxString@@XZ
00000000000b9d50	wxbase33u:variant.obj	?GetType@wxVariantDoubleData@@UEBA?AVwxString@@XZ
00000000000b9da0	wxbase33u:variant.obj	?GetValueClassInfo@wxVariantDataWxObjectPtr@@UEAAPEAVwxClassInfo@@XZ
00000000000b9dc0	wxbase33u:variant.obj	?MakeNull@wxVariant@@QEAAXXZ
00000000000b9dd0	wxbase33u:variant.obj	?Read@wxVariantDataArrayString@@UEAA_NAEAVwxString@@@Z
00000000000b9fd0	wxbase33u:variant.obj	?Read@wxVariantDataBool@@UEAA_NAEAV?$basic_istream@DU?$char_traits@D@std@@@std@@@Z
00000000000ba030	wxbase33u:variant.obj	?Read@wxVariantDataBool@@UEAA_NAEAVwxInputStream@@@Z
00000000000ba190	wxbase33u:variant.obj	?Read@wxVariantDataBool@@UEAA_NAEAVwxString@@@Z
00000000000ba1c0	wxbase33u:variant.obj	?Read@wxVariantDataChar@@UEAA_NAEAV?$basic_istream@DU?$char_traits@D@std@@@std@@@Z
00000000000ba220	wxbase33u:variant.obj	?Read@wxVariantDataChar@@UEAA_NAEAVwxInputStream@@@Z
00000000000ba380	wxbase33u:variant.obj	?Read@wxVariantDataChar@@UEAA_NAEAVwxString@@@Z
00000000000ba3a0	wxbase33u:variant.obj	?Read@wxVariantDataDateTime@@UEAA_NAEAVwxString@@@Z
00000000000ba430	wxbase33u:variant.obj	?Read@wxVariantDataList@@UEAA_NAEAV?$basic_istream@DU?$char_traits@D@std@@@std@@@Z
00000000000ba490	wxbase33u:variant.obj	?Read@wxVariantDataList@@UEAA_NAEAVwxString@@@Z
00000000000ba4f0	wxbase33u:variant.obj	?Read@wxVariantDataLong@@UEAA_NAEAV?$basic_istream@DU?$char_traits@D@std@@@std@@@Z
00000000000ba510	wxbase33u:variant.obj	?Read@wxVariantDataLong@@UEAA_NAEAVwxInputStream@@@Z
00000000000ba670	wxbase33u:variant.obj	?Read@wxVariantDataLong@@UEAA_NAEAVwxString@@@Z
00000000000ba6a0	wxbase33u:variant.obj	?Read@wxVariantDataLongLong@@UEAA_NAEAV?$basic_istream@DU?$char_traits@D@std@@@std@@@Z
00000000000ba700	wxbase33u:variant.obj	?Read@wxVariantDataLongLong@@UEAA_NAEAVwxInputStream@@@Z
00000000000ba880	wxbase33u:variant.obj	?Read@wxVariantDataLongLong@@UEAA_NAEAVwxString@@@Z
00000000000ba8c0	wxbase33u:variant.obj	?Read@wxVariantDataString@@UEAA_NAEAVwxInputStream@@@Z
00000000000baa60	wxbase33u:variant.obj	?Read@wxVariantDataString@@UEAA_NAEAVwxString@@@Z
00000000000baa90	wxbase33u:variant.obj	?Read@wxVariantDataULongLong@@UEAA_NAEAV?$basic_istream@DU?$char_traits@D@std@@@std@@@Z
00000000000baaf0	wxbase33u:variant.obj	?Read@wxVariantDataULongLong@@UEAA_NAEAVwxInputStream@@@Z
00000000000bac70	wxbase33u:variant.obj	?Read@wxVariantDataULongLong@@UEAA_NAEAVwxString@@@Z
00000000000bacb0	wxbase33u:variant.obj	?Read@wxVariantDoubleData@@UEAA_NAEAV?$basic_istream@DU?$char_traits@D@std@@@std@@@Z
00000000000bacd0	wxbase33u:variant.obj	?Read@wxVariantDoubleData@@UEAA_NAEAVwxInputStream@@@Z
00000000000bae30	wxbase33u:variant.obj	?Read@wxVariantDoubleData@@UEAA_NAEAVwxString@@@Z
00000000000bae50	wxbase33u:variant.obj	?SetData@wxVariant@@QEAAXPEAVwxVariantData@@@Z
00000000000bae80	wxbase33u:variant.obj	?SetValue@wxVariantDataList@@QEAAXAEBVwxVariantList@@@Z
00000000000bafc0	wxbase33u:variant.obj	?VariantDataFactory@wxVariantDataArrayString@@SAPEAVwxVariantData@@AEBVwxAny@@@Z
00000000000bb0c0	wxbase33u:variant.obj	?VariantDataFactory@wxVariantDataBool@@SAPEAVwxVariantData@@AEBVwxAny@@@Z
00000000000bb190	wxbase33u:variant.obj	?VariantDataFactory@wxVariantDataChar@@SAPEAVwxVariantData@@AEBVwxAny@@@Z
00000000000bb260	wxbase33u:variant.obj	?VariantDataFactory@wxVariantDataDateTime@@SAPEAVwxVariantData@@AEBVwxAny@@@Z
00000000000bb330	wxbase33u:variant.obj	?VariantDataFactory@wxVariantDataList@@SAPEAVwxVariantData@@AEBVwxAny@@@Z
00000000000bb5f0	wxbase33u:variant.obj	?VariantDataFactory@wxVariantDataLongLong@@SAPEAVwxVariantData@@AEBVwxAny@@@Z
00000000000bb6c0	wxbase33u:variant.obj	?VariantDataFactory@wxVariantDataString@@SAPEAVwxVariantData@@AEBVwxAny@@@Z
00000000000bb780	wxbase33u:variant.obj	?VariantDataFactory@wxVariantDataULongLong@@SAPEAVwxVariantData@@AEBVwxAny@@@Z
00000000000bb850	wxbase33u:variant.obj	?VariantDataFactory@wxVariantDataVoidPtr@@SAPEAVwxVariantData@@AEBVwxAny@@@Z
00000000000bb920	wxbase33u:variant.obj	?VariantDataFactory@wxVariantDataWxObjectPtr@@SAPEAVwxVariantData@@AEBVwxAny@@@Z
00000000000bb9f0	wxbase33u:variant.obj	?VariantDataFactory@wxVariantDoubleData@@SAPEAVwxVariantData@@AEBVwxAny@@@Z
00000000000bbac0	wxbase33u:variant.obj	?Write@wxVariantDataArrayString@@UEBA_NAEAVwxString@@@Z
00000000000bbb70	wxbase33u:variant.obj	?Write@wxVariantDataBool@@UEBA_NAEAV?$basic_ostream@DU?$char_traits@D@std@@@std@@@Z
00000000000bbb70	wxbase33u:variant.obj	?Write@wxVariantDataList@@UEBA_NAEAV?$basic_ostream@DU?$char_traits@D@std@@@std@@@Z
00000000000bbb70	wxbase33u:variant.obj	?Write@wxVariantDataLong@@UEBA_NAEAV?$basic_ostream@DU?$char_traits@D@std@@@std@@@Z
00000000000bbb70	wxbase33u:variant.obj	?Write@wxVariantDataLongLong@@UEBA_NAEAV?$basic_ostream@DU?$char_traits@D@std@@@std@@@Z
00000000000bbb70	wxbase33u:variant.obj	?Write@wxVariantDataULongLong@@UEBA_NAEAV?$basic_ostream@DU?$char_traits@D@std@@@std@@@Z
00000000000bbb70	wxbase33u:variant.obj	?Write@wxVariantDataVoidPtr@@UEBA_NAEAV?$basic_ostream@DU?$char_traits@D@std@@@std@@@Z
00000000000bbb70	wxbase33u:variant.obj	?Write@wxVariantDataWxObjectPtr@@UEBA_NAEAV?$basic_ostream@DU?$char_traits@D@std@@@std@@@Z
00000000000bbb70	wxbase33u:variant.obj	?Write@wxVariantDoubleData@@UEBA_NAEAV?$basic_ostream@DU?$char_traits@D@std@@@std@@@Z
00000000000bbd60	wxbase33u:variant.obj	?Write@wxVariantDataBool@@UEBA_NAEAVwxOutputStream@@@Z
00000000000bbe00	wxbase33u:variant.obj	?Write@wxVariantDataBool@@UEBA_NAEAVwxString@@@Z
00000000000bbee0	wxbase33u:variant.obj	?Write@wxVariantDataChar@@UEBA_NAEAV?$basic_ostream@DU?$char_traits@D@std@@@std@@@Z
00000000000bc050	wxbase33u:variant.obj	?Write@wxVariantDataChar@@UEBA_NAEAVwxOutputStream@@@Z
00000000000bc0f0	wxbase33u:variant.obj	?Write@wxVariantDataChar@@UEBA_NAEAVwxString@@@Z
00000000000bc190	wxbase33u:variant.obj	?Write@wxVariantDataDateTime@@UEBA_NAEAV?$basic_ostream@DU?$char_traits@D@std@@@std@@@Z
00000000000bc2f0	wxbase33u:variant.obj	?Write@wxVariantDataDateTime@@UEBA_NAEAVwxString@@@Z
00000000000bc3f0	wxbase33u:variant.obj	?Write@wxVariantDataList@@UEBA_NAEAVwxString@@@Z
00000000000bc650	wxbase33u:variant.obj	?Write@wxVariantDataLong@@UEBA_NAEAVwxOutputStream@@@Z
00000000000bc6f0	wxbase33u:variant.obj	?Write@wxVariantDataLong@@UEBA_NAEAVwxString@@@Z
00000000000bc7d0	wxbase33u:variant.obj	?Write@wxVariantDataLongLong@@UEBA_NAEAVwxOutputStream@@@Z
00000000000bc880	wxbase33u:variant.obj	?Write@wxVariantDataLongLong@@UEBA_NAEAVwxString@@@Z
00000000000bc960	wxbase33u:variant.obj	?Write@wxVariantDataString@@UEBA_NAEAV?$basic_ostream@DU?$char_traits@D@std@@@std@@@Z
00000000000bca00	wxbase33u:variant.obj	?Write@wxVariantDataString@@UEBA_NAEAVwxOutputStream@@@Z
00000000000bcaa0	wxbase33u:variant.obj	?Write@wxVariantDataString@@UEBA_NAEAVwxString@@@Z
00000000000bcad0	wxbase33u:variant.obj	?Write@wxVariantDataULongLong@@UEBA_NAEAVwxOutputStream@@@Z
00000000000bcb80	wxbase33u:variant.obj	?Write@wxVariantDataULongLong@@UEBA_NAEAVwxString@@@Z
00000000000bcc60	wxbase33u:variant.obj	?Write@wxVariantDataVoidPtr@@UEBA_NAEAVwxString@@@Z
00000000000bcd40	wxbase33u:variant.obj	?Write@wxVariantDataWxObjectPtr@@UEBA_NAEAVwxString@@@Z
00000000000bcf30	wxbase33u:variant.obj	?Write@wxVariantDoubleData@@UEBA_NAEAVwxOutputStream@@@Z
00000000000bcfd0	wxbase33u:variant.obj	?Write@wxVariantDoubleData@@UEBA_NAEAVwxString@@@Z
00000000000bd0c0	wxbase33u:variant.obj	?wxAtof@@YANAEBVwxString@@@Z
00000000000bd160	wxbase33u:variant.obj	?wxCreateObject@wxVariant@@SAPEAVwxObject@@XZ
00000000000bd1b0	wxbase33u:variant.obj	?wxVariantDataFromConstCharPAny@@YAPEAVwxVariantData@@AEBVwxAny@@@Z
00000000000bd2f0	wxbase33u:variant.obj	?wxVariantDataFromConstWchar_tPAny@@YAPEAVwxVariantData@@AEBVwxAny@@@Z
00000000000bd550	wxbase33u:textfile.obj	??0wxTextFile@@QEAA@AEBVwxString@@@Z
00000000000bd580	wxbase33u:textfile.obj	??_EwxTextFile@@UEAAPEAXI@Z
00000000000bd580	wxbase33u:textfile.obj	??_GwxTextFile@@UEAAPEAXI@Z
00000000000bd5d0	wxbase33u:textfile.obj	?OnClose@wxTextFile@@MEAA_NXZ
00000000000bd5e0	wxbase33u:textfile.obj	?OnExists@wxTextFile@@MEBA_NXZ
00000000000bd5f0	wxbase33u:textfile.obj	?OnOpen@wxTextFile@@MEAA_NAEBVwxString@@W4wxTextBufferOpenMode@wxTextBuffer@@@Z
00000000000bd680	wxbase33u:textfile.obj	?OnRead@wxTextFile@@MEAA_NAEBVwxMBConv@@@Z
00000000000be180	wxbase33u:textfile.obj	?OnWrite@wxTextFile@@MEAA_NW4wxTextFileType@@AEBVwxMBConv@@@Z
00000000000bec20	wxbase33u:base64.obj	?wxBase64Decode@@YA?AVwxMemoryBuffer@@PEBD_KW4wxBase64DecodeMode@@PEA_K@Z
00000000000bee50	wxbase33u:base64.obj	?wxBase64Decode@@YA_KPEAX_KPEBD1W4wxBase64DecodeMode@@PEA_K@Z
00000000000bf060	wxbase33u:base64.obj	?wxBase64Encode@@YA_KPEAD_KPEBX1@Z
00000000000bf220	MSVCRT:amdsecgs.obj	$$000000
00000000000bf230	MSVCRT:amdsecgs.obj	__security_check_cookie
00000000000bf250	MSVCRT:new_scalar.obj	??2@YAPEAX_K@Z
00000000000bf28c	MSVCRT:ehvecdtr.obj	??_M@YAXPEAX_K1P6AX0@Z@Z
00000000000bf2f8	MSVCRT:ehvecdtr.obj	?__ArrayUnwind@@YAXPEAX_K1P6AX0@Z@Z
00000000000bf35c	MSVCRT:delete_array.obj	??_V@YAXPEAX@Z
00000000000bf35c	MSVCRT:delete_scalar_size.obj	??3@YAXPEAX_K@Z
00000000000bf364	MSVCRT:std_type_info_static.obj	??_Etype_info@@UEAAPEAXI@Z
00000000000bf364	MSVCRT:std_type_info_static.obj	??_Gtype_info@@UEAAPEAXI@Z
00000000000bf390	MSVCRT:thread_safe_statics.obj	?__scrt_initialize_thread_safe_statics@@YAHXZ
00000000000bf460	MSVCRT:thread_safe_statics.obj	?__scrt_uninitialize_thread_safe_statics@@YAXXZ
00000000000bf488	MSVCRT:thread_safe_statics.obj	_Init_thread_abort
00000000000bf4b8	MSVCRT:thread_safe_statics.obj	_Init_thread_footer
00000000000bf518	MSVCRT:thread_safe_statics.obj	_Init_thread_header
00000000000bf580	MSVCRT:thread_safe_statics.obj	_Init_thread_notify
00000000000bf5c4	MSVCRT:thread_safe_statics.obj	_Init_thread_wait
00000000000bf628	MSVCRT:utility.obj	__scrt_acquire_startup_lock
00000000000bf664	MSVCRT:utility.obj	__scrt_initialize_crt
00000000000bf6b0	MSVCRT:utility.obj	__scrt_initialize_onexit_tables
00000000000bf73c	MSVCRT:utility.obj	__scrt_is_nonwritable_in_current_image
00000000000bf7d4	MSVCRT:utility.obj	__scrt_release_startup_lock
00000000000bf7f8	MSVCRT:utility.obj	__scrt_uninitialize_crt
00000000000bf824	MSVCRT:utility.obj	_onexit
00000000000bf860	MSVCRT:utility.obj	atexit
00000000000bf878	MSVCRT:exe_main.obj	?pre_c_initialization@@YAHXZ
00000000000bf930	MSVCRT:exe_main.obj	?post_pgo_initialization@@YAHXZ
00000000000bf940	MSVCRT:exe_main.obj	?pre_cpp_initialization@@YAXXZ
00000000000bf95c	MSVCRT:exe_main.obj	?__scrt_common_main_seh@@YAHXZ
00000000000bfad8	MSVCRT:exe_main.obj	mainCRTStartup
00000000000bfaec	MSVCRT:gshandler.obj	__GSHandlerCheck
00000000000bfb0c	MSVCRT:gshandler.obj	__GSHandlerCheckCommon
00000000000bfb68	MSVCRT:gshandlereh4.obj	__GSHandlerCheck_EH4
00000000000bfbf0	MSVCRT:chkstk.obj	$$000000
00000000000bfc00	MSVCRT:chkstk.obj	__chkstk
00000000000bfc00	MSVCRT:chkstk.obj	_alloca_probe
00000000000bfc50	MSVCRT:new_array.obj	??_U@YAPEAX_K@Z
00000000000bfc58	MSVCRT:cpu_disp.obj	__isa_available_init
00000000000bfe04	MSVCRT:gs_report.obj	__raise_securityfailure
00000000000bfe38	MSVCRT:gs_report.obj	__report_gsfailure
00000000000bff0c	MSVCRT:gs_report.obj	capture_previous_context
00000000000bff80	MSVCRT:throw_bad_alloc.obj	??0bad_alloc@std@@QEAA@XZ
00000000000bffa0	MSVCRT:throw_bad_alloc.obj	?__scrt_throw_std_bad_alloc@@YAXXZ
00000000000bffc0	MSVCRT:delete_scalar.obj	??3@YAXPEAX@Z
00000000000bffc8	MSVCRT:utility_desktop.obj	__crt_debugger_hook
00000000000bffd0	MSVCRT:utility_desktop.obj	__scrt_fastfail
00000000000c011c	MSVCRT:utility_desktop.obj	__scrt_initialize_mta
00000000000c0124	MSVCRT:utility_desktop.obj	__scrt_is_managed_app
00000000000c0178	MSVCRT:utility_desktop.obj	__scrt_set_unhandled_exception_filter
00000000000c0188	MSVCRT:utility_desktop.obj	__scrt_unhandled_exception_filter
00000000000c01e4	MSVCRT:ucrt_detection.obj	__scrt_is_ucrt_dll_in_use
00000000000c01f0	MSVCRT:gs_support.obj	__security_init_cookie
00000000000c029c	MSVCRT:file_mode.obj	_get_startup_file_mode
00000000000c02a4	MSVCRT:tncleanup.obj	?__scrt_initialize_type_info@@YAXXZ
00000000000c02b4	MSVCRT:default_local_stdio_options.obj	__scrt_initialize_default_local_stdio_options
00000000000c02d0	MSVCRT:matherr_detection.obj	__scrt_is_user_matherr_present
00000000000c02dc	MSVCRT:dyn_tls_init.obj	__scrt_get_dyn_tls_init_callback
00000000000c02e4	MSVCRT:dyn_tls_dtor.obj	__scrt_get_dyn_tls_dtor_callback
00000000000c02ec	MSVCRT:initsect.obj	_RTC_Initialize
00000000000c0328	MSVCRT:initsect.obj	_RTC_Terminate
00000000000c0370	log4cpplib:Category.obj	??$_Copy_nodes@U_Copy_tag@?$_Tree@V?$_Tset_traits@PEAVAppender@log4cpp@@U?$less@PEAVAppender@log4cpp@@@std@@V?$allocator@PEAVAppender@log4cpp@@@4@$0A@@std@@@std@@@?$_Tree@V?$_Tset_traits@PEAVAppender@log4cpp@@U?$less@PEAVAppender@log4cpp@@@std@@V?$allocator@PEAVAppender@log4cpp@@@4@$0A@@std@@@std@@IEAAPEAU?$_Tree_node@PEAVAppender@log4cpp@@PEAX@1@PEAU21@0U_Copy_tag@01@@Z
00000000000c0440	log4cpplib:Category.obj	??$_Erase_head@V?$allocator@U?$_Tree_node@PEAVAppender@log4cpp@@PEAX@std@@@std@@@?$_Tree_val@U?$_Tree_simple_types@PEAVAppender@log4cpp@@@std@@@std@@QEAAXAEAV?$allocator@U?$_Tree_node@PEAVAppender@log4cpp@@PEAX@std@@@1@@Z
00000000000c04c0	log4cpplib:Category.obj	??$_Erase_tree@V?$allocator@U?$_Tree_node@PEAVAppender@log4cpp@@PEAX@std@@@std@@@?$_Tree_val@U?$_Tree_simple_types@PEAVAppender@log4cpp@@@std@@@std@@QEAAXAEAV?$allocator@U?$_Tree_node@PEAVAppender@log4cpp@@PEAX@std@@@1@PEAU?$_Tree_node@PEAVAppender@log4cpp@@PEAX@1@@Z
00000000000c04c0	log4cpplib:Category.obj	??$_Erase_tree_and_orphan@V?$allocator@U?$_Tree_node@PEAVAppender@log4cpp@@PEAX@std@@@std@@@?$_Tree_val@U?$_Tree_simple_types@PEAVAppender@log4cpp@@@std@@@std@@QEAAXAEAV?$allocator@U?$_Tree_node@PEAVAppender@log4cpp@@PEAX@std@@@1@PEAU?$_Tree_node@PEAVAppender@log4cpp@@PEAX@1@@Z
00000000000c0520	log4cpplib:Category.obj	??$_Erase_tree@V?$allocator@U?$_Tree_node@U?$pair@QEAVAppender@log4cpp@@_N@std@@PEAX@std@@@std@@@?$_Tree_val@U?$_Tree_simple_types@U?$pair@QEAVAppender@log4cpp@@_N@std@@@std@@@std@@QEAAXAEAV?$allocator@U?$_Tree_node@U?$pair@QEAVAppender@log4cpp@@_N@std@@PEAX@std@@@1@PEAU?$_Tree_node@U?$pair@QEAVAppender@log4cpp@@_N@std@@PEAX@1@@Z
00000000000c0580	log4cpplib:Category.obj	??0Category@log4cpp@@IEAA@AEBV?$basic_string@DU?$char_traits@D@std@@V?$allocator@D@2@@std@@PEAV01@H@Z
00000000000c0650	log4cpplib:Category.obj	??0invalid_argument@std@@QEAA@AEBV01@@Z
00000000000c0690	log4cpplib:Category.obj	??0invalid_argument@std@@QEAA@PEBD@Z
00000000000c06e0	log4cpplib:Category.obj	??0logic_error@std@@QEAA@AEBV01@@Z
00000000000c0720	log4cpplib:Category.obj	??1?$_Alloc_construct_ptr@V?$allocator@U?$_Tree_node@PEAVAppender@log4cpp@@PEAX@std@@@std@@@std@@QEAA@XZ
00000000000c0740	log4cpplib:Category.obj	??1?$_Alloc_construct_ptr@V?$allocator@U?$_Tree_node@U?$pair@QEAVAppender@log4cpp@@_N@std@@PEAX@std@@@std@@@std@@QEAA@XZ
00000000000c0760	log4cpplib:Category.obj	??1?$_Tree_head_scoped_ptr@V?$allocator@U?$_Tree_node@PEAVAppender@log4cpp@@PEAX@std@@@std@@V?$_Tree_val@U?$_Tree_simple_types@PEAVAppender@log4cpp@@@std@@@2@@std@@QEAA@XZ
00000000000c0780	log4cpplib:Category.obj	??1?$set@PEAVAppender@log4cpp@@U?$less@PEAVAppender@log4cpp@@@std@@V?$allocator@PEAVAppender@log4cpp@@@4@@std@@QEAA@XZ
00000000000c0790	log4cpplib:Category.obj	??1Category@log4cpp@@UEAA@XZ
00000000000c0890	log4cpplib:Category.obj	??1LoggingEvent@log4cpp@@QEAA@XZ
00000000000c09e0	log4cpplib:Category.obj	??1invalid_argument@std@@UEAA@XZ
00000000000c0a00	log4cpplib:Category.obj	??6Category@log4cpp@@UEAA?AVCategoryStream@1@H@Z
00000000000c0a20	log4cpplib:Category.obj	??_ECategory@log4cpp@@UEAAPEAXI@Z
00000000000c0a20	log4cpplib:Category.obj	??_GCategory@log4cpp@@UEAAPEAXI@Z
00000000000c0a60	log4cpplib:Category.obj	??_Einvalid_argument@std@@UEAAPEAXI@Z
00000000000c0a60	log4cpplib:Category.obj	??_Elogic_error@std@@UEAAPEAXI@Z
00000000000c0a60	log4cpplib:Category.obj	??_Ginvalid_argument@std@@UEAAPEAXI@Z
00000000000c0a60	log4cpplib:Category.obj	??_Glogic_error@std@@UEAAPEAXI@Z
00000000000c0ab0	log4cpplib:Category.obj	?_Extract@?$_Tree_val@U?$_Tree_simple_types@PEAVAppender@log4cpp@@@std@@@std@@QEAAPEAU?$_Tree_node@PEAVAppender@log4cpp@@PEAX@2@V?$_Tree_unchecked_const_iterator@V?$_Tree_val@U?$_Tree_simple_types@PEAVAppender@log4cpp@@@std@@@std@@U_Iterator_base0@2@@2@@Z
00000000000c0ab0	log4cpplib:Category.obj	?_Extract@?$_Tree_val@U?$_Tree_simple_types@U?$pair@QEAVAppender@log4cpp@@_N@std@@@std@@@std@@QEAAPEAU?$_Tree_node@U?$pair@QEAVAppender@log4cpp@@_N@std@@PEAX@2@V?$_Tree_unchecked_const_iterator@V?$_Tree_val@U?$_Tree_simple_types@U?$pair@QEAVAppender@log4cpp@@_N@std@@@std@@@std@@U_Iterator_base0@2@@2@@Z
00000000000c0e50	log4cpplib:Appender.obj	?_Getal@?$vector@PEAVAppender@log4cpp@@V?$allocator@PEAVAppender@log4cpp@@@std@@@std@@AEAAAEAV?$allocator@PEAVAppender@log4cpp@@@2@XZ
00000000000c0e50	log4cpplib:Category.obj	?_Getal@?$_Tree@V?$_Tset_traits@PEAVAppender@log4cpp@@U?$less@PEAVAppender@log4cpp@@@std@@V?$allocator@PEAVAppender@log4cpp@@@4@$0A@@std@@@std@@IEAAAEAV?$allocator@U?$_Tree_node@PEAVAppender@log4cpp@@PEAX@std@@@2@XZ
00000000000c0e60	log4cpplib:Category.obj	?_Insert_node@?$_Tree_val@U?$_Tree_simple_types@PEAVAppender@log4cpp@@@std@@@std@@QEAAPEAU?$_Tree_node@PEAVAppender@log4cpp@@PEAX@2@U?$_Tree_id@PEAU?$_Tree_node@PEAVAppender@log4cpp@@PEAX@std@@@2@QEAU32@@Z
00000000000c0e60	log4cpplib:Category.obj	?_Insert_node@?$_Tree_val@U?$_Tree_simple_types@U?$pair@QEAVAppender@log4cpp@@_N@std@@@std@@@std@@QEAAPEAU?$_Tree_node@U?$pair@QEAVAppender@log4cpp@@_N@std@@PEAX@2@U?$_Tree_id@PEAU?$_Tree_node@U?$pair@QEAVAppender@log4cpp@@_N@std@@PEAX@std@@@2@QEAU32@@Z
00000000000c0e60	log4cpplib:HierarchyMaintainer.obj	?_Insert_node@?$_Tree_val@U?$_Tree_simple_types@U?$pair@$$CBV?$basic_string@DU?$char_traits@D@std@@V?$allocator@D@2@@std@@PEAVCategory@log4cpp@@@std@@@std@@@std@@QEAAPEAU?$_Tree_node@U?$pair@$$CBV?$basic_string@DU?$char_traits@D@std@@V?$allocator@D@2@@std@@PEAVCategory@log4cpp@@@std@@PEAX@2@U?$_Tree_id@PEAU?$_Tree_node@U?$pair@$$CBV?$basic_string@DU?$char_traits@D@std@@V?$allocator@D@2@@std@@PEAVCategory@log4cpp@@@std@@PEAX@std@@@2@QEAU32@@Z
00000000000c10e0	log4cpplib:Category.obj	?_Lrotate@?$_Tree_val@U?$_Tree_simple_types@PEAVAppender@log4cpp@@@std@@@std@@QEAAXPEAU?$_Tree_node@PEAVAppender@log4cpp@@PEAX@2@@Z
00000000000c10e0	log4cpplib:Category.obj	?_Lrotate@?$_Tree_val@U?$_Tree_simple_types@U?$pair@QEAVAppender@log4cpp@@_N@std@@@std@@@std@@QEAAXPEAU?$_Tree_node@U?$pair@QEAVAppender@log4cpp@@_N@std@@PEAX@2@@Z
00000000000c1140	log4cpplib:Category.obj	?_Rrotate@?$_Tree_val@U?$_Tree_simple_types@PEAVAppender@log4cpp@@@std@@@std@@QEAAXPEAU?$_Tree_node@PEAVAppender@log4cpp@@PEAX@2@@Z
00000000000c1140	log4cpplib:Category.obj	?_Rrotate@?$_Tree_val@U?$_Tree_simple_types@U?$pair@QEAVAppender@log4cpp@@_N@std@@@std@@@std@@QEAAXPEAU?$_Tree_node@U?$pair@QEAVAppender@log4cpp@@_N@std@@PEAX@2@@Z
00000000000c11a0	log4cpplib:Category.obj	?_Throw_tree_length_error@std@@YAXXZ
00000000000c11c0	log4cpplib:Category.obj	?_Xlen@?$basic_string@DU?$char_traits@D@std@@V?$allocator@D@2@@std@@CAXXZ
00000000000c11e0	log4cpplib:Category.obj	?_logUnconditionally2@Category@log4cpp@@MEAAXHAEBV?$basic_string@DU?$char_traits@D@std@@V?$allocator@D@2@@std@@@Z
00000000000c1280	log4cpplib:Category.obj	?_logUnconditionally@Category@log4cpp@@MEAAXHPEBDPEAD@Z
00000000000c1320	log4cpplib:Category.obj	?addAppender@Category@log4cpp@@UEAAXAEAVAppender@2@@Z
00000000000c1540	log4cpplib:Category.obj	?addAppender@Category@log4cpp@@UEAAXPEAVAppender@2@@Z
00000000000c1770	log4cpplib:Category.obj	?callAppenders@Category@log4cpp@@UEAAXAEBULoggingEvent@2@@Z
00000000000c1880	log4cpplib:Category.obj	?debug@Category@log4cpp@@QEAAXPEBDZZ
00000000000c18d0	log4cpplib:Category.obj	?error@Category@log4cpp@@QEAAXPEBDZZ
00000000000c1920	log4cpplib:Category.obj	?getAdditivity@Category@log4cpp@@UEBA_NXZ
00000000000c1930	log4cpplib:Category.obj	?getAllAppenders@Category@log4cpp@@UEBA?AV?$set@PEAVAppender@log4cpp@@U?$less@PEAVAppender@log4cpp@@@std@@V?$allocator@PEAVAppender@log4cpp@@@4@@std@@XZ
00000000000c1a40	log4cpplib:Category.obj	?getAppender@Category@log4cpp@@UEBAPEAVAppender@2@AEBV?$basic_string@DU?$char_traits@D@std@@V?$allocator@D@2@@std@@@Z
00000000000c1ab0	log4cpplib:Category.obj	?getAppender@Category@log4cpp@@UEBAPEAVAppender@2@XZ
00000000000c1b00	log4cpplib:Category.obj	?getChainedPriority@Category@log4cpp@@UEBAHXZ
00000000000c1b50	log4cpplib:Category.obj	?getInstance@Category@log4cpp@@SAAEAV12@AEBV?$basic_string@DU?$char_traits@D@std@@V?$allocator@D@2@@std@@@Z
00000000000c1b70	log4cpplib:Category.obj	?getName@Category@log4cpp@@UEBAAEBV?$basic_string@DU?$char_traits@D@std@@V?$allocator@D@2@@std@@XZ
00000000000c1b80	log4cpplib:Category.obj	?getPriority@Category@log4cpp@@UEBAHXZ
00000000000c1b90	log4cpplib:Category.obj	?getStream@Category@log4cpp@@UEAA?AVCategoryStream@2@H@Z
00000000000c1be0	log4cpplib:Category.obj	?info@Category@log4cpp@@QEAAXPEBDZZ
00000000000c1c30	log4cpplib:Category.obj	?isPriorityEnabled@Category@log4cpp@@UEBA_NH@Z
00000000000c1c50	log4cpplib:Category.obj	?log@Category@log4cpp@@UEAAXHAEBV?$basic_string@DU?$char_traits@D@std@@V?$allocator@D@2@@std@@@Z
00000000000c1ca0	log4cpplib:Category.obj	?log@Category@log4cpp@@UEAAXHPEBDZZ
00000000000c1ce0	log4cpplib:Category.obj	?logva@Category@log4cpp@@UEAAXHPEBDPEAD@Z
00000000000c1d40	log4cpplib:Category.obj	?ownsAppender@Category@log4cpp@@EEAA_NPEAVAppender@2@AEAV?$_Tree_iterator@V?$_Tree_val@U?$_Tree_simple_types@U?$pair@QEAVAppender@log4cpp@@_N@std@@@std@@@std@@@std@@@Z
00000000000c1da0	log4cpplib:Category.obj	?ownsAppender@Category@log4cpp@@UEBA_NPEAVAppender@2@@Z
00000000000c1e40	log4cpplib:Category.obj	?ownsAppender@Category@log4cpp@@UEBA_NXZ
00000000000c1e70	log4cpplib:Category.obj	?removeAllAppenders@Category@log4cpp@@UEAAXXZ
00000000000c2000	log4cpplib:Category.obj	?removeAppender@Category@log4cpp@@UEAAXPEAVAppender@2@@Z
00000000000c2190	log4cpplib:Category.obj	?setAdditivity@Category@log4cpp@@UEAAX_N@Z
00000000000c21a0	log4cpplib:Category.obj	?setPriority@Category@log4cpp@@UEAAXH@Z
00000000000c2200	log4cpplib:Appender.obj	??$_Emplace_reallocate@AEBQEAVAppender@log4cpp@@@?$vector@PEAVAppender@log4cpp@@V?$allocator@PEAVAppender@log4cpp@@@std@@@std@@QEAAPEAPEAVAppender@log4cpp@@QEAPEAV23@AEBQEAV23@@Z
00000000000c2300	log4cpplib:Appender.obj	??$_Erase_tree@V?$allocator@U?$_Tree_node@U?$pair@$$CBV?$basic_string@DU?$char_traits@D@std@@V?$allocator@D@2@@std@@PEAVAppender@log4cpp@@@std@@PEAX@std@@@std@@@?$_Tree_val@U?$_Tree_simple_types@U?$pair@$$CBV?$basic_string@DU?$char_traits@D@std@@V?$allocator@D@2@@std@@PEAVAppender@log4cpp@@@std@@@std@@@std@@QEAAXAEAV?$allocator@U?$_Tree_node@U?$pair@$$CBV?$basic_string@DU?$char_traits@D@std@@V?$allocator@D@2@@std@@PEAVAppender@log4cpp@@@std@@PEAX@std@@@1@PEAU?$_Tree_node@U?$pair@$$CBV?$basic_string@DU?$char_traits@D@std@@V?$allocator@D@2@@std@@PEAVAppender@log4cpp@@@std@@PEAX@1@@Z
00000000000c2300	log4cpplib:HierarchyMaintainer.obj	??$_Erase_tree@V?$allocator@U?$_Tree_node@U?$pair@$$CBV?$basic_string@DU?$char_traits@D@std@@V?$allocator@D@2@@std@@PEAVCategory@log4cpp@@@std@@PEAX@std@@@std@@@?$_Tree_val@U?$_Tree_simple_types@U?$pair@$$CBV?$basic_string@DU?$char_traits@D@std@@V?$allocator@D@2@@std@@PEAVCategory@log4cpp@@@std@@@std@@@std@@QEAAXAEAV?$allocator@U?$_Tree_node@U?$pair@$$CBV?$basic_string@DU?$char_traits@D@std@@V?$allocator@D@2@@std@@PEAVCategory@log4cpp@@@std@@PEAX@std@@@1@PEAU?$_Tree_node@U?$pair@$$CBV?$basic_string@DU?$char_traits@D@std@@V?$allocator@D@2@@std@@PEAVCategory@log4cpp@@@std@@PEAX@1@@Z
00000000000c23c0	log4cpplib:Appender.obj	??0AppenderMapStorage@Appender@log4cpp@@QEAA@XZ
00000000000c2440	log4cpplib:Appender.obj	??0AppenderMapStorageInitializer@Appender@log4cpp@@QEAA@XZ
00000000000c2480	log4cpplib:Appender.obj	??1AppenderMapStorage@Appender@log4cpp@@QEAA@XZ
00000000000c24f0	log4cpplib:Appender.obj	??1AppenderMapStorageInitializer@Appender@log4cpp@@QEAA@XZ
00000000000c2510	log4cpplib:Appender.obj	?_Reallocate_exactly@?$vector@PEAVAppender@log4cpp@@V?$allocator@PEAVAppender@log4cpp@@@std@@@std@@AEAAX_K@Z
00000000000c2580	log4cpplib:Appender.obj	?_Xlength@?$vector@PEAVAppender@log4cpp@@V?$allocator@PEAVAppender@log4cpp@@@std@@@std@@CAXXZ
00000000000c2580	log4cpplib:HierarchyMaintainer.obj	?_Xlength@?$vector@PEAVCategory@log4cpp@@V?$allocator@PEAVCategory@log4cpp@@@std@@@std@@CAXXZ
00000000000c2580	log4cpplib:NDC.obj	?_Xlength@?$vector@UDiagnosticContext@NDC@log4cpp@@V?$allocator@UDiagnosticContext@NDC@log4cpp@@@std@@@std@@CAXXZ
00000000000c25a0	log4cpplib:Appender.obj	?_deleteAllAppenders@Appender@log4cpp@@CAXXZ
00000000000c2760	log4cpplib:Appender.obj	?_deleteAllAppendersWOLock@Appender@log4cpp@@CAXAEAV?$vector@PEAVAppender@log4cpp@@V?$allocator@PEAVAppender@log4cpp@@@std@@@std@@@Z
00000000000c27a0	log4cpplib:Appender.obj	?_getAllAppenders@Appender@log4cpp@@CAAEAV?$map@V?$basic_string@DU?$char_traits@D@std@@V?$allocator@D@2@@std@@PEAVAppender@log4cpp@@U?$less@V?$basic_string@DU?$char_traits@D@std@@V?$allocator@D@2@@std@@@2@V?$allocator@U?$pair@$$CBV?$basic_string@DU?$char_traits@D@std@@V?$allocator@D@2@@std@@PEAVAppender@log4cpp@@@std@@@2@@std@@XZ
00000000000c27b0	log4cpplib:Appender.obj	?allocate@?$allocator@PEAVAppender@log4cpp@@@std@@QEAAPEAPEAVAppender@log4cpp@@_K@Z
00000000000c2830	log4cpplib:Appender.obj	?compare@?$basic_string@DU?$char_traits@D@std@@V?$allocator@D@2@@std@@QEBAHAEBV12@@Z
00000000000c28a0	log4cpplib:Appender.obj	?getAppender@Appender@log4cpp@@SAPEAV12@AEBV?$basic_string@DU?$char_traits@D@std@@V?$allocator@D@2@@std@@@Z
00000000000c2950	log4cpplib:LoggingEvent.obj	??0LoggingEvent@log4cpp@@QEAA@AEBV?$basic_string@DU?$char_traits@D@std@@V?$allocator@D@2@@std@@00H@Z
00000000000c29d0	log4cpplib:CategoryStream.obj	??0CategoryStream@log4cpp@@QEAA@AEAVCategory@1@H@Z
00000000000c29f0	log4cpplib:HierarchyMaintainer.obj	??$_Emplace_reallocate@AEBQEAVCategory@log4cpp@@@?$vector@PEAVCategory@log4cpp@@V?$allocator@PEAVCategory@log4cpp@@@std@@@std@@QEAAPEAPEAVCategory@log4cpp@@QEAPEAV23@AEBQEAV23@@Z
00000000000c2b90	log4cpplib:HierarchyMaintainer.obj	??0HierarchyMaintainer@log4cpp@@QEAA@XZ
00000000000c2c10	log4cpplib:HierarchyMaintainer.obj	??1HierarchyMaintainer@log4cpp@@UEAA@XZ
00000000000c2cc0	log4cpplib:HierarchyMaintainer.obj	??_EHierarchyMaintainer@log4cpp@@UEAAPEAXI@Z
00000000000c2cc0	log4cpplib:HierarchyMaintainer.obj	??_GHierarchyMaintainer@log4cpp@@UEAAPEAXI@Z
00000000000c2d00	log4cpplib:HierarchyMaintainer.obj	?_getExistingInstance@HierarchyMaintainer@log4cpp@@MEAAPEAVCategory@2@AEBV?$basic_string@DU?$char_traits@D@std@@V?$allocator@D@2@@std@@@Z
00000000000c2d90	log4cpplib:HierarchyMaintainer.obj	?_getInstance@HierarchyMaintainer@log4cpp@@MEAAAEAVCategory@2@AEBV?$basic_string@DU?$char_traits@D@std@@V?$allocator@D@2@@std@@@Z
00000000000c30a0	log4cpplib:HierarchyMaintainer.obj	?deleteAllCategories@HierarchyMaintainer@log4cpp@@UEAAXXZ
00000000000c3180	log4cpplib:HierarchyMaintainer.obj	?getCurrentCategories@HierarchyMaintainer@log4cpp@@UEBAPEAV?$vector@PEAVCategory@log4cpp@@V?$allocator@PEAVCategory@log4cpp@@@std@@@std@@XZ
00000000000c3290	log4cpplib:HierarchyMaintainer.obj	?getDefaultMaintainer@HierarchyMaintainer@log4cpp@@SAAEAV12@XZ
00000000000c3320	log4cpplib:HierarchyMaintainer.obj	?getExistingInstance@HierarchyMaintainer@log4cpp@@UEAAPEAVCategory@2@AEBV?$basic_string@DU?$char_traits@D@std@@V?$allocator@D@2@@std@@@Z
00000000000c3380	log4cpplib:HierarchyMaintainer.obj	?getInstance@HierarchyMaintainer@log4cpp@@UEAAAEAVCategory@2@AEBV?$basic_string@DU?$char_traits@D@std@@V?$allocator@D@2@@std@@@Z
00000000000c33e0	log4cpplib:HierarchyMaintainer.obj	?shutdown@HierarchyMaintainer@log4cpp@@UEAAXXZ
00000000000c34d0	log4cpplib:NDC.obj	??$_Assign_range@PEAUDiagnosticContext@NDC@log4cpp@@@?$vector@UDiagnosticContext@NDC@log4cpp@@V?$allocator@UDiagnosticContext@NDC@log4cpp@@@std@@@std@@AEAAXPEAUDiagnosticContext@NDC@log4cpp@@0Uforward_iterator_tag@1@@Z
00000000000c3670	log4cpplib:NDC.obj	??$_Copy_unchecked@PEAUDiagnosticContext@NDC@log4cpp@@PEAU123@@std@@YAPEAUDiagnosticContext@NDC@log4cpp@@PEAU123@00@Z
00000000000c3700	log4cpplib:NDC.obj	??$_Emplace_reallocate@UDiagnosticContext@NDC@log4cpp@@@?$vector@UDiagnosticContext@NDC@log4cpp@@V?$allocator@UDiagnosticContext@NDC@log4cpp@@@std@@@std@@QEAAPEAUDiagnosticContext@NDC@log4cpp@@QEAU234@$$QEAU234@@Z
00000000000c38e0	log4cpplib:NDC.obj	??$_Reallocate_grow_by@V<lambda_65e615be2a453ca0576c979606f46740>@@PEBD_K@?$basic_string@DU?$char_traits@D@std@@V?$allocator@D@2@@std@@AEAAAEAV01@_KV<lambda_65e615be2a453ca0576c979606f46740>@@PEBD_K@Z
00000000000c3a60	log4cpplib:NDC.obj	??$_Ucopy@PEAUDiagnosticContext@NDC@log4cpp@@@?$vector@UDiagnosticContext@NDC@log4cpp@@V?$allocator@UDiagnosticContext@NDC@log4cpp@@@std@@@std@@AEAAPEAUDiagnosticContext@NDC@log4cpp@@PEAU234@00@Z
00000000000c3af0	log4cpplib:NDC.obj	??$_Uninitialized_move@PEAUDiagnosticContext@NDC@log4cpp@@V?$allocator@UDiagnosticContext@NDC@log4cpp@@@std@@@std@@YAPEAUDiagnosticContext@NDC@log4cpp@@QEAU123@0PEAU123@AEAV?$allocator@UDiagnosticContext@NDC@log4cpp@@@0@@Z
00000000000c3b80	log4cpplib:NDC.obj	??0DiagnosticContext@NDC@log4cpp@@QEAA@AEBV?$basic_string@DU?$char_traits@D@std@@V?$allocator@D@2@@std@@@Z
00000000000c3bc0	log4cpplib:NDC.obj	??0DiagnosticContext@NDC@log4cpp@@QEAA@AEBV?$basic_string@DU?$char_traits@D@std@@V?$allocator@D@2@@std@@AEBU012@@Z
00000000000c3db0	log4cpplib:NDC.obj	??0NDC@log4cpp@@QEAA@XZ
00000000000c3dd0	log4cpplib:NDC.obj	??1?$_Tidy_guard@V?$vector@UDiagnosticContext@NDC@log4cpp@@V?$allocator@UDiagnosticContext@NDC@log4cpp@@@std@@@std@@@std@@QEAA@XZ
00000000000c3de0	log4cpplib:NDC.obj	??1?$_Uninitialized_backout_al@V?$allocator@UDiagnosticContext@NDC@log4cpp@@@std@@@std@@QEAA@XZ
00000000000c3e20	log4cpplib:NDC.obj	??1DiagnosticContext@NDC@log4cpp@@QEAA@XZ
00000000000c3ed0	log4cpplib:NDC.obj	??1NDC@log4cpp@@UEAA@XZ
00000000000c3ef0	log4cpplib:NDC.obj	??_ENDC@log4cpp@@UEAAPEAXI@Z
00000000000c3ef0	log4cpplib:NDC.obj	??_GNDC@log4cpp@@UEAAPEAXI@Z
00000000000c3f30	log4cpplib:NDC.obj	?_Destroy@?$vector@UDiagnosticContext@NDC@log4cpp@@V?$allocator@UDiagnosticContext@NDC@log4cpp@@@std@@@std@@AEAAXPEAUDiagnosticContext@NDC@log4cpp@@0@Z
00000000000c3f70	log4cpplib:NDC.obj	?_Tidy@?$vector@UDiagnosticContext@NDC@log4cpp@@V?$allocator@UDiagnosticContext@NDC@log4cpp@@@std@@@std@@AEAAXXZ
00000000000c4000	log4cpplib:NDC.obj	?_clear@NDC@log4cpp@@UEAAXXZ
00000000000c4060	log4cpplib:NDC.obj	?_cloneStack@NDC@log4cpp@@UEAAPEAV?$vector@UDiagnosticContext@NDC@log4cpp@@V?$allocator@UDiagnosticContext@NDC@log4cpp@@@std@@@std@@XZ
00000000000c4150	log4cpplib:NDC.obj	?_get@NDC@log4cpp@@UEBAAEBV?$basic_string@DU?$char_traits@D@std@@V?$allocator@D@2@@std@@XZ
00000000000c41f0	log4cpplib:NDC.obj	?_getDepth@NDC@log4cpp@@UEBA_KXZ
00000000000c4200	log4cpplib:NDC.obj	?_inherit@NDC@log4cpp@@UEAAXPEAV?$vector@UDiagnosticContext@NDC@log4cpp@@V?$allocator@UDiagnosticContext@NDC@log4cpp@@@std@@@std@@@Z
00000000000c4220	log4cpplib:NDC.obj	?_pop@NDC@log4cpp@@UEAA?AV?$basic_string@DU?$char_traits@D@std@@V?$allocator@D@2@@std@@XZ
00000000000c4260	log4cpplib:NDC.obj	?_push@NDC@log4cpp@@UEAAXAEBV?$basic_string@DU?$char_traits@D@std@@V?$allocator@D@2@@std@@@Z
00000000000c42e0	log4cpplib:NDC.obj	?allocate@?$allocator@UDiagnosticContext@NDC@log4cpp@@@std@@QEAAPEAUDiagnosticContext@NDC@log4cpp@@_K@Z
00000000000c4360	log4cpplib:NDC.obj	?deallocate@?$allocator@UDiagnosticContext@NDC@log4cpp@@@std@@QEAAXQEAUDiagnosticContext@NDC@log4cpp@@_K@Z
00000000000c43b0	log4cpplib:NDC.obj	?get@NDC@log4cpp@@SAAEBV?$basic_string@DU?$char_traits@D@std@@V?$allocator@D@2@@std@@XZ
00000000000c43e0	log4cpplib:NDC.obj	?getNDC@NDC@log4cpp@@SAAEAV12@XZ
00000000000c4460	log4cpplib:NDC.obj	?push_back@?$vector@UDiagnosticContext@NDC@log4cpp@@V?$allocator@UDiagnosticContext@NDC@log4cpp@@@std@@@std@@QEAAX$$QEAUDiagnosticContext@NDC@log4cpp@@@Z
00000000000c44d0	log4cpplib:NDC.obj	?reserve@?$basic_string@DU?$char_traits@D@std@@V?$allocator@D@2@@std@@QEAAX_K@Z
00000000000c4690	log4cpplib:StringUtil.obj	?vform@StringUtil@log4cpp@@SA?AV?$basic_string@DU?$char_traits@D@std@@V?$allocator@D@2@@std@@PEBDPEAD@Z
00000000000c47b0	log4cpplib:TimeStamp.obj	??0TimeStamp@log4cpp@@QEAA@XZ
00000000000c4800	log4cpplib:MSThreads.obj	?getThreadId@threading@log4cpp@@YA?AV?$basic_string@DU?$char_traits@D@std@@V?$allocator@D@2@@std@@XZ
00000000000c4890	log4cpplib:MSThreads.obj	sprintf
00000000000c4a5c	MSVCRT:gshandlereh.obj	__GSHandlerCheck_EH
00000000000c4ae0	MSVCRT:guard_dispatch.obj	$$000000
00000000000c4af0	MSVCRT:guard_dispatch.obj	_guard_dispatch_icall_nop
00000000000c4b00	MSVCRT:guard_xfg_dispatch.obj	$$000000
00000000000c4b10	MSVCRT:guard_xfg_dispatch.obj	_guard_xfg_dispatch_icall_nop
00000000000c4b20	jsonreader.obj	?dtor$0@?0???0wxFormatString@@QEAA@PEB_W@Z@4HA
00000000000c4b2c	jsonreader.obj	?dtor$1@?0???0wxFormatString@@QEAA@PEB_W@Z@4HA
00000000000c4b40	jsonreader.obj	?dtor$0@?0???0?$wxArgNormalizerWchar@PEBD@@QEAA@PEBDPEBVwxFormatString@@I@Z@4HA
00000000000c4b4c	jsonreader.obj	?dtor$3@?0???0?$wxArgNormalizerWchar@PEBD@@QEAA@PEBDPEBVwxFormatString@@I@Z@4HA
00000000000c4b60	automation.obj	?dtor$0@?0???0wxString@@QEAA@AEBV?$basic_string@DU?$char_traits@D@std@@V?$allocator@D@2@@std@@@Z@4HA
00000000000c4b60	jsonreader.obj	?dtor$0@?0???0wxString@@QEAA@PEBDAEBVwxMBConv@@_K@Z@4HA
00000000000c4b6c	automation.obj	?dtor$1@?0???0wxString@@QEAA@AEBV?$basic_string@DU?$char_traits@D@std@@V?$allocator@D@2@@std@@@Z@4HA
00000000000c4b6c	jsonreader.obj	?dtor$1@?0???0wxString@@QEAA@PEBDAEBVwxMBConv@@_K@Z@4HA
00000000000c4b7c	automation.obj	?dtor$5@?0???0wxString@@QEAA@AEBV?$basic_string@DU?$char_traits@D@std@@V?$allocator@D@2@@std@@@Z@4HA
00000000000c4b7c	jsonreader.obj	?dtor$2@?0???0wxString@@QEAA@PEBDAEBVwxMBConv@@_K@Z@4HA
00000000000c4b90	jsonreader.obj	?dtor$0@?0??utf8_str@wxString@@QEBA?BV?$wxScopedCharTypeBuffer@D@@XZ@4HA
00000000000c4ba0	jsonreader.obj	?dtor$2@?0??mb_str@wxString@@QEBA?BV?$wxScopedCharTypeBuffer@D@@AEBVwxMBConv@@@Z@4HA
00000000000c4bc6	jsonreader.obj	?dtor$5@?0??mb_str@wxString@@QEBA?BV?$wxScopedCharTypeBuffer@D@@AEBVwxMBConv@@@Z@4HA
00000000000c4bf0	jsonreader.obj	?dtor$0@?0??append@wxString@@QEAAAEAV1@_KVwxUniChar@@@Z@4HA
00000000000c4bf0	wxbase33u:common_uilocale.obj	?dtor$1@?0??find_first_not_of@wxString@@QEBA_KPEBD_K@Z@4HA
00000000000c4bf0	wxbase33u:file.obj	?dtor$5@?0??ReadAll@wxFile@@QEAA_NPEAVwxString@@AEBVwxMBConv@@@Z@4HA
00000000000c4c00	jsonreader.obj	?dtor$3@?0???0ExtraData@wxLogRecordInfo@@QEAA@XZ@4HA
00000000000c4c10	jsonreader.obj	?dtor$4@?0???0ExtraData@wxLogRecordInfo@@QEAA@XZ@4HA
00000000000c4c20	jsonreader.obj	?dtor$0@?0???0ExtraData@wxLogRecordInfo@@QEAA@XZ@4HA
00000000000c4c2c	jsonreader.obj	?dtor$6@?0???0ExtraData@wxLogRecordInfo@@QEAA@XZ@4HA
00000000000c4c3c	jsonreader.obj	?dtor$7@?0???0ExtraData@wxLogRecordInfo@@QEAA@XZ@4HA
00000000000c4c50	jsonreader.obj	?dtor$0@?0??DoLogTrace@wxLogger@@AEAAXAEBVwxString@@PEB_WZZ@4HA
00000000000c4c5c	jsonreader.obj	?dtor$1@?0??DoLogTrace@wxLogger@@AEAAXAEBVwxString@@PEB_WZZ@4HA
00000000000c4c68	jsonreader.obj	?dtor$3@?0??DoLogTrace@wxLogger@@AEAAXAEBVwxString@@PEB_WZZ@4HA
00000000000c4c74	jsonreader.obj	?dtor$4@?0??DoLogTrace@wxLogger@@AEAAXAEBVwxString@@PEB_WZZ@4HA
00000000000c4c91	jsonreader.obj	?dtor$2@?0??DoLogTrace@wxLogger@@AEAAXAEBVwxString@@PEB_WZZ@4HA
00000000000c4c9d	jsonreader.obj	?dtor$9@?0??DoLogTrace@wxLogger@@AEAAXAEBVwxString@@PEB_WZZ@4HA
00000000000c4cb0	jsonreader.obj	?dtor$4@?0??Parse@wxJSONReader@@QEAAHAEBVwxString@@PEAVwxJSONValue@@@Z@4HA
00000000000c4cbc	jsonreader.obj	?dtor$0@?0??Parse@wxJSONReader@@QEAAHAEBVwxString@@PEAVwxJSONValue@@@Z@4HA
00000000000c4cc8	jsonreader.obj	?dtor$8@?0??Parse@wxJSONReader@@QEAAHAEBVwxString@@PEAVwxJSONValue@@@Z@4HA
00000000000c4cd4	jsonreader.obj	?dtor$1@?0??Parse@wxJSONReader@@QEAAHAEBVwxString@@PEAVwxJSONValue@@@Z@4HA
00000000000c4ce0	jsonreader.obj	?dtor$2@?0??Parse@wxJSONReader@@QEAAHAEBVwxString@@PEAVwxJSONValue@@@Z@4HA
00000000000c4cf0	jsonreader.obj	?dtor$0@?0??Parse@wxJSONReader@@QEAAHAEAVwxInputStream@@PEAVwxJSONValue@@@Z@4HA
00000000000c4cfc	jsonreader.obj	?dtor$1@?0??Parse@wxJSONReader@@QEAAHAEAVwxInputStream@@PEAVwxJSONValue@@@Z@4HA
00000000000c4d10	jsonreader.obj	?dtor$0@?0??DoRead@wxJSONReader@@IEAAHAEAVwxInputStream@@AEAVwxJSONValue@@@Z@4HA
00000000000c4d1c	jsonreader.obj	?dtor$1@?0??DoRead@wxJSONReader@@IEAAHAEAVwxInputStream@@AEAVwxJSONValue@@@Z@4HA
00000000000c4d28	jsonreader.obj	?dtor$2@?0??DoRead@wxJSONReader@@IEAAHAEAVwxInputStream@@AEAVwxJSONValue@@@Z@4HA
00000000000c4d34	jsonreader.obj	?dtor$3@?0??DoRead@wxJSONReader@@IEAAHAEAVwxInputStream@@AEAVwxJSONValue@@@Z@4HA
00000000000c4d40	jsonreader.obj	?dtor$4@?0??DoRead@wxJSONReader@@IEAAHAEAVwxInputStream@@AEAVwxJSONValue@@@Z@4HA
00000000000c4d4c	jsonreader.obj	?dtor$5@?0??DoRead@wxJSONReader@@IEAAHAEAVwxInputStream@@AEAVwxJSONValue@@@Z@4HA
00000000000c4d58	jsonreader.obj	?dtor$6@?0??DoRead@wxJSONReader@@IEAAHAEAVwxInputStream@@AEAVwxJSONValue@@@Z@4HA
00000000000c4d64	jsonreader.obj	?dtor$7@?0??DoRead@wxJSONReader@@IEAAHAEAVwxInputStream@@AEAVwxJSONValue@@@Z@4HA
00000000000c4d70	jsonreader.obj	?dtor$8@?0??DoRead@wxJSONReader@@IEAAHAEAVwxInputStream@@AEAVwxJSONValue@@@Z@4HA
00000000000c4d7c	jsonreader.obj	?dtor$9@?0??DoRead@wxJSONReader@@IEAAHAEAVwxInputStream@@AEAVwxJSONValue@@@Z@4HA
00000000000c4d88	jsonreader.obj	?dtor$10@?0??DoRead@wxJSONReader@@IEAAHAEAVwxInputStream@@AEAVwxJSONValue@@@Z@4HA
00000000000c4d94	jsonreader.obj	?dtor$11@?0??DoRead@wxJSONReader@@IEAAHAEAVwxInputStream@@AEAVwxJSONValue@@@Z@4HA
00000000000c4da0	jsonreader.obj	?dtor$12@?0??DoRead@wxJSONReader@@IEAAHAEAVwxInputStream@@AEAVwxJSONValue@@@Z@4HA
00000000000c4dac	jsonreader.obj	?dtor$13@?0??DoRead@wxJSONReader@@IEAAHAEAVwxInputStream@@AEAVwxJSONValue@@@Z@4HA
00000000000c4db8	jsonreader.obj	?dtor$14@?0??DoRead@wxJSONReader@@IEAAHAEAVwxInputStream@@AEAVwxJSONValue@@@Z@4HA
00000000000c4dc4	jsonreader.obj	?dtor$15@?0??DoRead@wxJSONReader@@IEAAHAEAVwxInputStream@@AEAVwxJSONValue@@@Z@4HA
00000000000c4dd0	jsonreader.obj	?dtor$0@?0??StoreValue@wxJSONReader@@IEAAXHAEBVwxString@@AEAVwxJSONValue@@1@Z@4HA
00000000000c4df9	jsonreader.obj	?dtor$103@?0??StoreValue@wxJSONReader@@IEAAXHAEBVwxString@@AEAVwxJSONValue@@1@Z@4HA
00000000000c4e05	jsonreader.obj	?dtor$104@?0??StoreValue@wxJSONReader@@IEAAXHAEBVwxString@@AEAVwxJSONValue@@1@Z@4HA
00000000000c4e15	jsonreader.obj	?dtor$1@?0??StoreValue@wxJSONReader@@IEAAXHAEBVwxString@@AEAVwxJSONValue@@1@Z@4HA
00000000000c4e21	jsonreader.obj	?dtor$2@?0??StoreValue@wxJSONReader@@IEAAXHAEBVwxString@@AEAVwxJSONValue@@1@Z@4HA
00000000000c4e2d	jsonreader.obj	?dtor$3@?0??StoreValue@wxJSONReader@@IEAAXHAEBVwxString@@AEAVwxJSONValue@@1@Z@4HA
00000000000c4e39	jsonreader.obj	?dtor$4@?0??StoreValue@wxJSONReader@@IEAAXHAEBVwxString@@AEAVwxJSONValue@@1@Z@4HA
00000000000c4e62	jsonreader.obj	?dtor$35@?0??StoreValue@wxJSONReader@@IEAAXHAEBVwxString@@AEAVwxJSONValue@@1@Z@4HA
00000000000c4e6e	jsonreader.obj	?dtor$36@?0??StoreValue@wxJSONReader@@IEAAXHAEBVwxString@@AEAVwxJSONValue@@1@Z@4HA
00000000000c4e7e	jsonreader.obj	?dtor$5@?0??StoreValue@wxJSONReader@@IEAAXHAEBVwxString@@AEAVwxJSONValue@@1@Z@4HA
00000000000c4e8a	jsonreader.obj	?dtor$6@?0??StoreValue@wxJSONReader@@IEAAXHAEBVwxString@@AEAVwxJSONValue@@1@Z@4HA
00000000000c4e96	jsonreader.obj	?dtor$7@?0??StoreValue@wxJSONReader@@IEAAXHAEBVwxString@@AEAVwxJSONValue@@1@Z@4HA
00000000000c4ea2	jsonreader.obj	?dtor$8@?0??StoreValue@wxJSONReader@@IEAAXHAEBVwxString@@AEAVwxJSONValue@@1@Z@4HA
00000000000c4eae	jsonreader.obj	?dtor$9@?0??StoreValue@wxJSONReader@@IEAAXHAEBVwxString@@AEAVwxJSONValue@@1@Z@4HA
00000000000c4eba	jsonreader.obj	?dtor$10@?0??StoreValue@wxJSONReader@@IEAAXHAEBVwxString@@AEAVwxJSONValue@@1@Z@4HA
00000000000c4ee3	jsonreader.obj	?dtor$64@?0??StoreValue@wxJSONReader@@IEAAXHAEBVwxString@@AEAVwxJSONValue@@1@Z@4HA
00000000000c4eef	jsonreader.obj	?dtor$65@?0??StoreValue@wxJSONReader@@IEAAXHAEBVwxString@@AEAVwxJSONValue@@1@Z@4HA
00000000000c4eff	jsonreader.obj	?dtor$11@?0??StoreValue@wxJSONReader@@IEAAXHAEBVwxString@@AEAVwxJSONValue@@1@Z@4HA
00000000000c4f0b	jsonreader.obj	?dtor$12@?0??StoreValue@wxJSONReader@@IEAAXHAEBVwxString@@AEAVwxJSONValue@@1@Z@4HA
00000000000c4f17	jsonreader.obj	?dtor$13@?0??StoreValue@wxJSONReader@@IEAAXHAEBVwxString@@AEAVwxJSONValue@@1@Z@4HA
00000000000c4f23	jsonreader.obj	?dtor$14@?0??StoreValue@wxJSONReader@@IEAAXHAEBVwxString@@AEAVwxJSONValue@@1@Z@4HA
00000000000c4f2f	jsonreader.obj	?dtor$15@?0??StoreValue@wxJSONReader@@IEAAXHAEBVwxString@@AEAVwxJSONValue@@1@Z@4HA
00000000000c4f3b	jsonreader.obj	?dtor$16@?0??StoreValue@wxJSONReader@@IEAAXHAEBVwxString@@AEAVwxJSONValue@@1@Z@4HA
00000000000c4f47	jsonreader.obj	?dtor$17@?0??StoreValue@wxJSONReader@@IEAAXHAEBVwxString@@AEAVwxJSONValue@@1@Z@4HA
00000000000c4f70	jsonreader.obj	?dtor$86@?0??StoreValue@wxJSONReader@@IEAAXHAEBVwxString@@AEAVwxJSONValue@@1@Z@4HA
00000000000c4f7c	jsonreader.obj	?dtor$87@?0??StoreValue@wxJSONReader@@IEAAXHAEBVwxString@@AEAVwxJSONValue@@1@Z@4HA
00000000000c4f8c	jsonreader.obj	?dtor$18@?0??StoreValue@wxJSONReader@@IEAAXHAEBVwxString@@AEAVwxJSONValue@@1@Z@4HA
00000000000c4f98	jsonreader.obj	?dtor$19@?0??StoreValue@wxJSONReader@@IEAAXHAEBVwxString@@AEAVwxJSONValue@@1@Z@4HA
00000000000c4fa4	jsonreader.obj	?dtor$20@?0??StoreValue@wxJSONReader@@IEAAXHAEBVwxString@@AEAVwxJSONValue@@1@Z@4HA
00000000000c4fb0	jsonreader.obj	?dtor$21@?0??StoreValue@wxJSONReader@@IEAAXHAEBVwxString@@AEAVwxJSONValue@@1@Z@4HA
00000000000c4fbc	jsonreader.obj	?dtor$22@?0??StoreValue@wxJSONReader@@IEAAXHAEBVwxString@@AEAVwxJSONValue@@1@Z@4HA
00000000000c4fc8	jsonreader.obj	?dtor$23@?0??StoreValue@wxJSONReader@@IEAAXHAEBVwxString@@AEAVwxJSONValue@@1@Z@4HA
00000000000c4fd4	jsonreader.obj	?dtor$24@?0??StoreValue@wxJSONReader@@IEAAXHAEBVwxString@@AEAVwxJSONValue@@1@Z@4HA
00000000000c4ffd	jsonreader.obj	?dtor$54@?0??StoreValue@wxJSONReader@@IEAAXHAEBVwxString@@AEAVwxJSONValue@@1@Z@4HA
00000000000c5009	jsonreader.obj	?dtor$55@?0??StoreValue@wxJSONReader@@IEAAXHAEBVwxString@@AEAVwxJSONValue@@1@Z@4HA
00000000000c5019	jsonreader.obj	?dtor$25@?0??StoreValue@wxJSONReader@@IEAAXHAEBVwxString@@AEAVwxJSONValue@@1@Z@4HA
00000000000c5025	jsonreader.obj	?dtor$26@?0??StoreValue@wxJSONReader@@IEAAXHAEBVwxString@@AEAVwxJSONValue@@1@Z@4HA
00000000000c5031	jsonreader.obj	?dtor$27@?0??StoreValue@wxJSONReader@@IEAAXHAEBVwxString@@AEAVwxJSONValue@@1@Z@4HA
00000000000c5040	jsonreader.obj	?dtor$0@?0??AddError@wxJSONReader@@IEAAXAEBVwxString@@@Z@4HA
00000000000c5040	jsonreader.obj	?dtor$0@?0??AddWarning@wxJSONReader@@IEAAXHAEBVwxString@@@Z@4HA
00000000000c504c	jsonreader.obj	?dtor$39@?0??AddError@wxJSONReader@@IEAAXAEBVwxString@@@Z@4HA
00000000000c504c	jsonreader.obj	?dtor$39@?0??AddWarning@wxJSONReader@@IEAAXHAEBVwxString@@@Z@4HA
00000000000c5058	jsonreader.obj	?dtor$40@?0??AddError@wxJSONReader@@IEAAXAEBVwxString@@@Z@4HA
00000000000c5058	jsonreader.obj	?dtor$40@?0??AddWarning@wxJSONReader@@IEAAXHAEBVwxString@@@Z@4HA
00000000000c5068	jsonreader.obj	?dtor$1@?0??AddError@wxJSONReader@@IEAAXAEBVwxString@@@Z@4HA
00000000000c5068	jsonreader.obj	?dtor$1@?0??AddWarning@wxJSONReader@@IEAAXHAEBVwxString@@@Z@4HA
00000000000c5074	jsonreader.obj	?dtor$3@?0??AddError@wxJSONReader@@IEAAXAEBVwxString@@@Z@4HA
00000000000c5074	jsonreader.obj	?dtor$3@?0??AddWarning@wxJSONReader@@IEAAXHAEBVwxString@@@Z@4HA
00000000000c509d	jsonreader.obj	?dtor$11@?0??AddError@wxJSONReader@@IEAAXAEBVwxString@@@Z@4HA
00000000000c509d	jsonreader.obj	?dtor$11@?0??AddWarning@wxJSONReader@@IEAAXHAEBVwxString@@@Z@4HA
00000000000c50a9	jsonreader.obj	?dtor$12@?0??AddError@wxJSONReader@@IEAAXAEBVwxString@@@Z@4HA
00000000000c50a9	jsonreader.obj	?dtor$12@?0??AddWarning@wxJSONReader@@IEAAXHAEBVwxString@@@Z@4HA
00000000000c50b9	jsonreader.obj	?dtor$4@?0??AddError@wxJSONReader@@IEAAXAEBVwxString@@@Z@4HA
00000000000c50b9	jsonreader.obj	?dtor$4@?0??AddWarning@wxJSONReader@@IEAAXHAEBVwxString@@@Z@4HA
00000000000c50c5	jsonreader.obj	?dtor$5@?0??AddError@wxJSONReader@@IEAAXAEBVwxString@@@Z@4HA
00000000000c50c5	jsonreader.obj	?dtor$5@?0??AddWarning@wxJSONReader@@IEAAXHAEBVwxString@@@Z@4HA
00000000000c50d1	jsonreader.obj	?dtor$6@?0??AddError@wxJSONReader@@IEAAXAEBVwxString@@@Z@4HA
00000000000c50d1	jsonreader.obj	?dtor$6@?0??AddWarning@wxJSONReader@@IEAAXHAEBVwxString@@@Z@4HA
00000000000c50dd	jsonreader.obj	?dtor$7@?0??AddError@wxJSONReader@@IEAAXAEBVwxString@@@Z@4HA
00000000000c50dd	jsonreader.obj	?dtor$7@?0??AddWarning@wxJSONReader@@IEAAXHAEBVwxString@@@Z@4HA
00000000000c50e9	jsonreader.obj	?dtor$29@?0??AddError@wxJSONReader@@IEAAXAEBVwxString@@@Z@4HA
00000000000c50e9	jsonreader.obj	?dtor$29@?0??AddWarning@wxJSONReader@@IEAAXHAEBVwxString@@@Z@4HA
00000000000c50f5	jsonreader.obj	?dtor$8@?0??AddError@wxJSONReader@@IEAAXAEBVwxString@@@Z@4HA
00000000000c50f5	jsonreader.obj	?dtor$8@?0??AddWarning@wxJSONReader@@IEAAXHAEBVwxString@@@Z@4HA
00000000000c5101	jsonreader.obj	?dtor$33@?0??AddError@wxJSONReader@@IEAAXAEBVwxString@@@Z@4HA
00000000000c5101	jsonreader.obj	?dtor$33@?0??AddWarning@wxJSONReader@@IEAAXHAEBVwxString@@@Z@4HA
00000000000c5110	jsonreader.obj	?dtor$0@?0??AddError@wxJSONReader@@IEAAXAEBVwxString@@0@Z@4HA
00000000000c511c	jsonreader.obj	?dtor$1@?0??AddError@wxJSONReader@@IEAAXAEBVwxString@@0@Z@4HA
00000000000c5128	jsonreader.obj	?dtor$7@?0??AddError@wxJSONReader@@IEAAXAEBVwxString@@0@Z@4HA
00000000000c5134	jsonreader.obj	?dtor$8@?0??AddError@wxJSONReader@@IEAAXAEBVwxString@@0@Z@4HA
00000000000c5144	jsonreader.obj	?dtor$2@?0??AddError@wxJSONReader@@IEAAXAEBVwxString@@0@Z@4HA
00000000000c5150	jsonreader.obj	?dtor$10@?0??AddError@wxJSONReader@@IEAAXAEBVwxString@@0@Z@4HA
00000000000c5160	jsonreader.obj	?dtor$0@?0??AddError@wxJSONReader@@IEAAXAEBVwxString@@_W@Z@4HA
00000000000c516c	jsonreader.obj	?dtor$1@?0??AddError@wxJSONReader@@IEAAXAEBVwxString@@_W@Z@4HA
00000000000c5178	jsonreader.obj	?dtor$6@?0??AddError@wxJSONReader@@IEAAXAEBVwxString@@_W@Z@4HA
00000000000c5184	jsonreader.obj	?dtor$7@?0??AddError@wxJSONReader@@IEAAXAEBVwxString@@_W@Z@4HA
00000000000c5194	jsonreader.obj	?dtor$2@?0??AddError@wxJSONReader@@IEAAXAEBVwxString@@_W@Z@4HA
00000000000c51a0	jsonreader.obj	?dtor$0@?0??SkipWhiteSpace@wxJSONReader@@IEAAHAEAVwxInputStream@@@Z@4HA
00000000000c51c9	jsonreader.obj	?dtor$6@?0??SkipWhiteSpace@wxJSONReader@@IEAAHAEAVwxInputStream@@@Z@4HA
00000000000c51d5	jsonreader.obj	?dtor$7@?0??SkipWhiteSpace@wxJSONReader@@IEAAHAEAVwxInputStream@@@Z@4HA
00000000000c51e5	jsonreader.obj	?dtor$1@?0??SkipWhiteSpace@wxJSONReader@@IEAAHAEAVwxInputStream@@@Z@4HA
00000000000c51f1	jsonreader.obj	?dtor$2@?0??SkipWhiteSpace@wxJSONReader@@IEAAHAEAVwxInputStream@@@Z@4HA
00000000000c51fd	jsonreader.obj	?dtor$3@?0??SkipWhiteSpace@wxJSONReader@@IEAAHAEAVwxInputStream@@@Z@4HA
00000000000c5210	jsonreader.obj	?dtor$0@?0??SkipComment@wxJSONReader@@IEAAHAEAVwxInputStream@@@Z@4HA
00000000000c5236	jsonreader.obj	?dtor$80@?0??SkipComment@wxJSONReader@@IEAAHAEAVwxInputStream@@@Z@4HA
00000000000c5242	jsonreader.obj	?dtor$81@?0??SkipComment@wxJSONReader@@IEAAHAEAVwxInputStream@@@Z@4HA
00000000000c5252	jsonreader.obj	?dtor$1@?0??SkipComment@wxJSONReader@@IEAAHAEAVwxInputStream@@@Z@4HA
00000000000c525e	jsonreader.obj	?dtor$2@?0??SkipComment@wxJSONReader@@IEAAHAEAVwxInputStream@@@Z@4HA
00000000000c526a	jsonreader.obj	?dtor$3@?0??SkipComment@wxJSONReader@@IEAAHAEAVwxInputStream@@@Z@4HA
00000000000c5276	jsonreader.obj	?dtor$4@?0??SkipComment@wxJSONReader@@IEAAHAEAVwxInputStream@@@Z@4HA
00000000000c5282	jsonreader.obj	?dtor$5@?0??SkipComment@wxJSONReader@@IEAAHAEAVwxInputStream@@@Z@4HA
00000000000c528e	jsonreader.obj	?dtor$99@?0??SkipComment@wxJSONReader@@IEAAHAEAVwxInputStream@@@Z@4HA
00000000000c529a	jsonreader.obj	?dtor$6@?0??SkipComment@wxJSONReader@@IEAAHAEAVwxInputStream@@@Z@4HA
00000000000c52a6	jsonreader.obj	?dtor$7@?0??SkipComment@wxJSONReader@@IEAAHAEAVwxInputStream@@@Z@4HA
00000000000c52b2	jsonreader.obj	?dtor$8@?0??SkipComment@wxJSONReader@@IEAAHAEAVwxInputStream@@@Z@4HA
00000000000c52be	jsonreader.obj	?dtor$110@?0??SkipComment@wxJSONReader@@IEAAHAEAVwxInputStream@@@Z@4HA
00000000000c52ca	jsonreader.obj	?dtor$9@?0??SkipComment@wxJSONReader@@IEAAHAEAVwxInputStream@@@Z@4HA
00000000000c52d6	jsonreader.obj	?dtor$10@?0??SkipComment@wxJSONReader@@IEAAHAEAVwxInputStream@@@Z@4HA
00000000000c52e2	jsonreader.obj	?dtor$11@?0??SkipComment@wxJSONReader@@IEAAHAEAVwxInputStream@@@Z@4HA
00000000000c530b	jsonreader.obj	?dtor$67@?0??SkipComment@wxJSONReader@@IEAAHAEAVwxInputStream@@@Z@4HA
00000000000c5317	jsonreader.obj	?dtor$68@?0??SkipComment@wxJSONReader@@IEAAHAEAVwxInputStream@@@Z@4HA
00000000000c5327	jsonreader.obj	?dtor$12@?0??SkipComment@wxJSONReader@@IEAAHAEAVwxInputStream@@@Z@4HA
00000000000c5333	jsonreader.obj	?dtor$13@?0??SkipComment@wxJSONReader@@IEAAHAEAVwxInputStream@@@Z@4HA
00000000000c533f	jsonreader.obj	?dtor$14@?0??SkipComment@wxJSONReader@@IEAAHAEAVwxInputStream@@@Z@4HA
00000000000c534b	jsonreader.obj	?dtor$15@?0??SkipComment@wxJSONReader@@IEAAHAEAVwxInputStream@@@Z@4HA
00000000000c5374	jsonreader.obj	?dtor$51@?0??SkipComment@wxJSONReader@@IEAAHAEAVwxInputStream@@@Z@4HA
00000000000c5380	jsonreader.obj	?dtor$52@?0??SkipComment@wxJSONReader@@IEAAHAEAVwxInputStream@@@Z@4HA
00000000000c5390	jsonreader.obj	?dtor$16@?0??SkipComment@wxJSONReader@@IEAAHAEAVwxInputStream@@@Z@4HA
00000000000c539c	jsonreader.obj	?dtor$17@?0??SkipComment@wxJSONReader@@IEAAHAEAVwxInputStream@@@Z@4HA
00000000000c53a8	jsonreader.obj	?dtor$18@?0??SkipComment@wxJSONReader@@IEAAHAEAVwxInputStream@@@Z@4HA
00000000000c53b4	jsonreader.obj	?dtor$19@?0??SkipComment@wxJSONReader@@IEAAHAEAVwxInputStream@@@Z@4HA
00000000000c53dd	jsonreader.obj	?dtor$24@?0??SkipComment@wxJSONReader@@IEAAHAEAVwxInputStream@@@Z@4HA
00000000000c53e9	jsonreader.obj	?dtor$25@?0??SkipComment@wxJSONReader@@IEAAHAEAVwxInputStream@@@Z@4HA
00000000000c53f9	jsonreader.obj	?dtor$20@?0??SkipComment@wxJSONReader@@IEAAHAEAVwxInputStream@@@Z@4HA
00000000000c5405	jsonreader.obj	?dtor$21@?0??SkipComment@wxJSONReader@@IEAAHAEAVwxInputStream@@@Z@4HA
00000000000c5411	jsonreader.obj	?dtor$22@?0??SkipComment@wxJSONReader@@IEAAHAEAVwxInputStream@@@Z@4HA
00000000000c541d	jsonreader.obj	?dtor$23@?0??SkipComment@wxJSONReader@@IEAAHAEAVwxInputStream@@@Z@4HA
00000000000c5430	jsonreader.obj	?dtor$0@?0??ReadString@wxJSONReader@@IEAAHAEAVwxInputStream@@AEAVwxJSONValue@@@Z@4HA
00000000000c543c	jsonreader.obj	?dtor$1@?0??ReadString@wxJSONReader@@IEAAHAEAVwxInputStream@@AEAVwxJSONValue@@@Z@4HA
00000000000c5448	jsonreader.obj	?dtor$2@?0??ReadString@wxJSONReader@@IEAAHAEAVwxInputStream@@AEAVwxJSONValue@@@Z@4HA
00000000000c5454	jsonreader.obj	?dtor$3@?0??ReadString@wxJSONReader@@IEAAHAEAVwxInputStream@@AEAVwxJSONValue@@@Z@4HA
00000000000c5460	jsonreader.obj	?dtor$4@?0??ReadString@wxJSONReader@@IEAAHAEAVwxInputStream@@AEAVwxJSONValue@@@Z@4HA
00000000000c546c	jsonreader.obj	?dtor$143@?0??ReadString@wxJSONReader@@IEAAHAEAVwxInputStream@@AEAVwxJSONValue@@@Z@4HA
00000000000c5478	jsonreader.obj	?dtor$5@?0??ReadString@wxJSONReader@@IEAAHAEAVwxInputStream@@AEAVwxJSONValue@@@Z@4HA
00000000000c5484	jsonreader.obj	?dtor$6@?0??ReadString@wxJSONReader@@IEAAHAEAVwxInputStream@@AEAVwxJSONValue@@@Z@4HA
00000000000c54ad	jsonreader.obj	?dtor$114@?0??ReadString@wxJSONReader@@IEAAHAEAVwxInputStream@@AEAVwxJSONValue@@@Z@4HA
00000000000c54b9	jsonreader.obj	?dtor$115@?0??ReadString@wxJSONReader@@IEAAHAEAVwxInputStream@@AEAVwxJSONValue@@@Z@4HA
00000000000c54c9	jsonreader.obj	?dtor$7@?0??ReadString@wxJSONReader@@IEAAHAEAVwxInputStream@@AEAVwxJSONValue@@@Z@4HA
00000000000c54d5	jsonreader.obj	?dtor$8@?0??ReadString@wxJSONReader@@IEAAHAEAVwxInputStream@@AEAVwxJSONValue@@@Z@4HA
00000000000c54e1	jsonreader.obj	?dtor$9@?0??ReadString@wxJSONReader@@IEAAHAEAVwxInputStream@@AEAVwxJSONValue@@@Z@4HA
00000000000c54ed	jsonreader.obj	?dtor$10@?0??ReadString@wxJSONReader@@IEAAHAEAVwxInputStream@@AEAVwxJSONValue@@@Z@4HA
00000000000c5516	jsonreader.obj	?dtor$99@?0??ReadString@wxJSONReader@@IEAAHAEAVwxInputStream@@AEAVwxJSONValue@@@Z@4HA
00000000000c5522	jsonreader.obj	?dtor$100@?0??ReadString@wxJSONReader@@IEAAHAEAVwxInputStream@@AEAVwxJSONValue@@@Z@4HA
00000000000c5532	jsonreader.obj	?dtor$11@?0??ReadString@wxJSONReader@@IEAAHAEAVwxInputStream@@AEAVwxJSONValue@@@Z@4HA
00000000000c553e	jsonreader.obj	?dtor$12@?0??ReadString@wxJSONReader@@IEAAHAEAVwxInputStream@@AEAVwxJSONValue@@@Z@4HA
00000000000c554a	jsonreader.obj	?dtor$13@?0??ReadString@wxJSONReader@@IEAAHAEAVwxInputStream@@AEAVwxJSONValue@@@Z@4HA
00000000000c5556	jsonreader.obj	?dtor$14@?0??ReadString@wxJSONReader@@IEAAHAEAVwxInputStream@@AEAVwxJSONValue@@@Z@4HA
00000000000c5562	jsonreader.obj	?dtor$15@?0??ReadString@wxJSONReader@@IEAAHAEAVwxInputStream@@AEAVwxJSONValue@@@Z@4HA
00000000000c558b	jsonreader.obj	?dtor$67@?0??ReadString@wxJSONReader@@IEAAHAEAVwxInputStream@@AEAVwxJSONValue@@@Z@4HA
00000000000c5597	jsonreader.obj	?dtor$68@?0??ReadString@wxJSONReader@@IEAAHAEAVwxInputStream@@AEAVwxJSONValue@@@Z@4HA
00000000000c55a7	jsonreader.obj	?dtor$16@?0??ReadString@wxJSONReader@@IEAAHAEAVwxInputStream@@AEAVwxJSONValue@@@Z@4HA
00000000000c55b3	jsonreader.obj	?dtor$17@?0??ReadString@wxJSONReader@@IEAAHAEAVwxInputStream@@AEAVwxJSONValue@@@Z@4HA
00000000000c55bf	jsonreader.obj	?dtor$18@?0??ReadString@wxJSONReader@@IEAAHAEAVwxInputStream@@AEAVwxJSONValue@@@Z@4HA
00000000000c55cb	jsonreader.obj	?dtor$19@?0??ReadString@wxJSONReader@@IEAAHAEAVwxInputStream@@AEAVwxJSONValue@@@Z@4HA
00000000000c55d7	jsonreader.obj	?dtor$20@?0??ReadString@wxJSONReader@@IEAAHAEAVwxInputStream@@AEAVwxJSONValue@@@Z@4HA
00000000000c55e3	jsonreader.obj	?dtor$21@?0??ReadString@wxJSONReader@@IEAAHAEAVwxInputStream@@AEAVwxJSONValue@@@Z@4HA
00000000000c560c	jsonreader.obj	?dtor$35@?0??ReadString@wxJSONReader@@IEAAHAEAVwxInputStream@@AEAVwxJSONValue@@@Z@4HA
00000000000c5618	jsonreader.obj	?dtor$36@?0??ReadString@wxJSONReader@@IEAAHAEAVwxInputStream@@AEAVwxJSONValue@@@Z@4HA
00000000000c5628	jsonreader.obj	?dtor$22@?0??ReadString@wxJSONReader@@IEAAHAEAVwxInputStream@@AEAVwxJSONValue@@@Z@4HA
00000000000c5634	jsonreader.obj	?dtor$23@?0??ReadString@wxJSONReader@@IEAAHAEAVwxInputStream@@AEAVwxJSONValue@@@Z@4HA
00000000000c5640	jsonreader.obj	?dtor$24@?0??ReadString@wxJSONReader@@IEAAHAEAVwxInputStream@@AEAVwxJSONValue@@@Z@4HA
00000000000c564c	jsonreader.obj	?dtor$25@?0??ReadString@wxJSONReader@@IEAAHAEAVwxInputStream@@AEAVwxJSONValue@@@Z@4HA
00000000000c5658	jsonreader.obj	?dtor$26@?0??ReadString@wxJSONReader@@IEAAHAEAVwxInputStream@@AEAVwxJSONValue@@@Z@4HA
00000000000c5681	jsonreader.obj	?dtor$57@?0??ReadString@wxJSONReader@@IEAAHAEAVwxInputStream@@AEAVwxJSONValue@@@Z@4HA
00000000000c568d	jsonreader.obj	?dtor$58@?0??ReadString@wxJSONReader@@IEAAHAEAVwxInputStream@@AEAVwxJSONValue@@@Z@4HA
00000000000c569d	jsonreader.obj	?dtor$27@?0??ReadString@wxJSONReader@@IEAAHAEAVwxInputStream@@AEAVwxJSONValue@@@Z@4HA
00000000000c56a9	jsonreader.obj	?dtor$28@?0??ReadString@wxJSONReader@@IEAAHAEAVwxInputStream@@AEAVwxJSONValue@@@Z@4HA
00000000000c56b5	jsonreader.obj	?dtor$29@?0??ReadString@wxJSONReader@@IEAAHAEAVwxInputStream@@AEAVwxJSONValue@@@Z@4HA
00000000000c56c1	jsonreader.obj	?dtor$30@?0??ReadString@wxJSONReader@@IEAAHAEAVwxInputStream@@AEAVwxJSONValue@@@Z@4HA
00000000000c56d0	jsonreader.obj	?dtor$0@?0??ReadToken@wxJSONReader@@IEAAHAEAVwxInputStream@@HAEAVwxString@@@Z@4HA
00000000000c56f9	jsonreader.obj	?dtor$37@?0??ReadToken@wxJSONReader@@IEAAHAEAVwxInputStream@@HAEAVwxString@@@Z@4HA
00000000000c5705	jsonreader.obj	?dtor$38@?0??ReadToken@wxJSONReader@@IEAAHAEAVwxInputStream@@HAEAVwxString@@@Z@4HA
00000000000c5715	jsonreader.obj	?dtor$1@?0??ReadToken@wxJSONReader@@IEAAHAEAVwxInputStream@@HAEAVwxString@@@Z@4HA
00000000000c5721	jsonreader.obj	?dtor$2@?0??ReadToken@wxJSONReader@@IEAAHAEAVwxInputStream@@HAEAVwxString@@@Z@4HA
00000000000c572d	jsonreader.obj	?dtor$3@?0??ReadToken@wxJSONReader@@IEAAHAEAVwxInputStream@@HAEAVwxString@@@Z@4HA
00000000000c5739	jsonreader.obj	?dtor$4@?0??ReadToken@wxJSONReader@@IEAAHAEAVwxInputStream@@HAEAVwxString@@@Z@4HA
00000000000c5762	jsonreader.obj	?dtor$30@?0??ReadToken@wxJSONReader@@IEAAHAEAVwxInputStream@@HAEAVwxString@@@Z@4HA
00000000000c576e	jsonreader.obj	?dtor$31@?0??ReadToken@wxJSONReader@@IEAAHAEAVwxInputStream@@HAEAVwxString@@@Z@4HA
00000000000c577e	jsonreader.obj	?dtor$5@?0??ReadToken@wxJSONReader@@IEAAHAEAVwxInputStream@@HAEAVwxString@@@Z@4HA
00000000000c578a	jsonreader.obj	?dtor$6@?0??ReadToken@wxJSONReader@@IEAAHAEAVwxInputStream@@HAEAVwxString@@@Z@4HA
00000000000c5796	jsonreader.obj	?dtor$7@?0??ReadToken@wxJSONReader@@IEAAHAEAVwxInputStream@@HAEAVwxString@@@Z@4HA
00000000000c57a2	jsonreader.obj	?dtor$8@?0??ReadToken@wxJSONReader@@IEAAHAEAVwxInputStream@@HAEAVwxString@@@Z@4HA
00000000000c57ae	jsonreader.obj	?dtor$9@?0??ReadToken@wxJSONReader@@IEAAHAEAVwxInputStream@@HAEAVwxString@@@Z@4HA
00000000000c57d7	jsonreader.obj	?dtor$71@?0??ReadToken@wxJSONReader@@IEAAHAEAVwxInputStream@@HAEAVwxString@@@Z@4HA
00000000000c57e3	jsonreader.obj	?dtor$72@?0??ReadToken@wxJSONReader@@IEAAHAEAVwxInputStream@@HAEAVwxString@@@Z@4HA
00000000000c57f3	jsonreader.obj	?dtor$10@?0??ReadToken@wxJSONReader@@IEAAHAEAVwxInputStream@@HAEAVwxString@@@Z@4HA
00000000000c57ff	jsonreader.obj	?dtor$11@?0??ReadToken@wxJSONReader@@IEAAHAEAVwxInputStream@@HAEAVwxString@@@Z@4HA
00000000000c580b	jsonreader.obj	?dtor$12@?0??ReadToken@wxJSONReader@@IEAAHAEAVwxInputStream@@HAEAVwxString@@@Z@4HA
00000000000c5817	jsonreader.obj	?dtor$13@?0??ReadToken@wxJSONReader@@IEAAHAEAVwxInputStream@@HAEAVwxString@@@Z@4HA
00000000000c5840	jsonreader.obj	?dtor$54@?0??ReadToken@wxJSONReader@@IEAAHAEAVwxInputStream@@HAEAVwxString@@@Z@4HA
00000000000c584c	jsonreader.obj	?dtor$55@?0??ReadToken@wxJSONReader@@IEAAHAEAVwxInputStream@@HAEAVwxString@@@Z@4HA
00000000000c585c	jsonreader.obj	?dtor$14@?0??ReadToken@wxJSONReader@@IEAAHAEAVwxInputStream@@HAEAVwxString@@@Z@4HA
00000000000c5868	jsonreader.obj	?dtor$15@?0??ReadToken@wxJSONReader@@IEAAHAEAVwxInputStream@@HAEAVwxString@@@Z@4HA
00000000000c5874	jsonreader.obj	?dtor$16@?0??ReadToken@wxJSONReader@@IEAAHAEAVwxInputStream@@HAEAVwxString@@@Z@4HA
00000000000c5880	jsonreader.obj	?dtor$17@?0??ReadToken@wxJSONReader@@IEAAHAEAVwxInputStream@@HAEAVwxString@@@Z@4HA
00000000000c5890	jsonreader.obj	?dtor$0@?0??ReadValue@wxJSONReader@@IEAAHAEAVwxInputStream@@HAEAVwxJSONValue@@@Z@4HA
00000000000c589c	jsonreader.obj	?dtor$1@?0??ReadValue@wxJSONReader@@IEAAHAEAVwxInputStream@@HAEAVwxJSONValue@@@Z@4HA
00000000000c58c2	jsonreader.obj	?dtor$73@?0??ReadValue@wxJSONReader@@IEAAHAEAVwxInputStream@@HAEAVwxJSONValue@@@Z@4HA
00000000000c58ce	jsonreader.obj	?dtor$74@?0??ReadValue@wxJSONReader@@IEAAHAEAVwxInputStream@@HAEAVwxJSONValue@@@Z@4HA
00000000000c58de	jsonreader.obj	?dtor$2@?0??ReadValue@wxJSONReader@@IEAAHAEAVwxInputStream@@HAEAVwxJSONValue@@@Z@4HA
00000000000c58ea	jsonreader.obj	?dtor$3@?0??ReadValue@wxJSONReader@@IEAAHAEAVwxInputStream@@HAEAVwxJSONValue@@@Z@4HA
00000000000c58f6	jsonreader.obj	?dtor$4@?0??ReadValue@wxJSONReader@@IEAAHAEAVwxInputStream@@HAEAVwxJSONValue@@@Z@4HA
00000000000c5902	jsonreader.obj	?dtor$5@?0??ReadValue@wxJSONReader@@IEAAHAEAVwxInputStream@@HAEAVwxJSONValue@@@Z@4HA
00000000000c590e	jsonreader.obj	?dtor$6@?0??ReadValue@wxJSONReader@@IEAAHAEAVwxInputStream@@HAEAVwxJSONValue@@@Z@4HA
00000000000c591a	jsonreader.obj	?dtor$7@?0??ReadValue@wxJSONReader@@IEAAHAEAVwxInputStream@@HAEAVwxJSONValue@@@Z@4HA
00000000000c5926	jsonreader.obj	?dtor$8@?0??ReadValue@wxJSONReader@@IEAAHAEAVwxInputStream@@HAEAVwxJSONValue@@@Z@4HA
00000000000c594c	jsonreader.obj	?dtor$58@?0??ReadValue@wxJSONReader@@IEAAHAEAVwxInputStream@@HAEAVwxJSONValue@@@Z@4HA
00000000000c5958	jsonreader.obj	?dtor$59@?0??ReadValue@wxJSONReader@@IEAAHAEAVwxInputStream@@HAEAVwxJSONValue@@@Z@4HA
00000000000c5968	jsonreader.obj	?dtor$9@?0??ReadValue@wxJSONReader@@IEAAHAEAVwxInputStream@@HAEAVwxJSONValue@@@Z@4HA
00000000000c5974	jsonreader.obj	?dtor$10@?0??ReadValue@wxJSONReader@@IEAAHAEAVwxInputStream@@HAEAVwxJSONValue@@@Z@4HA
00000000000c5980	jsonreader.obj	?dtor$11@?0??ReadValue@wxJSONReader@@IEAAHAEAVwxInputStream@@HAEAVwxJSONValue@@@Z@4HA
00000000000c598c	jsonreader.obj	?dtor$12@?0??ReadValue@wxJSONReader@@IEAAHAEAVwxInputStream@@HAEAVwxJSONValue@@@Z@4HA
00000000000c5998	jsonreader.obj	?dtor$13@?0??ReadValue@wxJSONReader@@IEAAHAEAVwxInputStream@@HAEAVwxJSONValue@@@Z@4HA
00000000000c59be	jsonreader.obj	?dtor$94@?0??ReadValue@wxJSONReader@@IEAAHAEAVwxInputStream@@HAEAVwxJSONValue@@@Z@4HA
00000000000c59ca	jsonreader.obj	?dtor$95@?0??ReadValue@wxJSONReader@@IEAAHAEAVwxInputStream@@HAEAVwxJSONValue@@@Z@4HA
00000000000c59da	jsonreader.obj	?dtor$14@?0??ReadValue@wxJSONReader@@IEAAHAEAVwxInputStream@@HAEAVwxJSONValue@@@Z@4HA
00000000000c59e6	jsonreader.obj	?dtor$15@?0??ReadValue@wxJSONReader@@IEAAHAEAVwxInputStream@@HAEAVwxJSONValue@@@Z@4HA
00000000000c59f2	jsonreader.obj	?dtor$16@?0??ReadValue@wxJSONReader@@IEAAHAEAVwxInputStream@@HAEAVwxJSONValue@@@Z@4HA
00000000000c59fe	jsonreader.obj	?dtor$17@?0??ReadValue@wxJSONReader@@IEAAHAEAVwxInputStream@@HAEAVwxJSONValue@@@Z@4HA
00000000000c5a0a	jsonreader.obj	?dtor$18@?0??ReadValue@wxJSONReader@@IEAAHAEAVwxInputStream@@HAEAVwxJSONValue@@@Z@4HA
00000000000c5a30	jsonreader.obj	?dtor$119@?0??ReadValue@wxJSONReader@@IEAAHAEAVwxInputStream@@HAEAVwxJSONValue@@@Z@4HA
00000000000c5a3c	jsonreader.obj	?dtor$120@?0??ReadValue@wxJSONReader@@IEAAHAEAVwxInputStream@@HAEAVwxJSONValue@@@Z@4HA
00000000000c5a4c	jsonreader.obj	?dtor$19@?0??ReadValue@wxJSONReader@@IEAAHAEAVwxInputStream@@HAEAVwxJSONValue@@@Z@4HA
00000000000c5a58	jsonreader.obj	?dtor$20@?0??ReadValue@wxJSONReader@@IEAAHAEAVwxInputStream@@HAEAVwxJSONValue@@@Z@4HA
00000000000c5a64	jsonreader.obj	?dtor$21@?0??ReadValue@wxJSONReader@@IEAAHAEAVwxInputStream@@HAEAVwxJSONValue@@@Z@4HA
00000000000c5a70	jsonreader.obj	?dtor$22@?0??ReadValue@wxJSONReader@@IEAAHAEAVwxInputStream@@HAEAVwxJSONValue@@@Z@4HA
00000000000c5a7c	jsonreader.obj	?dtor$23@?0??ReadValue@wxJSONReader@@IEAAHAEAVwxInputStream@@HAEAVwxJSONValue@@@Z@4HA
00000000000c5aa2	jsonreader.obj	?dtor$147@?0??ReadValue@wxJSONReader@@IEAAHAEAVwxInputStream@@HAEAVwxJSONValue@@@Z@4HA
00000000000c5aae	jsonreader.obj	?dtor$148@?0??ReadValue@wxJSONReader@@IEAAHAEAVwxInputStream@@HAEAVwxJSONValue@@@Z@4HA
00000000000c5abe	jsonreader.obj	?dtor$24@?0??ReadValue@wxJSONReader@@IEAAHAEAVwxInputStream@@HAEAVwxJSONValue@@@Z@4HA
00000000000c5aca	jsonreader.obj	?dtor$25@?0??ReadValue@wxJSONReader@@IEAAHAEAVwxInputStream@@HAEAVwxJSONValue@@@Z@4HA
00000000000c5ad6	jsonreader.obj	?dtor$26@?0??ReadValue@wxJSONReader@@IEAAHAEAVwxInputStream@@HAEAVwxJSONValue@@@Z@4HA
00000000000c5ae2	jsonreader.obj	?dtor$27@?0??ReadValue@wxJSONReader@@IEAAHAEAVwxInputStream@@HAEAVwxJSONValue@@@Z@4HA
00000000000c5aee	jsonreader.obj	?dtor$28@?0??ReadValue@wxJSONReader@@IEAAHAEAVwxInputStream@@HAEAVwxJSONValue@@@Z@4HA
00000000000c5b14	jsonreader.obj	?dtor$170@?0??ReadValue@wxJSONReader@@IEAAHAEAVwxInputStream@@HAEAVwxJSONValue@@@Z@4HA
00000000000c5b20	jsonreader.obj	?dtor$171@?0??ReadValue@wxJSONReader@@IEAAHAEAVwxInputStream@@HAEAVwxJSONValue@@@Z@4HA
00000000000c5b30	jsonreader.obj	?dtor$29@?0??ReadValue@wxJSONReader@@IEAAHAEAVwxInputStream@@HAEAVwxJSONValue@@@Z@4HA
00000000000c5b3c	jsonreader.obj	?dtor$30@?0??ReadValue@wxJSONReader@@IEAAHAEAVwxInputStream@@HAEAVwxJSONValue@@@Z@4HA
00000000000c5b48	jsonreader.obj	?dtor$31@?0??ReadValue@wxJSONReader@@IEAAHAEAVwxInputStream@@HAEAVwxJSONValue@@@Z@4HA
00000000000c5b54	jsonreader.obj	?dtor$32@?0??ReadValue@wxJSONReader@@IEAAHAEAVwxInputStream@@HAEAVwxJSONValue@@@Z@4HA
00000000000c5b60	jsonreader.obj	?dtor$33@?0??ReadValue@wxJSONReader@@IEAAHAEAVwxInputStream@@HAEAVwxJSONValue@@@Z@4HA
00000000000c5b86	jsonreader.obj	?dtor$195@?0??ReadValue@wxJSONReader@@IEAAHAEAVwxInputStream@@HAEAVwxJSONValue@@@Z@4HA
00000000000c5b92	jsonreader.obj	?dtor$196@?0??ReadValue@wxJSONReader@@IEAAHAEAVwxInputStream@@HAEAVwxJSONValue@@@Z@4HA
00000000000c5ba2	jsonreader.obj	?dtor$34@?0??ReadValue@wxJSONReader@@IEAAHAEAVwxInputStream@@HAEAVwxJSONValue@@@Z@4HA
00000000000c5bae	jsonreader.obj	?dtor$35@?0??ReadValue@wxJSONReader@@IEAAHAEAVwxInputStream@@HAEAVwxJSONValue@@@Z@4HA
00000000000c5bba	jsonreader.obj	?dtor$36@?0??ReadValue@wxJSONReader@@IEAAHAEAVwxInputStream@@HAEAVwxJSONValue@@@Z@4HA
00000000000c5bc6	jsonreader.obj	?dtor$37@?0??ReadValue@wxJSONReader@@IEAAHAEAVwxInputStream@@HAEAVwxJSONValue@@@Z@4HA
00000000000c5bd2	jsonreader.obj	?dtor$38@?0??ReadValue@wxJSONReader@@IEAAHAEAVwxInputStream@@HAEAVwxJSONValue@@@Z@4HA
00000000000c5bde	jsonreader.obj	?dtor$39@?0??ReadValue@wxJSONReader@@IEAAHAEAVwxInputStream@@HAEAVwxJSONValue@@@Z@4HA
00000000000c5c09	jsonreader.obj	?dtor$252@?0??ReadValue@wxJSONReader@@IEAAHAEAVwxInputStream@@HAEAVwxJSONValue@@@Z@4HA
00000000000c5c15	jsonreader.obj	?dtor$253@?0??ReadValue@wxJSONReader@@IEAAHAEAVwxInputStream@@HAEAVwxJSONValue@@@Z@4HA
00000000000c5c25	jsonreader.obj	?dtor$40@?0??ReadValue@wxJSONReader@@IEAAHAEAVwxInputStream@@HAEAVwxJSONValue@@@Z@4HA
00000000000c5c31	jsonreader.obj	?dtor$41@?0??ReadValue@wxJSONReader@@IEAAHAEAVwxInputStream@@HAEAVwxJSONValue@@@Z@4HA
00000000000c5c3d	jsonreader.obj	?dtor$42@?0??ReadValue@wxJSONReader@@IEAAHAEAVwxInputStream@@HAEAVwxJSONValue@@@Z@4HA
00000000000c5c49	jsonreader.obj	?dtor$43@?0??ReadValue@wxJSONReader@@IEAAHAEAVwxInputStream@@HAEAVwxJSONValue@@@Z@4HA
00000000000c5c77	jsonreader.obj	?dtor$233@?0??ReadValue@wxJSONReader@@IEAAHAEAVwxInputStream@@HAEAVwxJSONValue@@@Z@4HA
00000000000c5c83	jsonreader.obj	?dtor$234@?0??ReadValue@wxJSONReader@@IEAAHAEAVwxInputStream@@HAEAVwxJSONValue@@@Z@4HA
00000000000c5c93	jsonreader.obj	?dtor$44@?0??ReadValue@wxJSONReader@@IEAAHAEAVwxInputStream@@HAEAVwxJSONValue@@@Z@4HA
00000000000c5c9f	jsonreader.obj	?dtor$45@?0??ReadValue@wxJSONReader@@IEAAHAEAVwxInputStream@@HAEAVwxJSONValue@@@Z@4HA
00000000000c5cab	jsonreader.obj	?dtor$46@?0??ReadValue@wxJSONReader@@IEAAHAEAVwxInputStream@@HAEAVwxJSONValue@@@Z@4HA
00000000000c5cb7	jsonreader.obj	?dtor$47@?0??ReadValue@wxJSONReader@@IEAAHAEAVwxInputStream@@HAEAVwxJSONValue@@@Z@4HA
00000000000c5ce5	jsonreader.obj	?dtor$204@?0??ReadValue@wxJSONReader@@IEAAHAEAVwxInputStream@@HAEAVwxJSONValue@@@Z@4HA
00000000000c5cf1	jsonreader.obj	?dtor$205@?0??ReadValue@wxJSONReader@@IEAAHAEAVwxInputStream@@HAEAVwxJSONValue@@@Z@4HA
00000000000c5d01	jsonreader.obj	?dtor$48@?0??ReadValue@wxJSONReader@@IEAAHAEAVwxInputStream@@HAEAVwxJSONValue@@@Z@4HA
00000000000c5d0d	jsonreader.obj	?dtor$49@?0??ReadValue@wxJSONReader@@IEAAHAEAVwxInputStream@@HAEAVwxJSONValue@@@Z@4HA
00000000000c5d19	jsonreader.obj	?dtor$50@?0??ReadValue@wxJSONReader@@IEAAHAEAVwxInputStream@@HAEAVwxJSONValue@@@Z@4HA
00000000000c5d25	jsonreader.obj	?dtor$51@?0??ReadValue@wxJSONReader@@IEAAHAEAVwxInputStream@@HAEAVwxJSONValue@@@Z@4HA
00000000000c5d40	jsonreader.obj	?dtor$0@?0??AppendUES@wxJSONReader@@IEAAHAEAVwxMemoryBuffer@@PEBD@Z@4HA
00000000000c5d4c	jsonreader.obj	?dtor$1@?0??AppendUES@wxJSONReader@@IEAAHAEAVwxMemoryBuffer@@PEBD@Z@4HA
00000000000c5d72	jsonreader.obj	?dtor$7@?0??AppendUES@wxJSONReader@@IEAAHAEAVwxMemoryBuffer@@PEBD@Z@4HA
00000000000c5d7e	jsonreader.obj	?dtor$8@?0??AppendUES@wxJSONReader@@IEAAHAEAVwxMemoryBuffer@@PEBD@Z@4HA
00000000000c5d8e	jsonreader.obj	?dtor$2@?0??AppendUES@wxJSONReader@@IEAAHAEAVwxMemoryBuffer@@PEBD@Z@4HA
00000000000c5d9a	jsonreader.obj	?dtor$3@?0??AppendUES@wxJSONReader@@IEAAHAEAVwxMemoryBuffer@@PEBD@Z@4HA
00000000000c5da6	jsonreader.obj	?dtor$4@?0??AppendUES@wxJSONReader@@IEAAHAEAVwxMemoryBuffer@@PEBD@Z@4HA
00000000000c5dc0	jsonreader.obj	?dtor$0@?0??StoreComment@wxJSONReader@@IEAAXPEBVwxJSONValue@@@Z@4HA
00000000000c5de9	jsonreader.obj	?dtor$1@?0??StoreComment@wxJSONReader@@IEAAXPEBVwxJSONValue@@@Z@4HA
00000000000c5df5	jsonreader.obj	?dtor$2@?0??StoreComment@wxJSONReader@@IEAAXPEBVwxJSONValue@@@Z@4HA
00000000000c5e01	jsonreader.obj	?dtor$3@?0??StoreComment@wxJSONReader@@IEAAXPEBVwxJSONValue@@@Z@4HA
00000000000c5e0d	jsonreader.obj	?dtor$4@?0??StoreComment@wxJSONReader@@IEAAXPEBVwxJSONValue@@@Z@4HA
00000000000c5e19	jsonreader.obj	?dtor$5@?0??StoreComment@wxJSONReader@@IEAAXPEBVwxJSONValue@@@Z@4HA
00000000000c5e42	jsonreader.obj	?dtor$6@?0??StoreComment@wxJSONReader@@IEAAXPEBVwxJSONValue@@@Z@4HA
00000000000c5e4e	jsonreader.obj	?dtor$7@?0??StoreComment@wxJSONReader@@IEAAXPEBVwxJSONValue@@@Z@4HA
00000000000c5e5a	jsonreader.obj	?dtor$8@?0??StoreComment@wxJSONReader@@IEAAXPEBVwxJSONValue@@@Z@4HA
00000000000c5e66	jsonreader.obj	?dtor$9@?0??StoreComment@wxJSONReader@@IEAAXPEBVwxJSONValue@@@Z@4HA
00000000000c5e8f	jsonreader.obj	?dtor$10@?0??StoreComment@wxJSONReader@@IEAAXPEBVwxJSONValue@@@Z@4HA
00000000000c5e9b	jsonreader.obj	?dtor$11@?0??StoreComment@wxJSONReader@@IEAAXPEBVwxJSONValue@@@Z@4HA
00000000000c5ea7	jsonreader.obj	?dtor$12@?0??StoreComment@wxJSONReader@@IEAAXPEBVwxJSONValue@@@Z@4HA
00000000000c5eb3	jsonreader.obj	?dtor$13@?0??StoreComment@wxJSONReader@@IEAAXPEBVwxJSONValue@@@Z@4HA
00000000000c5edc	jsonreader.obj	?dtor$14@?0??StoreComment@wxJSONReader@@IEAAXPEBVwxJSONValue@@@Z@4HA
00000000000c5ee8	jsonreader.obj	?dtor$15@?0??StoreComment@wxJSONReader@@IEAAXPEBVwxJSONValue@@@Z@4HA
00000000000c5ef4	jsonreader.obj	?dtor$16@?0??StoreComment@wxJSONReader@@IEAAXPEBVwxJSONValue@@@Z@4HA
00000000000c5f00	jsonreader.obj	?dtor$17@?0??StoreComment@wxJSONReader@@IEAAXPEBVwxJSONValue@@@Z@4HA
00000000000c5f29	jsonreader.obj	?dtor$18@?0??StoreComment@wxJSONReader@@IEAAXPEBVwxJSONValue@@@Z@4HA
00000000000c5f35	jsonreader.obj	?dtor$19@?0??StoreComment@wxJSONReader@@IEAAXPEBVwxJSONValue@@@Z@4HA
00000000000c5f41	jsonreader.obj	?dtor$20@?0??StoreComment@wxJSONReader@@IEAAXPEBVwxJSONValue@@@Z@4HA
00000000000c5f4d	jsonreader.obj	?dtor$21@?0??StoreComment@wxJSONReader@@IEAAXPEBVwxJSONValue@@@Z@4HA
00000000000c5f76	jsonreader.obj	?dtor$22@?0??StoreComment@wxJSONReader@@IEAAXPEBVwxJSONValue@@@Z@4HA
00000000000c5f82	jsonreader.obj	?dtor$23@?0??StoreComment@wxJSONReader@@IEAAXPEBVwxJSONValue@@@Z@4HA
00000000000c5f8e	jsonreader.obj	?dtor$24@?0??StoreComment@wxJSONReader@@IEAAXPEBVwxJSONValue@@@Z@4HA
00000000000c5f9a	jsonreader.obj	?dtor$25@?0??StoreComment@wxJSONReader@@IEAAXPEBVwxJSONValue@@@Z@4HA
00000000000c5fc3	jsonreader.obj	?dtor$26@?0??StoreComment@wxJSONReader@@IEAAXPEBVwxJSONValue@@@Z@4HA
00000000000c5fcf	jsonreader.obj	?dtor$27@?0??StoreComment@wxJSONReader@@IEAAXPEBVwxJSONValue@@@Z@4HA
00000000000c5fdb	jsonreader.obj	?dtor$28@?0??StoreComment@wxJSONReader@@IEAAXPEBVwxJSONValue@@@Z@4HA
00000000000c5fe7	jsonreader.obj	?dtor$29@?0??StoreComment@wxJSONReader@@IEAAXPEBVwxJSONValue@@@Z@4HA
00000000000c6015	jsonreader.obj	?dtor$30@?0??StoreComment@wxJSONReader@@IEAAXPEBVwxJSONValue@@@Z@4HA
00000000000c6021	jsonreader.obj	?dtor$31@?0??StoreComment@wxJSONReader@@IEAAXPEBVwxJSONValue@@@Z@4HA
00000000000c602d	jsonreader.obj	?dtor$32@?0??StoreComment@wxJSONReader@@IEAAXPEBVwxJSONValue@@@Z@4HA
00000000000c6039	jsonreader.obj	?dtor$33@?0??StoreComment@wxJSONReader@@IEAAXPEBVwxJSONValue@@@Z@4HA
00000000000c6067	jsonreader.obj	?dtor$396@?0??StoreComment@wxJSONReader@@IEAAXPEBVwxJSONValue@@@Z@4HA
00000000000c6073	jsonreader.obj	?dtor$397@?0??StoreComment@wxJSONReader@@IEAAXPEBVwxJSONValue@@@Z@4HA
00000000000c6083	jsonreader.obj	?dtor$34@?0??StoreComment@wxJSONReader@@IEAAXPEBVwxJSONValue@@@Z@4HA
00000000000c608f	jsonreader.obj	?dtor$35@?0??StoreComment@wxJSONReader@@IEAAXPEBVwxJSONValue@@@Z@4HA
00000000000c609b	jsonreader.obj	?dtor$36@?0??StoreComment@wxJSONReader@@IEAAXPEBVwxJSONValue@@@Z@4HA
00000000000c60a7	jsonreader.obj	?dtor$37@?0??StoreComment@wxJSONReader@@IEAAXPEBVwxJSONValue@@@Z@4HA
00000000000c60d5	jsonreader.obj	?dtor$415@?0??StoreComment@wxJSONReader@@IEAAXPEBVwxJSONValue@@@Z@4HA
00000000000c60e1	jsonreader.obj	?dtor$416@?0??StoreComment@wxJSONReader@@IEAAXPEBVwxJSONValue@@@Z@4HA
00000000000c60f1	jsonreader.obj	?dtor$38@?0??StoreComment@wxJSONReader@@IEAAXPEBVwxJSONValue@@@Z@4HA
00000000000c60fd	jsonreader.obj	?dtor$39@?0??StoreComment@wxJSONReader@@IEAAXPEBVwxJSONValue@@@Z@4HA
00000000000c6109	jsonreader.obj	?dtor$40@?0??StoreComment@wxJSONReader@@IEAAXPEBVwxJSONValue@@@Z@4HA
00000000000c6115	jsonreader.obj	?dtor$41@?0??StoreComment@wxJSONReader@@IEAAXPEBVwxJSONValue@@@Z@4HA
00000000000c6140	jsonreader.obj	?dtor$64@?0??StoreComment@wxJSONReader@@IEAAXPEBVwxJSONValue@@@Z@4HA
00000000000c614c	jsonreader.obj	?dtor$65@?0??StoreComment@wxJSONReader@@IEAAXPEBVwxJSONValue@@@Z@4HA
00000000000c615c	jsonreader.obj	?dtor$42@?0??StoreComment@wxJSONReader@@IEAAXPEBVwxJSONValue@@@Z@4HA
00000000000c6168	jsonreader.obj	?dtor$43@?0??StoreComment@wxJSONReader@@IEAAXPEBVwxJSONValue@@@Z@4HA
00000000000c6174	jsonreader.obj	?dtor$44@?0??StoreComment@wxJSONReader@@IEAAXPEBVwxJSONValue@@@Z@4HA
00000000000c6180	jsonreader.obj	?dtor$45@?0??StoreComment@wxJSONReader@@IEAAXPEBVwxJSONValue@@@Z@4HA
00000000000c618c	jsonreader.obj	?dtor$46@?0??StoreComment@wxJSONReader@@IEAAXPEBVwxJSONValue@@@Z@4HA
00000000000c61ba	jsonreader.obj	?dtor$47@?0??StoreComment@wxJSONReader@@IEAAXPEBVwxJSONValue@@@Z@4HA
00000000000c61c6	jsonreader.obj	?dtor$48@?0??StoreComment@wxJSONReader@@IEAAXPEBVwxJSONValue@@@Z@4HA
00000000000c61d2	jsonreader.obj	?dtor$49@?0??StoreComment@wxJSONReader@@IEAAXPEBVwxJSONValue@@@Z@4HA
00000000000c61de	jsonreader.obj	?dtor$50@?0??StoreComment@wxJSONReader@@IEAAXPEBVwxJSONValue@@@Z@4HA
00000000000c620c	jsonreader.obj	?dtor$51@?0??StoreComment@wxJSONReader@@IEAAXPEBVwxJSONValue@@@Z@4HA
00000000000c6218	jsonreader.obj	?dtor$52@?0??StoreComment@wxJSONReader@@IEAAXPEBVwxJSONValue@@@Z@4HA
00000000000c6224	jsonreader.obj	?dtor$53@?0??StoreComment@wxJSONReader@@IEAAXPEBVwxJSONValue@@@Z@4HA
00000000000c6230	jsonreader.obj	?dtor$54@?0??StoreComment@wxJSONReader@@IEAAXPEBVwxJSONValue@@@Z@4HA
00000000000c625e	jsonreader.obj	?dtor$55@?0??StoreComment@wxJSONReader@@IEAAXPEBVwxJSONValue@@@Z@4HA
00000000000c626a	jsonreader.obj	?dtor$56@?0??StoreComment@wxJSONReader@@IEAAXPEBVwxJSONValue@@@Z@4HA
00000000000c6276	jsonreader.obj	?dtor$57@?0??StoreComment@wxJSONReader@@IEAAXPEBVwxJSONValue@@@Z@4HA
00000000000c6282	jsonreader.obj	?dtor$58@?0??StoreComment@wxJSONReader@@IEAAXPEBVwxJSONValue@@@Z@4HA
00000000000c628e	jsonreader.obj	?dtor$59@?0??StoreComment@wxJSONReader@@IEAAXPEBVwxJSONValue@@@Z@4HA
00000000000c62b9	jsonreader.obj	?dtor$422@?0??StoreComment@wxJSONReader@@IEAAXPEBVwxJSONValue@@@Z@4HA
00000000000c62c5	jsonreader.obj	?dtor$423@?0??StoreComment@wxJSONReader@@IEAAXPEBVwxJSONValue@@@Z@4HA
00000000000c62d5	jsonreader.obj	?dtor$60@?0??StoreComment@wxJSONReader@@IEAAXPEBVwxJSONValue@@@Z@4HA
00000000000c62e1	jsonreader.obj	?dtor$61@?0??StoreComment@wxJSONReader@@IEAAXPEBVwxJSONValue@@@Z@4HA
00000000000c62ed	jsonreader.obj	?dtor$62@?0??StoreComment@wxJSONReader@@IEAAXPEBVwxJSONValue@@@Z@4HA
00000000000c62f9	jsonreader.obj	?dtor$63@?0??StoreComment@wxJSONReader@@IEAAXPEBVwxJSONValue@@@Z@4HA
00000000000c6310	jsonreader.obj	?dtor$0@?0??ReadMemoryBuff@wxJSONReader@@IEAAHAEAVwxInputStream@@AEAVwxJSONValue@@@Z@4HA
00000000000c631c	jsonreader.obj	?dtor$1@?0??ReadMemoryBuff@wxJSONReader@@IEAAHAEAVwxInputStream@@AEAVwxJSONValue@@@Z@4HA
00000000000c6328	jsonreader.obj	?dtor$2@?0??ReadMemoryBuff@wxJSONReader@@IEAAHAEAVwxInputStream@@AEAVwxJSONValue@@@Z@4HA
00000000000c6334	jsonreader.obj	?dtor$59@?0??ReadMemoryBuff@wxJSONReader@@IEAAHAEAVwxInputStream@@AEAVwxJSONValue@@@Z@4HA
00000000000c6340	jsonreader.obj	?dtor$60@?0??ReadMemoryBuff@wxJSONReader@@IEAAHAEAVwxInputStream@@AEAVwxJSONValue@@@Z@4HA
00000000000c6350	jsonreader.obj	?dtor$3@?0??ReadMemoryBuff@wxJSONReader@@IEAAHAEAVwxInputStream@@AEAVwxJSONValue@@@Z@4HA
00000000000c635c	jsonreader.obj	?dtor$4@?0??ReadMemoryBuff@wxJSONReader@@IEAAHAEAVwxInputStream@@AEAVwxJSONValue@@@Z@4HA
00000000000c6385	jsonreader.obj	?dtor$15@?0??ReadMemoryBuff@wxJSONReader@@IEAAHAEAVwxInputStream@@AEAVwxJSONValue@@@Z@4HA
00000000000c6391	jsonreader.obj	?dtor$16@?0??ReadMemoryBuff@wxJSONReader@@IEAAHAEAVwxInputStream@@AEAVwxJSONValue@@@Z@4HA
00000000000c63a1	jsonreader.obj	?dtor$5@?0??ReadMemoryBuff@wxJSONReader@@IEAAHAEAVwxInputStream@@AEAVwxJSONValue@@@Z@4HA
00000000000c63ad	jsonreader.obj	?dtor$6@?0??ReadMemoryBuff@wxJSONReader@@IEAAHAEAVwxInputStream@@AEAVwxJSONValue@@@Z@4HA
00000000000c63b9	jsonreader.obj	?dtor$7@?0??ReadMemoryBuff@wxJSONReader@@IEAAHAEAVwxInputStream@@AEAVwxJSONValue@@@Z@4HA
00000000000c63c5	jsonreader.obj	?dtor$28@?0??ReadMemoryBuff@wxJSONReader@@IEAAHAEAVwxInputStream@@AEAVwxJSONValue@@@Z@4HA
00000000000c63e2	jsonreader.obj	?dtor$8@?0??ReadMemoryBuff@wxJSONReader@@IEAAHAEAVwxInputStream@@AEAVwxJSONValue@@@Z@4HA
00000000000c640b	jsonreader.obj	?dtor$42@?0??ReadMemoryBuff@wxJSONReader@@IEAAHAEAVwxInputStream@@AEAVwxJSONValue@@@Z@4HA
00000000000c6417	jsonreader.obj	?dtor$43@?0??ReadMemoryBuff@wxJSONReader@@IEAAHAEAVwxInputStream@@AEAVwxJSONValue@@@Z@4HA
00000000000c6427	jsonreader.obj	?dtor$9@?0??ReadMemoryBuff@wxJSONReader@@IEAAHAEAVwxInputStream@@AEAVwxJSONValue@@@Z@4HA
00000000000c6433	jsonreader.obj	?dtor$10@?0??ReadMemoryBuff@wxJSONReader@@IEAAHAEAVwxInputStream@@AEAVwxJSONValue@@@Z@4HA
00000000000c643f	jsonreader.obj	?dtor$11@?0??ReadMemoryBuff@wxJSONReader@@IEAAHAEAVwxInputStream@@AEAVwxJSONValue@@@Z@4HA
00000000000c644b	jsonreader.obj	?dtor$12@?0??ReadMemoryBuff@wxJSONReader@@IEAAHAEAVwxInputStream@@AEAVwxJSONValue@@@Z@4HA
00000000000c6460	jsonreader.obj	?dtor$0@?0??CreateNonOwned@?$wxScopedCharTypeBuffer@D@@SA?BV1@PEBD_K@Z@4HA
00000000000c6460	jsonreader.obj	?dtor$0@?0??CreateNonOwned@?$wxScopedCharTypeBuffer@_W@@SA?BV1@PEB_W_K@Z@4HA
00000000000c6490	jsonreader.obj	?catch$2@?0??insert@?$vector@VwxString@@V?$allocator@VwxString@@@std@@@std@@QEAA?AV?$_Vector_iterator@V?$_Vector_val@U?$_Simple_types@VwxString@@@std@@@std@@@2@V?$_Vector_const_iterator@V?$_Vector_val@U?$_Simple_types@VwxString@@@std@@@std@@@2@_KAEBVwxString@@@Z@4HA
00000000000c649e	jsonreader.obj	__catch$?insert@?$vector@VwxString@@V?$allocator@VwxString@@@std@@@std@@QEAA?AV?$_Vector_iterator@V?$_Vector_val@U?$_Simple_types@VwxString@@@std@@@std@@@2@V?$_Vector_const_iterator@V?$_Vector_val@U?$_Simple_types@VwxString@@@std@@@std@@@2@_KAEBVwxString@@@Z$0
00000000000c64ca	jsonreader.obj	?dtor$0@?0??insert@?$vector@VwxString@@V?$allocator@VwxString@@@std@@@std@@QEAA?AV?$_Vector_iterator@V?$_Vector_val@U?$_Simple_types@VwxString@@@std@@@std@@@2@V?$_Vector_const_iterator@V?$_Vector_val@U?$_Simple_types@VwxString@@@std@@@std@@@2@_KAEBVwxString@@@Z@4HA
00000000000c64d6	jsonreader.obj	?dtor$1@?0??insert@?$vector@VwxString@@V?$allocator@VwxString@@@std@@@std@@QEAA?AV?$_Vector_iterator@V?$_Vector_val@U?$_Simple_types@VwxString@@@std@@@std@@@2@V?$_Vector_const_iterator@V?$_Vector_val@U?$_Simple_types@VwxString@@@std@@@std@@@2@_KAEBVwxString@@@Z@4HA
00000000000c64f0	jsonreader.obj	?dtor$1@?0???$LogTrace@PEBDHD@wxLogger@@QEAAXAEBVwxString@@AEBVwxFormatString@@PEBDHD@Z@4HA
00000000000c64fc	jsonreader.obj	?dtor$4@?0???$LogTrace@PEBDHD@wxLogger@@QEAAXAEBVwxString@@AEBVwxFormatString@@PEBDHD@Z@4HA
00000000000c6508	jsonreader.obj	?dtor$0@?0???$LogTrace@PEBDHD@wxLogger@@QEAAXAEBVwxString@@AEBVwxFormatString@@PEBDHD@Z@4HA
00000000000c6520	jsonreader.obj	?dtor$0@?0???$LogTrace@PEBDVwxCStrData@@@wxLogger@@QEAAXAEBVwxString@@AEBVwxFormatString@@PEBDVwxCStrData@@@Z@4HA
00000000000c652c	jsonreader.obj	?dtor$2@?0???$LogTrace@PEBDVwxCStrData@@@wxLogger@@QEAAXAEBVwxString@@AEBVwxFormatString@@PEBDVwxCStrData@@@Z@4HA
00000000000c6538	jsonreader.obj	?dtor$5@?0???$LogTrace@PEBDVwxCStrData@@@wxLogger@@QEAAXAEBVwxString@@AEBVwxFormatString@@PEBDVwxCStrData@@@Z@4HA
00000000000c6544	jsonreader.obj	?dtor$1@?0???$LogTrace@PEBDVwxCStrData@@@wxLogger@@QEAAXAEBVwxString@@AEBVwxFormatString@@PEBDVwxCStrData@@@Z@4HA
00000000000c6550	jsonreader.obj	?dtor$1@?0???$LogTrace@PEBD@wxLogger@@QEAAXAEBVwxString@@AEBVwxFormatString@@PEBD@Z@4HA
00000000000c655c	jsonreader.obj	?dtor$4@?0???$LogTrace@PEBD@wxLogger@@QEAAXAEBVwxString@@AEBVwxFormatString@@PEBD@Z@4HA
00000000000c6568	jsonreader.obj	?dtor$0@?0???$LogTrace@PEBD@wxLogger@@QEAAXAEBVwxString@@AEBVwxFormatString@@PEBD@Z@4HA
00000000000c6580	jsonreader.obj	?dtor$0@?0???$Printf@HHVwxCStrData@@@wxString@@QEAAHAEBVwxFormatString@@HHVwxCStrData@@@Z@4HA
00000000000c6580	jsonval.obj	?dtor$0@?0???$Printf@VwxCStrData@@H_K@wxString@@QEAAHAEBVwxFormatString@@VwxCStrData@@H_K@Z@4HA
00000000000c6580	wxbase33u:fmapbase.obj	?dtor$53@?0??NonInteractiveCharsetToEncoding@wxFontMapperBase@@IEAAHAEBVwxString@@@Z@4HA
00000000000c6580	wxbase33u:registry.obj	?dtor$7@?0??DeleteValue@wxRegKey@@QEAA_NAEBVwxString@@@Z@4HA
00000000000c6580	wxbase33u:registry.obj	?dtor$7@?0??GetNextKey@wxRegKey@@QEBA_NAEAVwxString@@AEAJ@Z@4HA
00000000000c6590	jsonreader.obj	?dtor$1@?0???$LogTrace@PEBDHH@wxLogger@@QEAAXAEBVwxString@@AEBVwxFormatString@@PEBDHH@Z@4HA
00000000000c659c	jsonreader.obj	?dtor$4@?0???$LogTrace@PEBDHH@wxLogger@@QEAAXAEBVwxString@@AEBVwxFormatString@@PEBDHH@Z@4HA
00000000000c65a8	jsonreader.obj	?dtor$0@?0???$LogTrace@PEBDHH@wxLogger@@QEAAXAEBVwxString@@AEBVwxFormatString@@PEBDHH@Z@4HA
00000000000c65c0	jsonreader.obj	?dtor$1@?0???$LogTrace@PEBDH@wxLogger@@QEAAXAEBVwxString@@AEBVwxFormatString@@PEBDH@Z@4HA
00000000000c65c0	jsonreader.obj	?dtor$1@?0???$LogTrace@PEBDPEAVwxJSONValue@@@wxLogger@@QEAAXAEBVwxString@@AEBVwxFormatString@@PEBDPEAVwxJSONValue@@@Z@4HA
00000000000c65c0	jsonreader.obj	?dtor$1@?0???$LogTrace@PEBD_N@wxLogger@@QEAAXAEBVwxString@@AEBVwxFormatString@@PEBD_N@Z@4HA
00000000000c65c0	jsonval.obj	?dtor$1@?0???$LogTrace@PEBDPEAVwxJSONRefData@@H@wxLogger@@QEAAXAEBVwxString@@AEBVwxFormatString@@PEBDPEAVwxJSONRefData@@H@Z@4HA
00000000000c65cc	jsonreader.obj	?dtor$4@?0???$LogTrace@PEBDH@wxLogger@@QEAAXAEBVwxString@@AEBVwxFormatString@@PEBDH@Z@4HA
00000000000c65cc	jsonreader.obj	?dtor$4@?0???$LogTrace@PEBDPEAVwxJSONValue@@@wxLogger@@QEAAXAEBVwxString@@AEBVwxFormatString@@PEBDPEAVwxJSONValue@@@Z@4HA
00000000000c65cc	jsonreader.obj	?dtor$4@?0???$LogTrace@PEBD_N@wxLogger@@QEAAXAEBVwxString@@AEBVwxFormatString@@PEBD_N@Z@4HA
00000000000c65cc	jsonval.obj	?dtor$4@?0???$LogTrace@PEBDPEAVwxJSONRefData@@H@wxLogger@@QEAAXAEBVwxString@@AEBVwxFormatString@@PEBDPEAVwxJSONRefData@@H@Z@4HA
00000000000c65d8	jsonreader.obj	?dtor$0@?0???$LogTrace@PEBDH@wxLogger@@QEAAXAEBVwxString@@AEBVwxFormatString@@PEBDH@Z@4HA
00000000000c65d8	jsonreader.obj	?dtor$0@?0???$LogTrace@PEBDPEAVwxJSONValue@@@wxLogger@@QEAAXAEBVwxString@@AEBVwxFormatString@@PEBDPEAVwxJSONValue@@@Z@4HA
00000000000c65d8	jsonreader.obj	?dtor$0@?0???$LogTrace@PEBD_N@wxLogger@@QEAAXAEBVwxString@@AEBVwxFormatString@@PEBD_N@Z@4HA
00000000000c65d8	jsonval.obj	?dtor$0@?0???$LogTrace@PEBDPEAVwxJSONRefData@@H@wxLogger@@QEAAXAEBVwxString@@AEBVwxFormatString@@PEBDPEAVwxJSONRefData@@H@Z@4HA
00000000000c65f0	jsonreader.obj	?dtor$2@?0???$LogTrace@PEBDPEBDK@wxLogger@@QEAAXAEBVwxString@@AEBVwxFormatString@@PEBD2K@Z@4HA
00000000000c65fc	jsonreader.obj	?dtor$5@?0???$LogTrace@PEBDPEBDK@wxLogger@@QEAAXAEBVwxString@@AEBVwxFormatString@@PEBD2K@Z@4HA
00000000000c6608	jsonreader.obj	?dtor$0@?0???$LogTrace@PEBDPEBDK@wxLogger@@QEAAXAEBVwxString@@AEBVwxFormatString@@PEBD2K@Z@4HA
00000000000c6614	jsonreader.obj	?dtor$10@?0???$LogTrace@PEBDPEBDK@wxLogger@@QEAAXAEBVwxString@@AEBVwxFormatString@@PEBD2K@Z@4HA
00000000000c6620	jsonreader.obj	?dtor$13@?0???$LogTrace@PEBDPEBDK@wxLogger@@QEAAXAEBVwxString@@AEBVwxFormatString@@PEBD2K@Z@4HA
00000000000c662c	jsonreader.obj	?dtor$1@?0???$LogTrace@PEBDPEBDK@wxLogger@@QEAAXAEBVwxString@@AEBVwxFormatString@@PEBD2K@Z@4HA
00000000000c6640	jsonreader.obj	?dtor$3@?0???$_Try_emplace@AEBVwxString@@$$V@?$_Hash@V?$_Umap_traits@VwxString@@V1@V?$_Uhash_compare@VwxString@@UwxStringHash@@UwxStringEqual@@@std@@V?$allocator@U?$pair@$$CBVwxString@@V1@@std@@@3@$0A@@std@@@std@@IEAA?AU?$pair@PEAU?$_List_node@U?$pair@$$CBVwxString@@V1@@std@@PEAX@std@@_N@1@AEBVwxString@@@Z@4HA
00000000000c664c	jsonreader.obj	?dtor$0@?0???$_Try_emplace@AEBVwxString@@$$V@?$_Hash@V?$_Umap_traits@VwxString@@V1@V?$_Uhash_compare@VwxString@@UwxStringHash@@UwxStringEqual@@@std@@V?$allocator@U?$pair@$$CBVwxString@@V1@@std@@@3@$0A@@std@@@std@@IEAA?AU?$pair@PEAU?$_List_node@U?$pair@$$CBVwxString@@V1@@std@@PEAX@std@@_N@1@AEBVwxString@@@Z@4HA
00000000000c6660	jsonreader.obj	?dtor$0@?0???$_Uninitialized_copy@PEAVwxString@@V?$allocator@VwxString@@@std@@@std@@YAPEAVwxString@@QEAV1@0PEAV1@AEAV?$allocator@VwxString@@@0@@Z@4HA
00000000000c6660	jsonreader.obj	?dtor$0@?0???$_Uninitialized_fill_n@V?$allocator@VwxString@@@std@@@std@@YAPEAVwxString@@PEAV1@_KAEBV1@AEAV?$allocator@VwxString@@@0@@Z@4HA
00000000000c6660	jsonreader.obj	?dtor$0@?0???$_Uninitialized_move@PEAVwxString@@V?$allocator@VwxString@@@std@@@std@@YAPEAVwxString@@QEAV1@0PEAV1@AEAV?$allocator@VwxString@@@0@@Z@4HA
00000000000c6660	wxbase33u:cmdline.obj	?dtor$0@?0??_Reallocate_exactly@?$vector@VwxString@@V?$allocator@VwxString@@@std@@@std@@AEAAX_K@Z@4HA
00000000000c6660	wxbase33u:filename.obj	?dtor$4@?0???0wxArrayString@@QEAA@AEBV0@@Z@4HA
00000000000c6670	jsonval.obj	?dtor$0@?0???0wxJSONRefData@@QEAA@XZ@4HA
00000000000c6680	jsonval.obj	?dtor$1@?0???0wxJSONRefData@@QEAA@XZ@4HA
00000000000c6690	jsonval.obj	?dtor$8@?0???0wxJSONRefData@@QEAA@XZ@4HA
00000000000c66a0	jsonval.obj	?dtor$9@?0???0wxJSONRefData@@QEAA@XZ@4HA
00000000000c66b0	jsonval.obj	?dtor$0@?0???0wxJSONValue@@QEAA@XZ@4HA
00000000000c66b0	jsonval.obj	?dtor$0@?0??Init@wxJSONValue@@IEAAPEAVwxJSONRefData@@W4wxJSONType@@@Z@4HA
00000000000c66d0	jsonval.obj	?dtor$0@?0??AsString@wxJSONValue@@QEBA?AVwxString@@XZ@4HA
00000000000c66f6	jsonval.obj	?dtor$17@?0??AsString@wxJSONValue@@QEBA?AVwxString@@XZ@4HA
00000000000c6702	jsonval.obj	?dtor$18@?0??AsString@wxJSONValue@@QEBA?AVwxString@@XZ@4HA
00000000000c6712	jsonval.obj	?dtor$1@?0??AsString@wxJSONValue@@QEBA?AVwxString@@XZ@4HA
00000000000c671e	jsonval.obj	?dtor$22@?0??AsString@wxJSONValue@@QEBA?AVwxString@@XZ@4HA
00000000000c672a	jsonval.obj	?dtor$23@?0??AsString@wxJSONValue@@QEBA?AVwxString@@XZ@4HA
00000000000c673a	jsonval.obj	?dtor$2@?0??AsString@wxJSONValue@@QEBA?AVwxString@@XZ@4HA
00000000000c6746	jsonval.obj	?dtor$27@?0??AsString@wxJSONValue@@QEBA?AVwxString@@XZ@4HA
00000000000c6752	jsonval.obj	?dtor$28@?0??AsString@wxJSONValue@@QEBA?AVwxString@@XZ@4HA
00000000000c6762	jsonval.obj	?dtor$3@?0??AsString@wxJSONValue@@QEBA?AVwxString@@XZ@4HA
00000000000c676e	jsonval.obj	?dtor$32@?0??AsString@wxJSONValue@@QEBA?AVwxString@@XZ@4HA
00000000000c677a	jsonval.obj	?dtor$33@?0??AsString@wxJSONValue@@QEBA?AVwxString@@XZ@4HA
00000000000c678a	jsonval.obj	?dtor$4@?0??AsString@wxJSONValue@@QEBA?AVwxString@@XZ@4HA
00000000000c6796	jsonval.obj	?dtor$37@?0??AsString@wxJSONValue@@QEBA?AVwxString@@XZ@4HA
00000000000c67a2	jsonval.obj	?dtor$38@?0??AsString@wxJSONValue@@QEBA?AVwxString@@XZ@4HA
00000000000c67b2	jsonval.obj	?dtor$5@?0??AsString@wxJSONValue@@QEBA?AVwxString@@XZ@4HA
00000000000c67be	jsonval.obj	?dtor$6@?0??AsString@wxJSONValue@@QEBA?AVwxString@@XZ@4HA
00000000000c67ca	jsonval.obj	?dtor$11@?0??AsString@wxJSONValue@@QEBA?AVwxString@@XZ@4HA
00000000000c67f0	jsonval.obj	?dtor$0@?0??GetMemberNames@wxJSONValue@@QEBA?AVwxArrayString@@XZ@4HA
00000000000c6816	jsonval.obj	?dtor$2@?0??GetMemberNames@wxJSONValue@@QEBA?AVwxArrayString@@XZ@4HA
00000000000c6830	jsonval.obj	?dtor$0@?0??Item@wxJSONValue@@QEAAAEAV1@AEBVwxString@@@Z@4HA
00000000000c6859	jsonval.obj	?dtor$62@?0??Item@wxJSONValue@@QEAAAEAV1@AEBVwxString@@@Z@4HA
00000000000c6865	jsonval.obj	?dtor$63@?0??Item@wxJSONValue@@QEAAAEAV1@AEBVwxString@@@Z@4HA
00000000000c6875	jsonval.obj	?dtor$1@?0??Item@wxJSONValue@@QEAAAEAV1@AEBVwxString@@@Z@4HA
00000000000c6881	jsonval.obj	?dtor$2@?0??Item@wxJSONValue@@QEAAAEAV1@AEBVwxString@@@Z@4HA
00000000000c688d	jsonval.obj	?dtor$3@?0??Item@wxJSONValue@@QEAAAEAV1@AEBVwxString@@@Z@4HA
00000000000c6899	jsonval.obj	?dtor$4@?0??Item@wxJSONValue@@QEAAAEAV1@AEBVwxString@@@Z@4HA
00000000000c68a5	jsonval.obj	?dtor$5@?0??Item@wxJSONValue@@QEAAAEAV1@AEBVwxString@@@Z@4HA
00000000000c68ce	jsonval.obj	?dtor$35@?0??Item@wxJSONValue@@QEAAAEAV1@AEBVwxString@@@Z@4HA
00000000000c68da	jsonval.obj	?dtor$36@?0??Item@wxJSONValue@@QEAAAEAV1@AEBVwxString@@@Z@4HA
00000000000c68ea	jsonval.obj	?dtor$6@?0??Item@wxJSONValue@@QEAAAEAV1@AEBVwxString@@@Z@4HA
00000000000c68f6	jsonval.obj	?dtor$7@?0??Item@wxJSONValue@@QEAAAEAV1@AEBVwxString@@@Z@4HA
00000000000c6902	jsonval.obj	?dtor$8@?0??Item@wxJSONValue@@QEAAAEAV1@AEBVwxString@@@Z@4HA
00000000000c690e	jsonval.obj	?dtor$9@?0??Item@wxJSONValue@@QEAAAEAV1@AEBVwxString@@@Z@4HA
00000000000c691a	jsonval.obj	?dtor$10@?0??Item@wxJSONValue@@QEAAAEAV1@AEBVwxString@@@Z@4HA
00000000000c6926	jsonval.obj	?dtor$11@?0??Item@wxJSONValue@@QEAAAEAV1@AEBVwxString@@@Z@4HA
00000000000c694f	jsonval.obj	?dtor$26@?0??Item@wxJSONValue@@QEAAAEAV1@AEBVwxString@@@Z@4HA
00000000000c695b	jsonval.obj	?dtor$27@?0??Item@wxJSONValue@@QEAAAEAV1@AEBVwxString@@@Z@4HA
00000000000c696b	jsonval.obj	?dtor$12@?0??Item@wxJSONValue@@QEAAAEAV1@AEBVwxString@@@Z@4HA
00000000000c6977	jsonval.obj	?dtor$13@?0??Item@wxJSONValue@@QEAAAEAV1@AEBVwxString@@@Z@4HA
00000000000c6983	jsonval.obj	?dtor$14@?0??Item@wxJSONValue@@QEAAAEAV1@AEBVwxString@@@Z@4HA
00000000000c698f	jsonval.obj	?dtor$15@?0??Item@wxJSONValue@@QEAAAEAV1@AEBVwxString@@@Z@4HA
00000000000c69a0	jsonval.obj	?dtor$0@?0??GetInfo@wxJSONValue@@QEBA?AVwxString@@XZ@4HA
00000000000c69c9	jsonval.obj	?dtor$11@?0??GetInfo@wxJSONValue@@QEBA?AVwxString@@XZ@4HA
00000000000c69d5	jsonval.obj	?dtor$12@?0??GetInfo@wxJSONValue@@QEBA?AVwxString@@XZ@4HA
00000000000c69e5	jsonval.obj	?dtor$1@?0??GetInfo@wxJSONValue@@QEBA?AVwxString@@XZ@4HA
00000000000c69f1	jsonval.obj	?dtor$16@?0??GetInfo@wxJSONValue@@QEBA?AVwxString@@XZ@4HA
00000000000c6a17	jsonval.obj	?dtor$3@?0??GetInfo@wxJSONValue@@QEBA?AVwxString@@XZ@4HA
00000000000c6a23	jsonval.obj	?dtor$4@?0??GetInfo@wxJSONValue@@QEBA?AVwxString@@XZ@4HA
00000000000c6a30	jsonval.obj	?dtor$0@?0??AddComment@wxJSONValue@@QEAAHAEBVwxString@@H@Z@4HA
00000000000c6a59	jsonval.obj	?dtor$85@?0??AddComment@wxJSONValue@@QEAAHAEBVwxString@@H@Z@4HA
00000000000c6a65	jsonval.obj	?dtor$86@?0??AddComment@wxJSONValue@@QEAAHAEBVwxString@@H@Z@4HA
00000000000c6a75	jsonval.obj	?dtor$1@?0??AddComment@wxJSONValue@@QEAAHAEBVwxString@@H@Z@4HA
00000000000c6a81	jsonval.obj	?dtor$2@?0??AddComment@wxJSONValue@@QEAAHAEBVwxString@@H@Z@4HA
00000000000c6a8d	jsonval.obj	?dtor$3@?0??AddComment@wxJSONValue@@QEAAHAEBVwxString@@H@Z@4HA
00000000000c6a99	jsonval.obj	?dtor$4@?0??AddComment@wxJSONValue@@QEAAHAEBVwxString@@H@Z@4HA
00000000000c6aa5	jsonval.obj	?dtor$5@?0??AddComment@wxJSONValue@@QEAAHAEBVwxString@@H@Z@4HA
00000000000c6ace	jsonval.obj	?dtor$32@?0??AddComment@wxJSONValue@@QEAAHAEBVwxString@@H@Z@4HA
00000000000c6ada	jsonval.obj	?dtor$33@?0??AddComment@wxJSONValue@@QEAAHAEBVwxString@@H@Z@4HA
00000000000c6aea	jsonval.obj	?dtor$6@?0??AddComment@wxJSONValue@@QEAAHAEBVwxString@@H@Z@4HA
00000000000c6af6	jsonval.obj	?dtor$7@?0??AddComment@wxJSONValue@@QEAAHAEBVwxString@@H@Z@4HA
00000000000c6b02	jsonval.obj	?dtor$8@?0??AddComment@wxJSONValue@@QEAAHAEBVwxString@@H@Z@4HA
00000000000c6b0e	jsonval.obj	?dtor$9@?0??AddComment@wxJSONValue@@QEAAHAEBVwxString@@H@Z@4HA
00000000000c6b37	jsonval.obj	?dtor$66@?0??AddComment@wxJSONValue@@QEAAHAEBVwxString@@H@Z@4HA
00000000000c6b43	jsonval.obj	?dtor$67@?0??AddComment@wxJSONValue@@QEAAHAEBVwxString@@H@Z@4HA
00000000000c6b53	jsonval.obj	?dtor$10@?0??AddComment@wxJSONValue@@QEAAHAEBVwxString@@H@Z@4HA
00000000000c6b5f	jsonval.obj	?dtor$11@?0??AddComment@wxJSONValue@@QEAAHAEBVwxString@@H@Z@4HA
00000000000c6b6b	jsonval.obj	?dtor$12@?0??AddComment@wxJSONValue@@QEAAHAEBVwxString@@H@Z@4HA
00000000000c6b77	jsonval.obj	?dtor$13@?0??AddComment@wxJSONValue@@QEAAHAEBVwxString@@H@Z@4HA
00000000000c6ba0	jsonval.obj	?dtor$102@?0??AddComment@wxJSONValue@@QEAAHAEBVwxString@@H@Z@4HA
00000000000c6bac	jsonval.obj	?dtor$103@?0??AddComment@wxJSONValue@@QEAAHAEBVwxString@@H@Z@4HA
00000000000c6bbc	jsonval.obj	?dtor$14@?0??AddComment@wxJSONValue@@QEAAHAEBVwxString@@H@Z@4HA
00000000000c6bc8	jsonval.obj	?dtor$15@?0??AddComment@wxJSONValue@@QEAAHAEBVwxString@@H@Z@4HA
00000000000c6bd4	jsonval.obj	?dtor$16@?0??AddComment@wxJSONValue@@QEAAHAEBVwxString@@H@Z@4HA
00000000000c6be0	jsonval.obj	?dtor$17@?0??AddComment@wxJSONValue@@QEAAHAEBVwxString@@H@Z@4HA
00000000000c6bec	jsonval.obj	?dtor$120@?0??AddComment@wxJSONValue@@QEAAHAEBVwxString@@H@Z@4HA
00000000000c6bf8	jsonval.obj	?dtor$18@?0??AddComment@wxJSONValue@@QEAAHAEBVwxString@@H@Z@4HA
00000000000c6c21	jsonval.obj	?dtor$52@?0??AddComment@wxJSONValue@@QEAAHAEBVwxString@@H@Z@4HA
00000000000c6c2d	jsonval.obj	?dtor$53@?0??AddComment@wxJSONValue@@QEAAHAEBVwxString@@H@Z@4HA
00000000000c6c3d	jsonval.obj	?dtor$19@?0??AddComment@wxJSONValue@@QEAAHAEBVwxString@@H@Z@4HA
00000000000c6c49	jsonval.obj	?dtor$20@?0??AddComment@wxJSONValue@@QEAAHAEBVwxString@@H@Z@4HA
00000000000c6c55	jsonval.obj	?dtor$21@?0??AddComment@wxJSONValue@@QEAAHAEBVwxString@@H@Z@4HA
00000000000c6c61	jsonval.obj	?dtor$118@?0??AddComment@wxJSONValue@@QEAAHAEBVwxString@@H@Z@4HA
00000000000c6c6d	jsonval.obj	?dtor$22@?0??AddComment@wxJSONValue@@QEAAHAEBVwxString@@H@Z@4HA
00000000000c6c96	jsonval.obj	?dtor$123@?0??AddComment@wxJSONValue@@QEAAHAEBVwxString@@H@Z@4HA
00000000000c6ca2	jsonval.obj	?dtor$124@?0??AddComment@wxJSONValue@@QEAAHAEBVwxString@@H@Z@4HA
00000000000c6cb2	jsonval.obj	?dtor$23@?0??AddComment@wxJSONValue@@QEAAHAEBVwxString@@H@Z@4HA
00000000000c6cbe	jsonval.obj	?dtor$24@?0??AddComment@wxJSONValue@@QEAAHAEBVwxString@@H@Z@4HA
00000000000c6cca	jsonval.obj	?dtor$25@?0??AddComment@wxJSONValue@@QEAAHAEBVwxString@@H@Z@4HA
00000000000c6cd6	jsonval.obj	?dtor$156@?0??AddComment@wxJSONValue@@QEAAHAEBVwxString@@H@Z@4HA
00000000000c6ce2	jsonval.obj	?dtor$26@?0??AddComment@wxJSONValue@@QEAAHAEBVwxString@@H@Z@4HA
00000000000c6d0b	jsonval.obj	?dtor$140@?0??AddComment@wxJSONValue@@QEAAHAEBVwxString@@H@Z@4HA
00000000000c6d17	jsonval.obj	?dtor$141@?0??AddComment@wxJSONValue@@QEAAHAEBVwxString@@H@Z@4HA
00000000000c6d27	jsonval.obj	?dtor$27@?0??AddComment@wxJSONValue@@QEAAHAEBVwxString@@H@Z@4HA
00000000000c6d33	jsonval.obj	?dtor$28@?0??AddComment@wxJSONValue@@QEAAHAEBVwxString@@H@Z@4HA
00000000000c6d3f	jsonval.obj	?dtor$29@?0??AddComment@wxJSONValue@@QEAAHAEBVwxString@@H@Z@4HA
00000000000c6d50	jsonval.obj	?dtor$0@?0??CloneRefData@wxJSONValue@@MEBAPEAVwxJSONRefData@@PEBV2@@Z@4HA
00000000000c6d6d	jsonval.obj	?dtor$1@?0??CloneRefData@wxJSONValue@@MEBAPEAVwxJSONRefData@@PEBV2@@Z@4HA
00000000000c6d8a	jsonval.obj	?dtor$2@?0??CloneRefData@wxJSONValue@@MEBAPEAVwxJSONRefData@@PEBV2@@Z@4HA
00000000000c6db3	jsonval.obj	?dtor$8@?0??CloneRefData@wxJSONValue@@MEBAPEAVwxJSONRefData@@PEBV2@@Z@4HA
00000000000c6dbf	jsonval.obj	?dtor$9@?0??CloneRefData@wxJSONValue@@MEBAPEAVwxJSONRefData@@PEBV2@@Z@4HA
00000000000c6dcf	jsonval.obj	?dtor$3@?0??CloneRefData@wxJSONValue@@MEBAPEAVwxJSONRefData@@PEBV2@@Z@4HA
00000000000c6ddb	jsonval.obj	?dtor$4@?0??CloneRefData@wxJSONValue@@MEBAPEAVwxJSONRefData@@PEBV2@@Z@4HA
00000000000c6de7	jsonval.obj	?dtor$5@?0??CloneRefData@wxJSONValue@@MEBAPEAVwxJSONRefData@@PEBV2@@Z@4HA
00000000000c6e00	jsonval.obj	?dtor$0@?0??CreateRefData@wxJSONValue@@MEBAPEAVwxJSONRefData@@XZ@4HA
00000000000c6e20	jsonval.obj	?dtor$0@?0??COW@wxJSONValue@@IEAAPEAVwxJSONRefData@@XZ@4HA
00000000000c6e49	jsonval.obj	?dtor$27@?0??COW@wxJSONValue@@IEAAPEAVwxJSONRefData@@XZ@4HA
00000000000c6e55	jsonval.obj	?dtor$28@?0??COW@wxJSONValue@@IEAAPEAVwxJSONRefData@@XZ@4HA
00000000000c6e65	jsonval.obj	?dtor$1@?0??COW@wxJSONValue@@IEAAPEAVwxJSONRefData@@XZ@4HA
00000000000c6e71	jsonval.obj	?dtor$2@?0??COW@wxJSONValue@@IEAAPEAVwxJSONRefData@@XZ@4HA
00000000000c6e7d	jsonval.obj	?dtor$3@?0??COW@wxJSONValue@@IEAAPEAVwxJSONRefData@@XZ@4HA
00000000000c6e89	jsonval.obj	?dtor$4@?0??COW@wxJSONValue@@IEAAPEAVwxJSONRefData@@XZ@4HA
00000000000c6eb2	jsonval.obj	?dtor$10@?0??COW@wxJSONValue@@IEAAPEAVwxJSONRefData@@XZ@4HA
00000000000c6ebe	jsonval.obj	?dtor$11@?0??COW@wxJSONValue@@IEAAPEAVwxJSONRefData@@XZ@4HA
00000000000c6ece	jsonval.obj	?dtor$5@?0??COW@wxJSONValue@@IEAAPEAVwxJSONRefData@@XZ@4HA
00000000000c6eda	jsonval.obj	?dtor$6@?0??COW@wxJSONValue@@IEAAPEAVwxJSONRefData@@XZ@4HA
00000000000c6ee6	jsonval.obj	?dtor$7@?0??COW@wxJSONValue@@IEAAPEAVwxJSONRefData@@XZ@4HA
00000000000c6f00	jsonval.obj	?dtor$0@?0??MemoryBuffToString@wxJSONValue@@SA?AVwxString@@PEBX_K1@Z@4HA
00000000000c6f29	jsonval.obj	?dtor$5@?0??MemoryBuffToString@wxJSONValue@@SA?AVwxString@@PEBX_K1@Z@4HA
00000000000c6f35	jsonval.obj	?dtor$6@?0??MemoryBuffToString@wxJSONValue@@SA?AVwxString@@PEBX_K1@Z@4HA
00000000000c6f45	jsonval.obj	?dtor$1@?0??MemoryBuffToString@wxJSONValue@@SA?AVwxString@@PEBX_K1@Z@4HA
00000000000c6f60	jsonval.obj	?dtor$1@?0??Add@?$wxBaseObjectArray@VwxJSONValue@@VwxObjectArrayTraitsForwxJSONInternalArray@@@@QEAAXAEBVwxJSONValue@@_K@Z@4HA
00000000000c6f80	jsonval.obj	?dtor$0@?0???4?$_Hash@V?$_Umap_traits@VwxString@@VwxJSONValue@@V?$_Uhash_compare@VwxString@@UwxStringHash@@UwxStringEqual@@@std@@V?$allocator@U?$pair@$$CBVwxString@@VwxJSONValue@@@std@@@4@$0A@@std@@@std@@QEAAAEAV01@AEBV01@@Z@4HA
00000000000c6f8c	jsonval.obj	?dtor$1@?0???4?$_Hash@V?$_Umap_traits@VwxString@@VwxJSONValue@@V?$_Uhash_compare@VwxString@@UwxStringHash@@UwxStringEqual@@@std@@V?$allocator@U?$pair@$$CBVwxString@@VwxJSONValue@@@std@@@4@$0A@@std@@@std@@QEAAAEAV01@AEBV01@@Z@4HA
00000000000c6fa0	jsonval.obj	?dtor$3@?0???$_Try_emplace@AEBVwxString@@$$V@?$_Hash@V?$_Umap_traits@VwxString@@VwxJSONValue@@V?$_Uhash_compare@VwxString@@UwxStringHash@@UwxStringEqual@@@std@@V?$allocator@U?$pair@$$CBVwxString@@VwxJSONValue@@@std@@@4@$0A@@std@@@std@@IEAA?AU?$pair@PEAU?$_List_node@U?$pair@$$CBVwxString@@VwxJSONValue@@@std@@PEAX@std@@_N@1@AEBVwxString@@@Z@4HA
00000000000c6fac	jsonval.obj	?dtor$5@?0???$_Try_emplace@AEBVwxString@@$$V@?$_Hash@V?$_Umap_traits@VwxString@@VwxJSONValue@@V?$_Uhash_compare@VwxString@@UwxStringHash@@UwxStringEqual@@@std@@V?$allocator@U?$pair@$$CBVwxString@@VwxJSONValue@@@std@@@4@$0A@@std@@@std@@IEAA?AU?$pair@PEAU?$_List_node@U?$pair@$$CBVwxString@@VwxJSONValue@@@std@@PEAX@std@@_N@1@AEBVwxString@@@Z@4HA
00000000000c6fb8	jsonval.obj	?dtor$0@?0???$_Try_emplace@AEBVwxString@@$$V@?$_Hash@V?$_Umap_traits@VwxString@@VwxJSONValue@@V?$_Uhash_compare@VwxString@@UwxStringHash@@UwxStringEqual@@@std@@V?$allocator@U?$pair@$$CBVwxString@@VwxJSONValue@@@std@@@4@$0A@@std@@@std@@IEAA?AU?$pair@PEAU?$_List_node@U?$pair@$$CBVwxString@@VwxJSONValue@@@std@@PEAX@std@@_N@1@AEBVwxString@@@Z@4HA
00000000000c6fd0	jsonval.obj	?dtor$0@?0???$_Append_range_unchecked@V?$_List_unchecked_const_iterator@V?$_List_val@U?$_List_simple_types@U?$pair@$$CBVwxString@@VwxJSONValue@@@std@@@std@@@std@@U_Iterator_base0@2@@std@@V12@@?$_List_node_insert_op2@V?$allocator@U?$_List_node@U?$pair@$$CBVwxString@@VwxJSONValue@@@std@@PEAX@std@@@std@@@std@@QEAAXV?$_List_unchecked_const_iterator@V?$_List_val@U?$_List_simple_types@U?$pair@$$CBVwxString@@VwxJSONValue@@@std@@@std@@@std@@U_Iterator_base0@2@@1@V21@@Z@4HA
00000000000c6fdc	jsonval.obj	?dtor$3@?0???$_Append_range_unchecked@V?$_List_unchecked_const_iterator@V?$_List_val@U?$_List_simple_types@U?$pair@$$CBVwxString@@VwxJSONValue@@@std@@@std@@@std@@U_Iterator_base0@2@@std@@V12@@?$_List_node_insert_op2@V?$allocator@U?$_List_node@U?$pair@$$CBVwxString@@VwxJSONValue@@@std@@PEAX@std@@@std@@@std@@QEAAXV?$_List_unchecked_const_iterator@V?$_List_val@U?$_List_simple_types@U?$pair@$$CBVwxString@@VwxJSONValue@@@std@@@std@@@std@@U_Iterator_base0@2@@1@V21@@Z@4HA
00000000000c6fe8	jsonval.obj	?dtor$1@?0???$_Append_range_unchecked@V?$_List_unchecked_const_iterator@V?$_List_val@U?$_List_simple_types@U?$pair@$$CBVwxString@@VwxJSONValue@@@std@@@std@@@std@@U_Iterator_base0@2@@std@@V12@@?$_List_node_insert_op2@V?$allocator@U?$_List_node@U?$pair@$$CBVwxString@@VwxJSONValue@@@std@@PEAX@std@@@std@@@std@@QEAAXV?$_List_unchecked_const_iterator@V?$_List_val@U?$_List_simple_types@U?$pair@$$CBVwxString@@VwxJSONValue@@@std@@@std@@@std@@U_Iterator_base0@2@@1@V21@@Z@4HA
00000000000c7000	automation.obj	?dtor$0@?0??ImplStr@wxString@@CA?AV?$wxScopedCharTypeBuffer@_W@@PEBDAEBVwxMBConv@@@Z@4HA
00000000000c700c	automation.obj	?dtor$1@?0??ImplStr@wxString@@CA?AV?$wxScopedCharTypeBuffer@_W@@PEBDAEBVwxMBConv@@@Z@4HA
00000000000c7040	automation.obj	?dtor$4@?0???0wxString@@QEAA@PEBD@Z@4HA
00000000000c7066	automation.obj	?dtor$3@?0???0wxString@@QEAA@PEBD@Z@4HA
00000000000c7080	automation.obj	?dtor$0@?0??ToStdString@wxString@@QEBA?AV?$basic_string@DU?$char_traits@D@std@@V?$allocator@D@2@@std@@AEBVwxMBConv@@@Z@4HA
00000000000c708c	automation.obj	?dtor$1@?0??ToStdString@wxString@@QEBA?AV?$basic_string@DU?$char_traits@D@std@@V?$allocator@D@2@@std@@AEBVwxMBConv@@@Z@4HA
00000000000c70c0	automation.obj	?dtor$2@?0???BwxString@@QEBA?AV?$basic_string@DU?$char_traits@D@std@@V?$allocator@D@2@@std@@XZ@4HA
00000000000c70e6	automation.obj	?dtor$1@?0???BwxString@@QEBA?AV?$basic_string@DU?$char_traits@D@std@@V?$allocator@D@2@@std@@XZ@4HA
00000000000c7100	automation.obj	?dtor$2@?0???4wxString@@QEAAAEAV0@PEBD@Z@4HA
00000000000c7126	automation.obj	?dtor$1@?0???4wxString@@QEAAAEAV0@PEBD@Z@4HA
00000000000c7140	automation.obj	?dtor$0@?0??HTTPSPost@Curl@@SA?AV?$basic_string@DU?$char_traits@D@std@@V?$allocator@D@2@@std@@AEBV23@AEBVwxString@@000HAEBV?$vector@U?$pair@V?$basic_string@DU?$char_traits@D@std@@V?$allocator@D@2@@std@@V12@@std@@V?$allocator@U?$pair@V?$basic_string@DU?$char_traits@D@std@@V?$allocator@D@2@@std@@V12@@std@@@2@@3@PEAH@Z@4HA
00000000000c714c	automation.obj	?dtor$1@?0??HTTPSPost@Curl@@SA?AV?$basic_string@DU?$char_traits@D@std@@V?$allocator@D@2@@std@@AEBV23@AEBVwxString@@000HAEBV?$vector@U?$pair@V?$basic_string@DU?$char_traits@D@std@@V?$allocator@D@2@@std@@V12@@std@@V?$allocator@U?$pair@V?$basic_string@DU?$char_traits@D@std@@V?$allocator@D@2@@std@@V12@@std@@@2@@3@PEAH@Z@4HA
00000000000c7158	automation.obj	?dtor$16@?0??HTTPSPost@Curl@@SA?AV?$basic_string@DU?$char_traits@D@std@@V?$allocator@D@2@@std@@AEBV23@AEBVwxString@@000HAEBV?$vector@U?$pair@V?$basic_string@DU?$char_traits@D@std@@V?$allocator@D@2@@std@@V12@@std@@V?$allocator@U?$pair@V?$basic_string@DU?$char_traits@D@std@@V?$allocator@D@2@@std@@V12@@std@@@2@@3@PEAH@Z@4HA
00000000000c7164	automation.obj	?dtor$17@?0??HTTPSPost@Curl@@SA?AV?$basic_string@DU?$char_traits@D@std@@V?$allocator@D@2@@std@@AEBV23@AEBVwxString@@000HAEBV?$vector@U?$pair@V?$basic_string@DU?$char_traits@D@std@@V?$allocator@D@2@@std@@V12@@std@@V?$allocator@U?$pair@V?$basic_string@DU?$char_traits@D@std@@V?$allocator@D@2@@std@@V12@@std@@@2@@3@PEAH@Z@4HA
00000000000c7174	automation.obj	?dtor$2@?0??HTTPSPost@Curl@@SA?AV?$basic_string@DU?$char_traits@D@std@@V?$allocator@D@2@@std@@AEBV23@AEBVwxString@@000HAEBV?$vector@U?$pair@V?$basic_string@DU?$char_traits@D@std@@V?$allocator@D@2@@std@@V12@@std@@V?$allocator@U?$pair@V?$basic_string@DU?$char_traits@D@std@@V?$allocator@D@2@@std@@V12@@std@@@2@@3@PEAH@Z@4HA
00000000000c7180	automation.obj	?dtor$3@?0??HTTPSPost@Curl@@SA?AV?$basic_string@DU?$char_traits@D@std@@V?$allocator@D@2@@std@@AEBV23@AEBVwxString@@000HAEBV?$vector@U?$pair@V?$basic_string@DU?$char_traits@D@std@@V?$allocator@D@2@@std@@V12@@std@@V?$allocator@U?$pair@V?$basic_string@DU?$char_traits@D@std@@V?$allocator@D@2@@std@@V12@@std@@@2@@3@PEAH@Z@4HA
00000000000c718c	automation.obj	?dtor$5@?0??HTTPSPost@Curl@@SA?AV?$basic_string@DU?$char_traits@D@std@@V?$allocator@D@2@@std@@AEBV23@AEBVwxString@@000HAEBV?$vector@U?$pair@V?$basic_string@DU?$char_traits@D@std@@V?$allocator@D@2@@std@@V12@@std@@V?$allocator@U?$pair@V?$basic_string@DU?$char_traits@D@std@@V?$allocator@D@2@@std@@V12@@std@@@2@@3@PEAH@Z@4HA
00000000000c7198	automation.obj	?dtor$6@?0??HTTPSPost@Curl@@SA?AV?$basic_string@DU?$char_traits@D@std@@V?$allocator@D@2@@std@@AEBV23@AEBVwxString@@000HAEBV?$vector@U?$pair@V?$basic_string@DU?$char_traits@D@std@@V?$allocator@D@2@@std@@V12@@std@@V?$allocator@U?$pair@V?$basic_string@DU?$char_traits@D@std@@V?$allocator@D@2@@std@@V12@@std@@@2@@3@PEAH@Z@4HA
00000000000c71a4	automation.obj	?dtor$7@?0??HTTPSPost@Curl@@SA?AV?$basic_string@DU?$char_traits@D@std@@V?$allocator@D@2@@std@@AEBV23@AEBVwxString@@000HAEBV?$vector@U?$pair@V?$basic_string@DU?$char_traits@D@std@@V?$allocator@D@2@@std@@V12@@std@@V?$allocator@U?$pair@V?$basic_string@DU?$char_traits@D@std@@V?$allocator@D@2@@std@@V12@@std@@@2@@3@PEAH@Z@4HA
00000000000c71b0	automation.obj	?dtor$8@?0??HTTPSPost@Curl@@SA?AV?$basic_string@DU?$char_traits@D@std@@V?$allocator@D@2@@std@@AEBV23@AEBVwxString@@000HAEBV?$vector@U?$pair@V?$basic_string@DU?$char_traits@D@std@@V?$allocator@D@2@@std@@V12@@std@@V?$allocator@U?$pair@V?$basic_string@DU?$char_traits@D@std@@V?$allocator@D@2@@std@@V12@@std@@@2@@3@PEAH@Z@4HA
00000000000c71bc	automation.obj	?dtor$10@?0??HTTPSPost@Curl@@SA?AV?$basic_string@DU?$char_traits@D@std@@V?$allocator@D@2@@std@@AEBV23@AEBVwxString@@000HAEBV?$vector@U?$pair@V?$basic_string@DU?$char_traits@D@std@@V?$allocator@D@2@@std@@V12@@std@@V?$allocator@U?$pair@V?$basic_string@DU?$char_traits@D@std@@V?$allocator@D@2@@std@@V12@@std@@@2@@3@PEAH@Z@4HA
00000000000c71c8	automation.obj	?dtor$11@?0??HTTPSPost@Curl@@SA?AV?$basic_string@DU?$char_traits@D@std@@V?$allocator@D@2@@std@@AEBV23@AEBVwxString@@000HAEBV?$vector@U?$pair@V?$basic_string@DU?$char_traits@D@std@@V?$allocator@D@2@@std@@V12@@std@@V?$allocator@U?$pair@V?$basic_string@DU?$char_traits@D@std@@V?$allocator@D@2@@std@@V12@@std@@@2@@3@PEAH@Z@4HA
00000000000c71d4	automation.obj	?dtor$12@?0??HTTPSPost@Curl@@SA?AV?$basic_string@DU?$char_traits@D@std@@V?$allocator@D@2@@std@@AEBV23@AEBVwxString@@000HAEBV?$vector@U?$pair@V?$basic_string@DU?$char_traits@D@std@@V?$allocator@D@2@@std@@V12@@std@@V?$allocator@U?$pair@V?$basic_string@DU?$char_traits@D@std@@V?$allocator@D@2@@std@@V12@@std@@@2@@3@PEAH@Z@4HA
00000000000c71e0	automation.obj	?dtor$0@?0??HTTPSGet@Curl@@SA?AV?$basic_string@DU?$char_traits@D@std@@V?$allocator@D@2@@std@@AEBV23@00HAEBV?$vector@U?$pair@V?$basic_string@DU?$char_traits@D@std@@V?$allocator@D@2@@std@@V12@@std@@V?$allocator@U?$pair@V?$basic_string@DU?$char_traits@D@std@@V?$allocator@D@2@@std@@V12@@std@@@2@@3@PEAH@Z@4HA
00000000000c71ec	automation.obj	?dtor$1@?0??HTTPSGet@Curl@@SA?AV?$basic_string@DU?$char_traits@D@std@@V?$allocator@D@2@@std@@AEBV23@00HAEBV?$vector@U?$pair@V?$basic_string@DU?$char_traits@D@std@@V?$allocator@D@2@@std@@V12@@std@@V?$allocator@U?$pair@V?$basic_string@DU?$char_traits@D@std@@V?$allocator@D@2@@std@@V12@@std@@@2@@3@PEAH@Z@4HA
00000000000c71f8	automation.obj	?dtor$2@?0??HTTPSGet@Curl@@SA?AV?$basic_string@DU?$char_traits@D@std@@V?$allocator@D@2@@std@@AEBV23@00HAEBV?$vector@U?$pair@V?$basic_string@DU?$char_traits@D@std@@V?$allocator@D@2@@std@@V12@@std@@V?$allocator@U?$pair@V?$basic_string@DU?$char_traits@D@std@@V?$allocator@D@2@@std@@V12@@std@@@2@@3@PEAH@Z@4HA
00000000000c7204	automation.obj	?dtor$3@?0??HTTPSGet@Curl@@SA?AV?$basic_string@DU?$char_traits@D@std@@V?$allocator@D@2@@std@@AEBV23@00HAEBV?$vector@U?$pair@V?$basic_string@DU?$char_traits@D@std@@V?$allocator@D@2@@std@@V12@@std@@V?$allocator@U?$pair@V?$basic_string@DU?$char_traits@D@std@@V?$allocator@D@2@@std@@V12@@std@@@2@@3@PEAH@Z@4HA
00000000000c7210	automation.obj	?dtor$4@?0??HTTPSGet@Curl@@SA?AV?$basic_string@DU?$char_traits@D@std@@V?$allocator@D@2@@std@@AEBV23@00HAEBV?$vector@U?$pair@V?$basic_string@DU?$char_traits@D@std@@V?$allocator@D@2@@std@@V12@@std@@V?$allocator@U?$pair@V?$basic_string@DU?$char_traits@D@std@@V?$allocator@D@2@@std@@V12@@std@@@2@@3@PEAH@Z@4HA
00000000000c7239	automation.obj	?dtor$5@?0??HTTPSGet@Curl@@SA?AV?$basic_string@DU?$char_traits@D@std@@V?$allocator@D@2@@std@@AEBV23@00HAEBV?$vector@U?$pair@V?$basic_string@DU?$char_traits@D@std@@V?$allocator@D@2@@std@@V12@@std@@V?$allocator@U?$pair@V?$basic_string@DU?$char_traits@D@std@@V?$allocator@D@2@@std@@V12@@std@@@2@@3@PEAH@Z@4HA
00000000000c7245	automation.obj	?dtor$19@?0??HTTPSGet@Curl@@SA?AV?$basic_string@DU?$char_traits@D@std@@V?$allocator@D@2@@std@@AEBV23@00HAEBV?$vector@U?$pair@V?$basic_string@DU?$char_traits@D@std@@V?$allocator@D@2@@std@@V12@@std@@V?$allocator@U?$pair@V?$basic_string@DU?$char_traits@D@std@@V?$allocator@D@2@@std@@V12@@std@@@2@@3@PEAH@Z@4HA
00000000000c7251	automation.obj	?dtor$20@?0??HTTPSGet@Curl@@SA?AV?$basic_string@DU?$char_traits@D@std@@V?$allocator@D@2@@std@@AEBV23@00HAEBV?$vector@U?$pair@V?$basic_string@DU?$char_traits@D@std@@V?$allocator@D@2@@std@@V12@@std@@V?$allocator@U?$pair@V?$basic_string@DU?$char_traits@D@std@@V?$allocator@D@2@@std@@V12@@std@@@2@@3@PEAH@Z@4HA
00000000000c7261	automation.obj	?dtor$7@?0??HTTPSGet@Curl@@SA?AV?$basic_string@DU?$char_traits@D@std@@V?$allocator@D@2@@std@@AEBV23@00HAEBV?$vector@U?$pair@V?$basic_string@DU?$char_traits@D@std@@V?$allocator@D@2@@std@@V12@@std@@V?$allocator@U?$pair@V?$basic_string@DU?$char_traits@D@std@@V?$allocator@D@2@@std@@V12@@std@@@2@@3@PEAH@Z@4HA
00000000000c726d	automation.obj	?dtor$8@?0??HTTPSGet@Curl@@SA?AV?$basic_string@DU?$char_traits@D@std@@V?$allocator@D@2@@std@@AEBV23@00HAEBV?$vector@U?$pair@V?$basic_string@DU?$char_traits@D@std@@V?$allocator@D@2@@std@@V12@@std@@V?$allocator@U?$pair@V?$basic_string@DU?$char_traits@D@std@@V?$allocator@D@2@@std@@V12@@std@@@2@@3@PEAH@Z@4HA
00000000000c7279	automation.obj	?dtor$10@?0??HTTPSGet@Curl@@SA?AV?$basic_string@DU?$char_traits@D@std@@V?$allocator@D@2@@std@@AEBV23@00HAEBV?$vector@U?$pair@V?$basic_string@DU?$char_traits@D@std@@V?$allocator@D@2@@std@@V12@@std@@V?$allocator@U?$pair@V?$basic_string@DU?$char_traits@D@std@@V?$allocator@D@2@@std@@V12@@std@@@2@@3@PEAH@Z@4HA
00000000000c7285	automation.obj	?dtor$11@?0??HTTPSGet@Curl@@SA?AV?$basic_string@DU?$char_traits@D@std@@V?$allocator@D@2@@std@@AEBV23@00HAEBV?$vector@U?$pair@V?$basic_string@DU?$char_traits@D@std@@V?$allocator@D@2@@std@@V12@@std@@V?$allocator@U?$pair@V?$basic_string@DU?$char_traits@D@std@@V?$allocator@D@2@@std@@V12@@std@@@2@@3@PEAH@Z@4HA
00000000000c7291	automation.obj	?dtor$12@?0??HTTPSGet@Curl@@SA?AV?$basic_string@DU?$char_traits@D@std@@V?$allocator@D@2@@std@@AEBV23@00HAEBV?$vector@U?$pair@V?$basic_string@DU?$char_traits@D@std@@V?$allocator@D@2@@std@@V12@@std@@V?$allocator@U?$pair@V?$basic_string@DU?$char_traits@D@std@@V?$allocator@D@2@@std@@V12@@std@@@2@@3@PEAH@Z@4HA
00000000000c729d	automation.obj	?dtor$13@?0??HTTPSGet@Curl@@SA?AV?$basic_string@DU?$char_traits@D@std@@V?$allocator@D@2@@std@@AEBV23@00HAEBV?$vector@U?$pair@V?$basic_string@DU?$char_traits@D@std@@V?$allocator@D@2@@std@@V12@@std@@V?$allocator@U?$pair@V?$basic_string@DU?$char_traits@D@std@@V?$allocator@D@2@@std@@V12@@std@@@2@@3@PEAH@Z@4HA
00000000000c72b0	automation.obj	?dtor$0@?0??xlDo_Output@@YAXAEBV?$basic_string@DU?$char_traits@D@std@@V?$allocator@D@2@@std@@0_N1@Z@4HA
00000000000c72bc	automation.obj	?dtor$1@?0??xlDo_Output@@YAXAEBV?$basic_string@DU?$char_traits@D@std@@V?$allocator@D@2@@std@@0_N1@Z@4HA
00000000000c72c8	automation.obj	?dtor$2@?0??xlDo_Output@@YAXAEBV?$basic_string@DU?$char_traits@D@std@@V?$allocator@D@2@@std@@0_N1@Z@4HA
00000000000c72d4	automation.obj	?dtor$3@?0??xlDo_Output@@YAXAEBV?$basic_string@DU?$char_traits@D@std@@V?$allocator@D@2@@std@@0_N1@Z@4HA
00000000000c72e0	automation.obj	?dtor$4@?0??xlDo_Output@@YAXAEBV?$basic_string@DU?$char_traits@D@std@@V?$allocator@D@2@@std@@0_N1@Z@4HA
00000000000c72ec	automation.obj	?dtor$5@?0??xlDo_Output@@YAXAEBV?$basic_string@DU?$char_traits@D@std@@V?$allocator@D@2@@std@@0_N1@Z@4HA
00000000000c72f8	automation.obj	?dtor$6@?0??xlDo_Output@@YAXAEBV?$basic_string@DU?$char_traits@D@std@@V?$allocator@D@2@@std@@0_N1@Z@4HA
00000000000c7304	automation.obj	?dtor$7@?0??xlDo_Output@@YAXAEBV?$basic_string@DU?$char_traits@D@std@@V?$allocator@D@2@@std@@0_N1@Z@4HA
00000000000c7310	automation.obj	?dtor$68@?0??xlDo_Output@@YAXAEBV?$basic_string@DU?$char_traits@D@std@@V?$allocator@D@2@@std@@0_N1@Z@4HA
00000000000c731c	automation.obj	?dtor$69@?0??xlDo_Output@@YAXAEBV?$basic_string@DU?$char_traits@D@std@@V?$allocator@D@2@@std@@0_N1@Z@4HA
00000000000c732c	automation.obj	?dtor$8@?0??xlDo_Output@@YAXAEBV?$basic_string@DU?$char_traits@D@std@@V?$allocator@D@2@@std@@0_N1@Z@4HA
00000000000c7338	automation.obj	?dtor$9@?0??xlDo_Output@@YAXAEBV?$basic_string@DU?$char_traits@D@std@@V?$allocator@D@2@@std@@0_N1@Z@4HA
00000000000c7344	automation.obj	?dtor$10@?0??xlDo_Output@@YAXAEBV?$basic_string@DU?$char_traits@D@std@@V?$allocator@D@2@@std@@0_N1@Z@4HA
00000000000c7350	automation.obj	?dtor$12@?0??xlDo_Output@@YAXAEBV?$basic_string@DU?$char_traits@D@std@@V?$allocator@D@2@@std@@0_N1@Z@4HA
00000000000c735c	automation.obj	?dtor$84@?0??xlDo_Output@@YAXAEBV?$basic_string@DU?$char_traits@D@std@@V?$allocator@D@2@@std@@0_N1@Z@4HA
00000000000c7368	automation.obj	?dtor$85@?0??xlDo_Output@@YAXAEBV?$basic_string@DU?$char_traits@D@std@@V?$allocator@D@2@@std@@0_N1@Z@4HA
00000000000c7378	automation.obj	?dtor$14@?0??xlDo_Output@@YAXAEBV?$basic_string@DU?$char_traits@D@std@@V?$allocator@D@2@@std@@0_N1@Z@4HA
00000000000c7384	automation.obj	?dtor$15@?0??xlDo_Output@@YAXAEBV?$basic_string@DU?$char_traits@D@std@@V?$allocator@D@2@@std@@0_N1@Z@4HA
00000000000c7390	automation.obj	?dtor$16@?0??xlDo_Output@@YAXAEBV?$basic_string@DU?$char_traits@D@std@@V?$allocator@D@2@@std@@0_N1@Z@4HA
00000000000c739c	automation.obj	?dtor$17@?0??xlDo_Output@@YAXAEBV?$basic_string@DU?$char_traits@D@std@@V?$allocator@D@2@@std@@0_N1@Z@4HA
00000000000c73a8	automation.obj	?dtor$53@?0??xlDo_Output@@YAXAEBV?$basic_string@DU?$char_traits@D@std@@V?$allocator@D@2@@std@@0_N1@Z@4HA
00000000000c73b4	automation.obj	?dtor$54@?0??xlDo_Output@@YAXAEBV?$basic_string@DU?$char_traits@D@std@@V?$allocator@D@2@@std@@0_N1@Z@4HA
00000000000c73c4	automation.obj	?dtor$58@?0??xlDo_Output@@YAXAEBV?$basic_string@DU?$char_traits@D@std@@V?$allocator@D@2@@std@@0_N1@Z@4HA
00000000000c73d0	automation.obj	?dtor$19@?0??xlDo_Output@@YAXAEBV?$basic_string@DU?$char_traits@D@std@@V?$allocator@D@2@@std@@0_N1@Z@4HA
00000000000c73dc	automation.obj	?dtor$20@?0??xlDo_Output@@YAXAEBV?$basic_string@DU?$char_traits@D@std@@V?$allocator@D@2@@std@@0_N1@Z@4HA
00000000000c73e8	automation.obj	?dtor$21@?0??xlDo_Output@@YAXAEBV?$basic_string@DU?$char_traits@D@std@@V?$allocator@D@2@@std@@0_N1@Z@4HA
00000000000c73f4	automation.obj	?dtor$22@?0??xlDo_Output@@YAXAEBV?$basic_string@DU?$char_traits@D@std@@V?$allocator@D@2@@std@@0_N1@Z@4HA
00000000000c7400	automation.obj	?dtor$24@?0??xlDo_Output@@YAXAEBV?$basic_string@DU?$char_traits@D@std@@V?$allocator@D@2@@std@@0_N1@Z@4HA
00000000000c740c	automation.obj	?dtor$25@?0??xlDo_Output@@YAXAEBV?$basic_string@DU?$char_traits@D@std@@V?$allocator@D@2@@std@@0_N1@Z@4HA
00000000000c741c	automation.obj	?dtor$23@?0??xlDo_Output@@YAXAEBV?$basic_string@DU?$char_traits@D@std@@V?$allocator@D@2@@std@@0_N1@Z@4HA
00000000000c7430	automation.obj	?dtor$0@?0??Automation@@YAH_NAEBV?$basic_string@DU?$char_traits@D@std@@V?$allocator@D@2@@std@@H11AEBV?$vector@VwxString@@V?$allocator@VwxString@@@std@@@2@1@Z@4HA
00000000000c743c	automation.obj	?dtor$1@?0??Automation@@YAH_NAEBV?$basic_string@DU?$char_traits@D@std@@V?$allocator@D@2@@std@@H11AEBV?$vector@VwxString@@V?$allocator@VwxString@@@std@@@2@1@Z@4HA
00000000000c7448	automation.obj	?dtor$2@?0??Automation@@YAH_NAEBV?$basic_string@DU?$char_traits@D@std@@V?$allocator@D@2@@std@@H11AEBV?$vector@VwxString@@V?$allocator@VwxString@@@std@@@2@1@Z@4HA
00000000000c7454	automation.obj	?dtor$3@?0??Automation@@YAH_NAEBV?$basic_string@DU?$char_traits@D@std@@V?$allocator@D@2@@std@@H11AEBV?$vector@VwxString@@V?$allocator@VwxString@@@std@@@2@1@Z@4HA
00000000000c7460	automation.obj	?dtor$4@?0??Automation@@YAH_NAEBV?$basic_string@DU?$char_traits@D@std@@V?$allocator@D@2@@std@@H11AEBV?$vector@VwxString@@V?$allocator@VwxString@@@std@@@2@1@Z@4HA
00000000000c746c	automation.obj	?dtor$5@?0??Automation@@YAH_NAEBV?$basic_string@DU?$char_traits@D@std@@V?$allocator@D@2@@std@@H11AEBV?$vector@VwxString@@V?$allocator@VwxString@@@std@@@2@1@Z@4HA
00000000000c7478	automation.obj	?dtor$6@?0??Automation@@YAH_NAEBV?$basic_string@DU?$char_traits@D@std@@V?$allocator@D@2@@std@@H11AEBV?$vector@VwxString@@V?$allocator@VwxString@@@std@@@2@1@Z@4HA
00000000000c7484	automation.obj	?dtor$7@?0??Automation@@YAH_NAEBV?$basic_string@DU?$char_traits@D@std@@V?$allocator@D@2@@std@@H11AEBV?$vector@VwxString@@V?$allocator@VwxString@@@std@@@2@1@Z@4HA
00000000000c7490	automation.obj	?dtor$148@?0??Automation@@YAH_NAEBV?$basic_string@DU?$char_traits@D@std@@V?$allocator@D@2@@std@@H11AEBV?$vector@VwxString@@V?$allocator@VwxString@@@std@@@2@1@Z@4HA
00000000000c749c	automation.obj	?dtor$149@?0??Automation@@YAH_NAEBV?$basic_string@DU?$char_traits@D@std@@V?$allocator@D@2@@std@@H11AEBV?$vector@VwxString@@V?$allocator@VwxString@@@std@@@2@1@Z@4HA
00000000000c74ac	automation.obj	?dtor$8@?0??Automation@@YAH_NAEBV?$basic_string@DU?$char_traits@D@std@@V?$allocator@D@2@@std@@H11AEBV?$vector@VwxString@@V?$allocator@VwxString@@@std@@@2@1@Z@4HA
00000000000c74b8	automation.obj	?dtor$9@?0??Automation@@YAH_NAEBV?$basic_string@DU?$char_traits@D@std@@V?$allocator@D@2@@std@@H11AEBV?$vector@VwxString@@V?$allocator@VwxString@@@std@@@2@1@Z@4HA
00000000000c74c4	automation.obj	?dtor$10@?0??Automation@@YAH_NAEBV?$basic_string@DU?$char_traits@D@std@@V?$allocator@D@2@@std@@H11AEBV?$vector@VwxString@@V?$allocator@VwxString@@@std@@@2@1@Z@4HA
00000000000c74d0	automation.obj	?dtor$69@?0??Automation@@YAH_NAEBV?$basic_string@DU?$char_traits@D@std@@V?$allocator@D@2@@std@@H11AEBV?$vector@VwxString@@V?$allocator@VwxString@@@std@@@2@1@Z@4HA
00000000000c74f0	automation.obj	?dtor$11@?0??Automation@@YAH_NAEBV?$basic_string@DU?$char_traits@D@std@@V?$allocator@D@2@@std@@H11AEBV?$vector@VwxString@@V?$allocator@VwxString@@@std@@@2@1@Z@4HA
00000000000c74fc	automation.obj	?dtor$12@?0??Automation@@YAH_NAEBV?$basic_string@DU?$char_traits@D@std@@V?$allocator@D@2@@std@@H11AEBV?$vector@VwxString@@V?$allocator@VwxString@@@std@@@2@1@Z@4HA
00000000000c7508	automation.obj	?dtor$13@?0??Automation@@YAH_NAEBV?$basic_string@DU?$char_traits@D@std@@V?$allocator@D@2@@std@@H11AEBV?$vector@VwxString@@V?$allocator@VwxString@@@std@@@2@1@Z@4HA
00000000000c7514	automation.obj	?dtor$14@?0??Automation@@YAH_NAEBV?$basic_string@DU?$char_traits@D@std@@V?$allocator@D@2@@std@@H11AEBV?$vector@VwxString@@V?$allocator@VwxString@@@std@@@2@1@Z@4HA
00000000000c7520	automation.obj	?dtor$15@?0??Automation@@YAH_NAEBV?$basic_string@DU?$char_traits@D@std@@V?$allocator@D@2@@std@@H11AEBV?$vector@VwxString@@V?$allocator@VwxString@@@std@@@2@1@Z@4HA
00000000000c752c	automation.obj	?dtor$16@?0??Automation@@YAH_NAEBV?$basic_string@DU?$char_traits@D@std@@V?$allocator@D@2@@std@@H11AEBV?$vector@VwxString@@V?$allocator@VwxString@@@std@@@2@1@Z@4HA
00000000000c7538	automation.obj	?dtor$17@?0??Automation@@YAH_NAEBV?$basic_string@DU?$char_traits@D@std@@V?$allocator@D@2@@std@@H11AEBV?$vector@VwxString@@V?$allocator@VwxString@@@std@@@2@1@Z@4HA
00000000000c7544	automation.obj	?dtor$18@?0??Automation@@YAH_NAEBV?$basic_string@DU?$char_traits@D@std@@V?$allocator@D@2@@std@@H11AEBV?$vector@VwxString@@V?$allocator@VwxString@@@std@@@2@1@Z@4HA
00000000000c7550	automation.obj	?dtor$19@?0??Automation@@YAH_NAEBV?$basic_string@DU?$char_traits@D@std@@V?$allocator@D@2@@std@@H11AEBV?$vector@VwxString@@V?$allocator@VwxString@@@std@@@2@1@Z@4HA
00000000000c755c	automation.obj	?dtor$20@?0??Automation@@YAH_NAEBV?$basic_string@DU?$char_traits@D@std@@V?$allocator@D@2@@std@@H11AEBV?$vector@VwxString@@V?$allocator@VwxString@@@std@@@2@1@Z@4HA
00000000000c7568	automation.obj	?dtor$21@?0??Automation@@YAH_NAEBV?$basic_string@DU?$char_traits@D@std@@V?$allocator@D@2@@std@@H11AEBV?$vector@VwxString@@V?$allocator@VwxString@@@std@@@2@1@Z@4HA
00000000000c7574	automation.obj	?dtor$22@?0??Automation@@YAH_NAEBV?$basic_string@DU?$char_traits@D@std@@V?$allocator@D@2@@std@@H11AEBV?$vector@VwxString@@V?$allocator@VwxString@@@std@@@2@1@Z@4HA
00000000000c7580	automation.obj	?dtor$23@?0??Automation@@YAH_NAEBV?$basic_string@DU?$char_traits@D@std@@V?$allocator@D@2@@std@@H11AEBV?$vector@VwxString@@V?$allocator@VwxString@@@std@@@2@1@Z@4HA
00000000000c758c	automation.obj	?dtor$24@?0??Automation@@YAH_NAEBV?$basic_string@DU?$char_traits@D@std@@V?$allocator@D@2@@std@@H11AEBV?$vector@VwxString@@V?$allocator@VwxString@@@std@@@2@1@Z@4HA
00000000000c7598	automation.obj	?dtor$219@?0??Automation@@YAH_NAEBV?$basic_string@DU?$char_traits@D@std@@V?$allocator@D@2@@std@@H11AEBV?$vector@VwxString@@V?$allocator@VwxString@@@std@@@2@1@Z@4HA
00000000000c75c6	automation.obj	?dtor$218@?0??Automation@@YAH_NAEBV?$basic_string@DU?$char_traits@D@std@@V?$allocator@D@2@@std@@H11AEBV?$vector@VwxString@@V?$allocator@VwxString@@@std@@@2@1@Z@4HA
00000000000c75d2	automation.obj	?dtor$26@?0??Automation@@YAH_NAEBV?$basic_string@DU?$char_traits@D@std@@V?$allocator@D@2@@std@@H11AEBV?$vector@VwxString@@V?$allocator@VwxString@@@std@@@2@1@Z@4HA
00000000000c75de	automation.obj	?dtor$27@?0??Automation@@YAH_NAEBV?$basic_string@DU?$char_traits@D@std@@V?$allocator@D@2@@std@@H11AEBV?$vector@VwxString@@V?$allocator@VwxString@@@std@@@2@1@Z@4HA
00000000000c75ea	automation.obj	?dtor$28@?0??Automation@@YAH_NAEBV?$basic_string@DU?$char_traits@D@std@@V?$allocator@D@2@@std@@H11AEBV?$vector@VwxString@@V?$allocator@VwxString@@@std@@@2@1@Z@4HA
00000000000c75f6	automation.obj	?dtor$29@?0??Automation@@YAH_NAEBV?$basic_string@DU?$char_traits@D@std@@V?$allocator@D@2@@std@@H11AEBV?$vector@VwxString@@V?$allocator@VwxString@@@std@@@2@1@Z@4HA
00000000000c7602	automation.obj	?dtor$30@?0??Automation@@YAH_NAEBV?$basic_string@DU?$char_traits@D@std@@V?$allocator@D@2@@std@@H11AEBV?$vector@VwxString@@V?$allocator@VwxString@@@std@@@2@1@Z@4HA
00000000000c760e	automation.obj	?dtor$31@?0??Automation@@YAH_NAEBV?$basic_string@DU?$char_traits@D@std@@V?$allocator@D@2@@std@@H11AEBV?$vector@VwxString@@V?$allocator@VwxString@@@std@@@2@1@Z@4HA
00000000000c761a	automation.obj	?dtor$233@?0??Automation@@YAH_NAEBV?$basic_string@DU?$char_traits@D@std@@V?$allocator@D@2@@std@@H11AEBV?$vector@VwxString@@V?$allocator@VwxString@@@std@@@2@1@Z@4HA
00000000000c7645	automation.obj	?dtor$232@?0??Automation@@YAH_NAEBV?$basic_string@DU?$char_traits@D@std@@V?$allocator@D@2@@std@@H11AEBV?$vector@VwxString@@V?$allocator@VwxString@@@std@@@2@1@Z@4HA
00000000000c7651	automation.obj	?dtor$33@?0??Automation@@YAH_NAEBV?$basic_string@DU?$char_traits@D@std@@V?$allocator@D@2@@std@@H11AEBV?$vector@VwxString@@V?$allocator@VwxString@@@std@@@2@1@Z@4HA
00000000000c765d	automation.obj	?dtor$34@?0??Automation@@YAH_NAEBV?$basic_string@DU?$char_traits@D@std@@V?$allocator@D@2@@std@@H11AEBV?$vector@VwxString@@V?$allocator@VwxString@@@std@@@2@1@Z@4HA
00000000000c7669	automation.obj	?dtor$35@?0??Automation@@YAH_NAEBV?$basic_string@DU?$char_traits@D@std@@V?$allocator@D@2@@std@@H11AEBV?$vector@VwxString@@V?$allocator@VwxString@@@std@@@2@1@Z@4HA
00000000000c7675	automation.obj	?dtor$74@?0??Automation@@YAH_NAEBV?$basic_string@DU?$char_traits@D@std@@V?$allocator@D@2@@std@@H11AEBV?$vector@VwxString@@V?$allocator@VwxString@@@std@@@2@1@Z@4HA
00000000000c76a0	automation.obj	?dtor$73@?0??Automation@@YAH_NAEBV?$basic_string@DU?$char_traits@D@std@@V?$allocator@D@2@@std@@H11AEBV?$vector@VwxString@@V?$allocator@VwxString@@@std@@@2@1@Z@4HA
00000000000c76ac	automation.obj	?dtor$38@?0??Automation@@YAH_NAEBV?$basic_string@DU?$char_traits@D@std@@V?$allocator@D@2@@std@@H11AEBV?$vector@VwxString@@V?$allocator@VwxString@@@std@@@2@1@Z@4HA
00000000000c76b8	automation.obj	?dtor$39@?0??Automation@@YAH_NAEBV?$basic_string@DU?$char_traits@D@std@@V?$allocator@D@2@@std@@H11AEBV?$vector@VwxString@@V?$allocator@VwxString@@@std@@@2@1@Z@4HA
00000000000c76c4	automation.obj	?dtor$40@?0??Automation@@YAH_NAEBV?$basic_string@DU?$char_traits@D@std@@V?$allocator@D@2@@std@@H11AEBV?$vector@VwxString@@V?$allocator@VwxString@@@std@@@2@1@Z@4HA
00000000000c76d0	automation.obj	?dtor$41@?0??Automation@@YAH_NAEBV?$basic_string@DU?$char_traits@D@std@@V?$allocator@D@2@@std@@H11AEBV?$vector@VwxString@@V?$allocator@VwxString@@@std@@@2@1@Z@4HA
00000000000c76dc	automation.obj	?dtor$42@?0??Automation@@YAH_NAEBV?$basic_string@DU?$char_traits@D@std@@V?$allocator@D@2@@std@@H11AEBV?$vector@VwxString@@V?$allocator@VwxString@@@std@@@2@1@Z@4HA
00000000000c76e8	automation.obj	?dtor$43@?0??Automation@@YAH_NAEBV?$basic_string@DU?$char_traits@D@std@@V?$allocator@D@2@@std@@H11AEBV?$vector@VwxString@@V?$allocator@VwxString@@@std@@@2@1@Z@4HA
00000000000c76f4	automation.obj	?dtor$44@?0??Automation@@YAH_NAEBV?$basic_string@DU?$char_traits@D@std@@V?$allocator@D@2@@std@@H11AEBV?$vector@VwxString@@V?$allocator@VwxString@@@std@@@2@1@Z@4HA
00000000000c7700	automation.obj	?dtor$45@?0??Automation@@YAH_NAEBV?$basic_string@DU?$char_traits@D@std@@V?$allocator@D@2@@std@@H11AEBV?$vector@VwxString@@V?$allocator@VwxString@@@std@@@2@1@Z@4HA
00000000000c770c	automation.obj	?dtor$135@?0??Automation@@YAH_NAEBV?$basic_string@DU?$char_traits@D@std@@V?$allocator@D@2@@std@@H11AEBV?$vector@VwxString@@V?$allocator@VwxString@@@std@@@2@1@Z@4HA
00000000000c773a	automation.obj	?dtor$134@?0??Automation@@YAH_NAEBV?$basic_string@DU?$char_traits@D@std@@V?$allocator@D@2@@std@@H11AEBV?$vector@VwxString@@V?$allocator@VwxString@@@std@@@2@1@Z@4HA
00000000000c7746	automation.obj	?dtor$46@?0??Automation@@YAH_NAEBV?$basic_string@DU?$char_traits@D@std@@V?$allocator@D@2@@std@@H11AEBV?$vector@VwxString@@V?$allocator@VwxString@@@std@@@2@1@Z@4HA
00000000000c776f	automation.obj	?dtor$47@?0??Automation@@YAH_NAEBV?$basic_string@DU?$char_traits@D@std@@V?$allocator@D@2@@std@@H11AEBV?$vector@VwxString@@V?$allocator@VwxString@@@std@@@2@1@Z@4HA
00000000000c7798	automation.obj	?dtor$48@?0??Automation@@YAH_NAEBV?$basic_string@DU?$char_traits@D@std@@V?$allocator@D@2@@std@@H11AEBV?$vector@VwxString@@V?$allocator@VwxString@@@std@@@2@1@Z@4HA
00000000000c77c1	automation.obj	?dtor$49@?0??Automation@@YAH_NAEBV?$basic_string@DU?$char_traits@D@std@@V?$allocator@D@2@@std@@H11AEBV?$vector@VwxString@@V?$allocator@VwxString@@@std@@@2@1@Z@4HA
00000000000c77ea	automation.obj	?dtor$50@?0??Automation@@YAH_NAEBV?$basic_string@DU?$char_traits@D@std@@V?$allocator@D@2@@std@@H11AEBV?$vector@VwxString@@V?$allocator@VwxString@@@std@@@2@1@Z@4HA
00000000000c7813	automation.obj	?dtor$51@?0??Automation@@YAH_NAEBV?$basic_string@DU?$char_traits@D@std@@V?$allocator@D@2@@std@@H11AEBV?$vector@VwxString@@V?$allocator@VwxString@@@std@@@2@1@Z@4HA
00000000000c783c	automation.obj	?dtor$52@?0??Automation@@YAH_NAEBV?$basic_string@DU?$char_traits@D@std@@V?$allocator@D@2@@std@@H11AEBV?$vector@VwxString@@V?$allocator@VwxString@@@std@@@2@1@Z@4HA
00000000000c7862	automation.obj	?dtor$54@?0??Automation@@YAH_NAEBV?$basic_string@DU?$char_traits@D@std@@V?$allocator@D@2@@std@@H11AEBV?$vector@VwxString@@V?$allocator@VwxString@@@std@@@2@1@Z@4HA
00000000000c786e	automation.obj	?dtor$55@?0??Automation@@YAH_NAEBV?$basic_string@DU?$char_traits@D@std@@V?$allocator@D@2@@std@@H11AEBV?$vector@VwxString@@V?$allocator@VwxString@@@std@@@2@1@Z@4HA
00000000000c787a	automation.obj	?dtor$56@?0??Automation@@YAH_NAEBV?$basic_string@DU?$char_traits@D@std@@V?$allocator@D@2@@std@@H11AEBV?$vector@VwxString@@V?$allocator@VwxString@@@std@@@2@1@Z@4HA
00000000000c7886	automation.obj	?dtor$185@?0??Automation@@YAH_NAEBV?$basic_string@DU?$char_traits@D@std@@V?$allocator@D@2@@std@@H11AEBV?$vector@VwxString@@V?$allocator@VwxString@@@std@@@2@1@Z@4HA
00000000000c7892	automation.obj	?dtor$186@?0??Automation@@YAH_NAEBV?$basic_string@DU?$char_traits@D@std@@V?$allocator@D@2@@std@@H11AEBV?$vector@VwxString@@V?$allocator@VwxString@@@std@@@2@1@Z@4HA
00000000000c78a2	automation.obj	?dtor$190@?0??Automation@@YAH_NAEBV?$basic_string@DU?$char_traits@D@std@@V?$allocator@D@2@@std@@H11AEBV?$vector@VwxString@@V?$allocator@VwxString@@@std@@@2@1@Z@4HA
00000000000c78ae	automation.obj	?dtor$57@?0??Automation@@YAH_NAEBV?$basic_string@DU?$char_traits@D@std@@V?$allocator@D@2@@std@@H11AEBV?$vector@VwxString@@V?$allocator@VwxString@@@std@@@2@1@Z@4HA
00000000000c78ba	automation.obj	?dtor$58@?0??Automation@@YAH_NAEBV?$basic_string@DU?$char_traits@D@std@@V?$allocator@D@2@@std@@H11AEBV?$vector@VwxString@@V?$allocator@VwxString@@@std@@@2@1@Z@4HA
00000000000c78e5	automation.obj	?dtor$59@?0??Automation@@YAH_NAEBV?$basic_string@DU?$char_traits@D@std@@V?$allocator@D@2@@std@@H11AEBV?$vector@VwxString@@V?$allocator@VwxString@@@std@@@2@1@Z@4HA
00000000000c78f1	automation.obj	?dtor$60@?0??Automation@@YAH_NAEBV?$basic_string@DU?$char_traits@D@std@@V?$allocator@D@2@@std@@H11AEBV?$vector@VwxString@@V?$allocator@VwxString@@@std@@@2@1@Z@4HA
00000000000c78fd	automation.obj	?dtor$61@?0??Automation@@YAH_NAEBV?$basic_string@DU?$char_traits@D@std@@V?$allocator@D@2@@std@@H11AEBV?$vector@VwxString@@V?$allocator@VwxString@@@std@@@2@1@Z@4HA
00000000000c7909	automation.obj	?dtor$62@?0??Automation@@YAH_NAEBV?$basic_string@DU?$char_traits@D@std@@V?$allocator@D@2@@std@@H11AEBV?$vector@VwxString@@V?$allocator@VwxString@@@std@@@2@1@Z@4HA
00000000000c7915	automation.obj	?dtor$63@?0??Automation@@YAH_NAEBV?$basic_string@DU?$char_traits@D@std@@V?$allocator@D@2@@std@@H11AEBV?$vector@VwxString@@V?$allocator@VwxString@@@std@@@2@1@Z@4HA
00000000000c7921	automation.obj	?dtor$65@?0??Automation@@YAH_NAEBV?$basic_string@DU?$char_traits@D@std@@V?$allocator@D@2@@std@@H11AEBV?$vector@VwxString@@V?$allocator@VwxString@@@std@@@2@1@Z@4HA
00000000000c792d	automation.obj	?dtor$66@?0??Automation@@YAH_NAEBV?$basic_string@DU?$char_traits@D@std@@V?$allocator@D@2@@std@@H11AEBV?$vector@VwxString@@V?$allocator@VwxString@@@std@@@2@1@Z@4HA
00000000000c7940	automation.obj	?dtor$0@?0??DoXLDoCommands@@YAHHPEAPEAD@Z@4HA
00000000000c794c	automation.obj	?dtor$1@?0??DoXLDoCommands@@YAHHPEAPEAD@Z@4HA
00000000000c7958	automation.obj	?dtor$2@?0??DoXLDoCommands@@YAHHPEAPEAD@Z@4HA
00000000000c7964	automation.obj	?dtor$3@?0??DoXLDoCommands@@YAHHPEAPEAD@Z@4HA
00000000000c7970	automation.obj	?dtor$4@?0??DoXLDoCommands@@YAHHPEAPEAD@Z@4HA
00000000000c797c	automation.obj	?dtor$5@?0??DoXLDoCommands@@YAHHPEAPEAD@Z@4HA
00000000000c7999	automation.obj	?dtor$6@?0??DoXLDoCommands@@YAHHPEAPEAD@Z@4HA
00000000000c79a5	automation.obj	?dtor$7@?0??DoXLDoCommands@@YAHHPEAPEAD@Z@4HA
00000000000c79b1	automation.obj	?dtor$8@?0??DoXLDoCommands@@YAHHPEAPEAD@Z@4HA
00000000000c79da	automation.obj	?dtor$9@?0??DoXLDoCommands@@YAHHPEAPEAD@Z@4HA
00000000000c7a00	automation.obj	?dtor$10@?0??DoXLDoCommands@@YAHHPEAPEAD@Z@4HA
00000000000c7a0c	automation.obj	?dtor$11@?0??DoXLDoCommands@@YAHHPEAPEAD@Z@4HA
00000000000c7a18	automation.obj	?dtor$12@?0??DoXLDoCommands@@YAHHPEAPEAD@Z@4HA
00000000000c7a24	automation.obj	?dtor$13@?0??DoXLDoCommands@@YAHHPEAPEAD@Z@4HA
00000000000c7a30	automation.obj	?dtor$14@?0??DoXLDoCommands@@YAHHPEAPEAD@Z@4HA
00000000000c7a3c	automation.obj	?dtor$15@?0??DoXLDoCommands@@YAHHPEAPEAD@Z@4HA
00000000000c7a48	automation.obj	?dtor$16@?0??DoXLDoCommands@@YAHHPEAPEAD@Z@4HA
00000000000c7a71	automation.obj	?dtor$17@?0??DoXLDoCommands@@YAHHPEAPEAD@Z@4HA
00000000000c7a97	automation.obj	?dtor$18@?0??DoXLDoCommands@@YAHHPEAPEAD@Z@4HA
00000000000c7aa3	automation.obj	?dtor$19@?0??DoXLDoCommands@@YAHHPEAPEAD@Z@4HA
00000000000c7aaf	automation.obj	?dtor$20@?0??DoXLDoCommands@@YAHHPEAPEAD@Z@4HA
00000000000c7abb	automation.obj	?dtor$21@?0??DoXLDoCommands@@YAHHPEAPEAD@Z@4HA
00000000000c7ac7	automation.obj	?dtor$78@?0??DoXLDoCommands@@YAHHPEAPEAD@Z@4HA
00000000000c7ad3	automation.obj	?dtor$79@?0??DoXLDoCommands@@YAHHPEAPEAD@Z@4HA
00000000000c7ae3	automation.obj	?dtor$22@?0??DoXLDoCommands@@YAHHPEAPEAD@Z@4HA
00000000000c7aef	automation.obj	?dtor$23@?0??DoXLDoCommands@@YAHHPEAPEAD@Z@4HA
00000000000c7afb	automation.obj	?dtor$24@?0??DoXLDoCommands@@YAHHPEAPEAD@Z@4HA
00000000000c7b07	automation.obj	?dtor$25@?0??DoXLDoCommands@@YAHHPEAPEAD@Z@4HA
00000000000c7b13	automation.obj	?dtor$26@?0??DoXLDoCommands@@YAHHPEAPEAD@Z@4HA
00000000000c7b1f	automation.obj	?dtor$27@?0??DoXLDoCommands@@YAHHPEAPEAD@Z@4HA
00000000000c7b2b	automation.obj	?dtor$28@?0??DoXLDoCommands@@YAHHPEAPEAD@Z@4HA
00000000000c7b40	automation.obj	?dtor$0@?0???$Format@V?$basic_string@DU?$char_traits@D@std@@V?$allocator@D@2@@std@@V12@@wxString@@SA?AV0@AEBVwxFormatString@@V?$basic_string@DU?$char_traits@D@std@@V?$allocator@D@2@@std@@1@Z@4HA
00000000000c7b4c	automation.obj	?dtor$1@?0???$Format@V?$basic_string@DU?$char_traits@D@std@@V?$allocator@D@2@@std@@V12@@wxString@@SA?AV0@AEBVwxFormatString@@V?$basic_string@DU?$char_traits@D@std@@V?$allocator@D@2@@std@@1@Z@4HA
00000000000c7b58	automation.obj	?dtor$2@?0???$Format@V?$basic_string@DU?$char_traits@D@std@@V?$allocator@D@2@@std@@V12@@wxString@@SA?AV0@AEBVwxFormatString@@V?$basic_string@DU?$char_traits@D@std@@V?$allocator@D@2@@std@@1@Z@4HA
00000000000c7b64	automation.obj	?dtor$3@?0???$Format@V?$basic_string@DU?$char_traits@D@std@@V?$allocator@D@2@@std@@V12@@wxString@@SA?AV0@AEBVwxFormatString@@V?$basic_string@DU?$char_traits@D@std@@V?$allocator@D@2@@std@@1@Z@4HA
00000000000c7b70	automation.obj	?dtor$4@?0???$Format@V?$basic_string@DU?$char_traits@D@std@@V?$allocator@D@2@@std@@V12@@wxString@@SA?AV0@AEBVwxFormatString@@V?$basic_string@DU?$char_traits@D@std@@V?$allocator@D@2@@std@@1@Z@4HA
00000000000c7ba0	automation.obj	?dtor$0@?0???$Format@V?$basic_string@DU?$char_traits@D@std@@V?$allocator@D@2@@std@@VwxString@@V3@@wxString@@SA?AV0@AEBVwxFormatString@@V?$basic_string@DU?$char_traits@D@std@@V?$allocator@D@2@@std@@V0@2@Z@4HA
00000000000c7bac	automation.obj	?dtor$1@?0???$Format@V?$basic_string@DU?$char_traits@D@std@@V?$allocator@D@2@@std@@VwxString@@V3@@wxString@@SA?AV0@AEBVwxFormatString@@V?$basic_string@DU?$char_traits@D@std@@V?$allocator@D@2@@std@@V0@2@Z@4HA
00000000000c7bb8	automation.obj	?dtor$2@?0???$Format@V?$basic_string@DU?$char_traits@D@std@@V?$allocator@D@2@@std@@VwxString@@V3@@wxString@@SA?AV0@AEBVwxFormatString@@V?$basic_string@DU?$char_traits@D@std@@V?$allocator@D@2@@std@@V0@2@Z@4HA
00000000000c7bc4	automation.obj	?dtor$3@?0???$Format@V?$basic_string@DU?$char_traits@D@std@@V?$allocator@D@2@@std@@VwxString@@V3@@wxString@@SA?AV0@AEBVwxFormatString@@V?$basic_string@DU?$char_traits@D@std@@V?$allocator@D@2@@std@@V0@2@Z@4HA
00000000000c7bd0	automation.obj	?dtor$4@?0???$Format@V?$basic_string@DU?$char_traits@D@std@@V?$allocator@D@2@@std@@VwxString@@V3@@wxString@@SA?AV0@AEBVwxFormatString@@V?$basic_string@DU?$char_traits@D@std@@V?$allocator@D@2@@std@@V0@2@Z@4HA
00000000000c7c00	automation.obj	?dtor$0@?0???$Format@V?$basic_string@DU?$char_traits@D@std@@V?$allocator@D@2@@std@@VwxString@@J@wxString@@SA?AV0@AEBVwxFormatString@@V?$basic_string@DU?$char_traits@D@std@@V?$allocator@D@2@@std@@V0@J@Z@4HA
00000000000c7c0c	automation.obj	?dtor$1@?0???$Format@V?$basic_string@DU?$char_traits@D@std@@V?$allocator@D@2@@std@@VwxString@@J@wxString@@SA?AV0@AEBVwxFormatString@@V?$basic_string@DU?$char_traits@D@std@@V?$allocator@D@2@@std@@V0@J@Z@4HA
00000000000c7c18	automation.obj	?dtor$2@?0???$Format@V?$basic_string@DU?$char_traits@D@std@@V?$allocator@D@2@@std@@VwxString@@J@wxString@@SA?AV0@AEBVwxFormatString@@V?$basic_string@DU?$char_traits@D@std@@V?$allocator@D@2@@std@@V0@J@Z@4HA
00000000000c7c24	automation.obj	?dtor$3@?0???$Format@V?$basic_string@DU?$char_traits@D@std@@V?$allocator@D@2@@std@@VwxString@@J@wxString@@SA?AV0@AEBVwxFormatString@@V?$basic_string@DU?$char_traits@D@std@@V?$allocator@D@2@@std@@V0@J@Z@4HA
00000000000c7c50	automation.obj	?dtor$1@?0???$wxPrintf@PEBD@@YAHAEBVwxFormatString@@PEBD@Z@4HA
00000000000c7c5c	automation.obj	?dtor$4@?0???$wxPrintf@PEBD@@YAHAEBVwxFormatString@@PEBD@Z@4HA
00000000000c7c68	automation.obj	?dtor$0@?0???$wxPrintf@PEBD@@YAHAEBVwxFormatString@@PEBD@Z@4HA
00000000000c7c80	automation.obj	?catch$3@?0???$_Resize_reallocate@U_Value_init_tag@std@@@?$vector@VwxString@@V?$allocator@VwxString@@@std@@@std@@AEAAX_KAEBU_Value_init_tag@1@@Z@4HA
00000000000c7c8e	automation.obj	__catch$??$_Resize_reallocate@U_Value_init_tag@std@@@?$vector@VwxString@@V?$allocator@VwxString@@@std@@@std@@AEAAX_KAEBU_Value_init_tag@1@@Z$0
00000000000c7cc0	xlDo.obj	main$dtor$0
00000000000c7cd0	wxbase33u:string.obj	?dtor$0@?0???$?6U?$char_traits@D@std@@@std@@YAAEAV?$basic_ostream@DU?$char_traits@D@std@@@0@AEAV10@PEBD@Z@4HA
00000000000c7ce0	wxbase33u:string.obj	?dtor$3@?0???$?6U?$char_traits@D@std@@@std@@YAAEAV?$basic_ostream@DU?$char_traits@D@std@@@0@AEAV10@PEBD@Z@4HA
00000000000c7cf0	wxbase33u:string.obj	?catch$4@?0???$?6U?$char_traits@D@std@@@std@@YAAEAV?$basic_ostream@DU?$char_traits@D@std@@@0@AEAV10@PEBD@Z@4HA
00000000000c7cfd	wxbase33u:string.obj	__catch$??$?6U?$char_traits@D@std@@@std@@YAAEAV?$basic_ostream@DU?$char_traits@D@std@@@0@AEAV10@PEBD@Z$0
00000000000c7d30	wxbase33u:any.obj	?catch$0@?0???$_Emplace_reallocate@AEBQEAVwxAnyToVariantRegistration@@@?$vector@PEAVwxAnyToVariantRegistration@@V?$allocator@PEAVwxAnyToVariantRegistration@@@std@@@std@@AEAAPEAPEAVwxAnyToVariantRegistration@@QEAPEAV2@AEBQEAV2@@Z@4HA
00000000000c7d30	wxbase33u:appbase.obj	?catch$0@?0???$_Emplace_reallocate@AEBQEAVwxEvtHandler@@@?$vector@PEAVwxEvtHandler@@V?$allocator@PEAVwxEvtHandler@@@std@@@std@@AEAAPEAPEAVwxEvtHandler@@QEAPEAV2@AEBQEAV2@@Z@4HA
00000000000c7d30	wxbase33u:cmdline.obj	?catch$0@?0???$_Emplace_reallocate@PEAUwxCmdLineOption@@@?$vector@PEAUwxCmdLineOption@@V?$allocator@PEAUwxCmdLineOption@@@std@@@std@@AEAAPEAPEAUwxCmdLineOption@@QEAPEAU2@$$QEAPEAU2@@Z@4HA
00000000000c7d30	wxbase33u:cmdline.obj	?catch$0@?0???$_Emplace_reallocate@PEAUwxCmdLineParam@@@?$vector@PEAUwxCmdLineParam@@V?$allocator@PEAUwxCmdLineParam@@@std@@@std@@AEAAPEAPEAUwxCmdLineParam@@QEAPEAU2@$$QEAPEAU2@@Z@4HA
00000000000c7d30	wxbase33u:datetime.obj	?catch$0@?0???$_Emplace_reallocate@AEBQEAVwxDateTimeHolidayAuthority@@@?$vector@PEAVwxDateTimeHolidayAuthority@@V?$allocator@PEAVwxDateTimeHolidayAuthority@@@std@@@std@@AEAAPEAPEAVwxDateTimeHolidayAuthority@@QEAPEAV2@AEBQEAV2@@Z@4HA
00000000000c7d30	wxbase33u:module.obj	?catch$0@?0???$_Emplace_reallocate@AEBQEAVwxClassInfo@@@?$vector@PEAVwxClassInfo@@V?$allocator@PEAVwxClassInfo@@@std@@@std@@AEAAPEAPEAVwxClassInfo@@QEAPEAV2@AEBQEAV2@@Z@4HA
00000000000c7d30	wxbase33u:module.obj	?catch$0@?0???$_Emplace_reallocate@AEBQEAVwxModule@@@?$vector@PEAVwxModule@@V?$allocator@PEAVwxModule@@@std@@@std@@AEAAPEAPEAVwxModule@@QEAPEAV2@AEBQEAV2@@Z@4HA
00000000000c7d30	wxbase33u:string.obj	?catch$0@?0???$_Emplace_reallocate@AEB_K@?$vector@_KV?$allocator@_K@std@@@std@@AEAAPEA_KQEA_KAEB_K@Z@4HA
00000000000c7d30	wxbase33u:utilsexc.obj	?catch$0@?0???$_Emplace_reallocate@AEBQEAX@?$vector@PEAXV?$allocator@PEAX@std@@@std@@AEAAPEAPEAXQEAPEAXAEBQEAX@Z@4HA
00000000000c7d3d	wxbase33u:any.obj	__catch$??$_Emplace_reallocate@AEBQEAVwxAnyToVariantRegistration@@@?$vector@PEAVwxAnyToVariantRegistration@@V?$allocator@PEAVwxAnyToVariantRegistration@@@std@@@std@@AEAAPEAPEAVwxAnyToVariantRegistration@@QEAPEAV2@AEBQEAV2@@Z$0
00000000000c7d3d	wxbase33u:appbase.obj	__catch$??$_Emplace_reallocate@AEBQEAVwxEvtHandler@@@?$vector@PEAVwxEvtHandler@@V?$allocator@PEAVwxEvtHandler@@@std@@@std@@AEAAPEAPEAVwxEvtHandler@@QEAPEAV2@AEBQEAV2@@Z$0
00000000000c7d3d	wxbase33u:cmdline.obj	__catch$??$_Emplace_reallocate@PEAUwxCmdLineOption@@@?$vector@PEAUwxCmdLineOption@@V?$allocator@PEAUwxCmdLineOption@@@std@@@std@@AEAAPEAPEAUwxCmdLineOption@@QEAPEAU2@$$QEAPEAU2@@Z$0
00000000000c7d3d	wxbase33u:cmdline.obj	__catch$??$_Emplace_reallocate@PEAUwxCmdLineParam@@@?$vector@PEAUwxCmdLineParam@@V?$allocator@PEAUwxCmdLineParam@@@std@@@std@@AEAAPEAPEAUwxCmdLineParam@@QEAPEAU2@$$QEAPEAU2@@Z$0
00000000000c7d3d	wxbase33u:datetime.obj	__catch$??$_Emplace_reallocate@AEBQEAVwxDateTimeHolidayAuthority@@@?$vector@PEAVwxDateTimeHolidayAuthority@@V?$allocator@PEAVwxDateTimeHolidayAuthority@@@std@@@std@@AEAAPEAPEAVwxDateTimeHolidayAuthority@@QEAPEAV2@AEBQEAV2@@Z$0
00000000000c7d3d	wxbase33u:module.obj	__catch$??$_Emplace_reallocate@AEBQEAVwxClassInfo@@@?$vector@PEAVwxClassInfo@@V?$allocator@PEAVwxClassInfo@@@std@@@std@@AEAAPEAPEAVwxClassInfo@@QEAPEAV2@AEBQEAV2@@Z$0
00000000000c7d3d	wxbase33u:module.obj	__catch$??$_Emplace_reallocate@AEBQEAVwxModule@@@?$vector@PEAVwxModule@@V?$allocator@PEAVwxModule@@@std@@@std@@AEAAPEAPEAVwxModule@@QEAPEAV2@AEBQEAV2@@Z$0
00000000000c7d3d	wxbase33u:string.obj	__catch$??$_Emplace_reallocate@AEB_K@?$vector@_KV?$allocator@_K@std@@@std@@AEAAPEA_KQEA_KAEB_K@Z$0
00000000000c7d3d	wxbase33u:utilsexc.obj	__catch$??$_Emplace_reallocate@AEBQEAX@?$vector@PEAXV?$allocator@PEAX@std@@@std@@AEAAPEAPEAXQEAPEAXAEBQEAX@Z$0
00000000000c7d60	wxbase33u:datetimefmt.obj	?dtor$137@?0??Format@wxDateTime@@QEBA?AVwxString@@AEBV2@AEBVTimeZone@1@@Z@4HA
00000000000c7d60	wxbase33u:datetimefmt.obj	?dtor$150@?0??Format@wxDateTime@@QEBA?AVwxString@@AEBV2@AEBVTimeZone@1@@Z@4HA
00000000000c7d60	wxbase33u:datetimefmt.obj	?dtor$90@?0??Format@wxDateTime@@QEBA?AVwxString@@AEBV2@AEBVTimeZone@1@@Z@4HA
00000000000c7d60	wxbase33u:fileconf.obj	?dtor$26@?0??Save@wxFileConfig@@UEAA_NAEAVwxOutputStream@@AEBVwxMBConv@@@Z@4HA
00000000000c7d60	wxbase33u:fileconf.obj	?dtor$33@?0??SetValue@wxFileConfigEntry@@QEAAXAEBVwxString@@_N@Z@4HA
00000000000c7d60	wxbase33u:fileconf.obj	?dtor$57@?0??FilterInValue@@YA?AVwxString@@AEBV1@@Z@4HA
00000000000c7d60	wxbase33u:fileconf.obj	?dtor$74@?0??FilterInValue@@YA?AVwxString@@AEBV1@@Z@4HA
00000000000c7d60	wxbase33u:log.obj	?dtor$32@?0??LogLastRepeatIfNeeded@wxLog@@IEAAIXZ@4HA
00000000000c7d60	wxbase33u:log.obj	?dtor$3@?0??wxSafeShowMessage@@YA_NAEBVwxString@@0@Z@4HA
00000000000c7d60	wxbase33u:string.obj	?dtor$0@?0???$tchar_str@_W@wxString@@QEBA?AV?$wxCharTypeBuffer@_W@@PEA_K@Z@4HA
00000000000c7d60	wxbase33u:tokenzr.obj	?dtor$2@?0??SetString@wxStringTokenizer@@QEAAXAEBVwxString@@0W4wxStringTokenizerMode@@@Z@4HA
00000000000c7d70	wxbase33u:string.obj	?dtor$3@?0???$tchar_str@_W@wxString@@QEBA?AV?$wxCharTypeBuffer@_W@@PEA_K@Z@4HA
00000000000c7da0	wxbase33u:string.obj	?dtor$5@?0???$tchar_str@_W@wxString@@QEBA?AV?$wxCharTypeBuffer@_W@@PEA_K@Z@4HA
00000000000c7db0	wxbase33u:string.obj	?dtor$0@?0???0?$SubstrBufFromType@V?$wxScopedCharTypeBuffer@_W@@@wxString@@QEAA@AEBV?$wxScopedCharTypeBuffer@_W@@_K@Z@4HA
00000000000c7dc0	wxbase33u:regconf.obj	?dtor$2@?0???0?$wxStringTypeBufferLength@_W@@QEAA@AEAVwxString@@_K@Z@4HA
00000000000c7dc0	wxbase33u:string.obj	?dtor$0@?0???0?$wxStringTypeBufferBase@_W@@QEAA@AEAVwxString@@_K@Z@4HA
00000000000c7dc0	wxbase33u:utils.obj	?dtor$1@?0???0?$wxStringTypeBuffer@_W@@QEAA@AEAVwxString@@_K@Z@4HA
00000000000c7dd0	wxbase33u:regconf.obj	?dtor$4@?0???0?$wxStringTypeBufferLength@_W@@QEAA@AEAVwxString@@_K@Z@4HA
00000000000c7dd0	wxbase33u:string.obj	?dtor$2@?0???0?$wxStringTypeBufferBase@_W@@QEAA@AEAVwxString@@_K@Z@4HA
00000000000c7dd0	wxbase33u:utils.obj	?dtor$3@?0???0?$wxStringTypeBuffer@_W@@QEAA@AEAVwxString@@_K@Z@4HA
00000000000c7de0	wxbase33u:dde.obj	?dtor$0@?0??ConvertToUTF8@@YA?AVwxCharBuffer@@AEBVwxMBConv@@PEBX_K@Z@4HA
00000000000c7de0	wxbase33u:dde.obj	?dtor$0@?0??DoAdvise@wxDDEConnection@@MEAA_NAEBVwxString@@PEBX_KW4wxIPCFormat@@@Z@4HA
00000000000c7de0	wxbase33u:dlmsw.obj	?dtor$76@?0??ReportError@wxDynamicLibrary@@KAXAEBVwxString@@0@Z@4HA
00000000000c7de0	wxbase33u:ipcbase.obj	?dtor$12@?0??GetTextFromData@wxConnectionBase@@SA?AVwxString@@PEBX_KW4wxIPCFormat@@@Z@4HA
00000000000c7de0	wxbase33u:ipcbase.obj	?dtor$31@?0??GetTextFromData@wxConnectionBase@@SA?AVwxString@@PEBX_KW4wxIPCFormat@@@Z@4HA
00000000000c7de0	wxbase33u:strconv.obj	?dtor$33@?0??DoCreate@wxCSConv@@AEBAPEAVwxMBConv@@XZ@4HA
00000000000c7de0	wxbase33u:string.obj	?dtor$0@?0???6@YAAEAV?$basic_ostream@DU?$char_traits@D@std@@@std@@AEAV01@AEBVwxCStrData@@@Z@4HA
00000000000c7de0	wxbase33u:txtstrm.obj	?dtor$1@?0??WriteString@wxTextOutputStream@@UEAAXAEBVwxString@@@Z@4HA
00000000000c7df0	wxbase33u:string.obj	?dtor$0@?0???6@YAAEAV?$basic_ostream@DU?$char_traits@D@std@@@std@@AEAV01@AEBVwxString@@@Z@4HA
00000000000c7df0	wxbase33u:variant.obj	?dtor$1@?0??Write@wxVariantDataDateTime@@UEBA_NAEAV?$basic_ostream@DU?$char_traits@D@std@@@std@@@Z@4HA
00000000000c7e00	wxbase33u:file.obj	?dtor$1@?0??Write@wxFile@@QEAA_NAEBVwxString@@AEBVwxMBConv@@@Z@4HA
00000000000c7e00	wxbase33u:fileconf.obj	?dtor$109@?0??Flush@wxFileConfig@@UEAA_N_N@Z@4HA
00000000000c7e00	wxbase33u:fileconf.obj	?dtor$56@?0??Flush@wxFileConfig@@UEAA_N_N@Z@4HA
00000000000c7e00	wxbase33u:fileconf.obj	?dtor$66@?0??Flush@wxFileConfig@@UEAA_N_N@Z@4HA
00000000000c7e00	wxbase33u:filename.obj	?dtor$10@?0??wxOleInitialize@@YA_NXZ@4HA
00000000000c7e00	wxbase33u:init.obj	?dtor$10@?0??DoCommonPostInit@@YA_NXZ@4HA
00000000000c7e00	wxbase33u:string.obj	?dtor$0@?0??ToAscii@wxString@@QEBA?BV?$wxScopedCharTypeBuffer@D@@D@Z@4HA
00000000000c7e00	wxbase33u:string.obj	?dtor$1@?0???6@YAAEAV?$basic_ostream@DU?$char_traits@D@std@@@std@@AEAV01@AEBVwxString@@@Z@4HA
00000000000c7e10	wxbase33u:fileconf.obj	?dtor$0@?0??FilterInEntryName@@YA?AVwxString@@AEBV1@@Z@4HA
00000000000c7e10	wxbase33u:fileconf.obj	?dtor$0@?0??FilterOutEntryName@@YA?AVwxString@@AEBV1@@Z@4HA
00000000000c7e10	wxbase33u:filename.obj	?dtor$0@?0??GetVolumeSeparator@wxFileName@@SA?AVwxString@@W4wxPathFormat@@@Z@4HA
00000000000c7e10	wxbase33u:registry.obj	?dtor$0@?0??GetFullName@@YA?AVwxString@@PEBVwxRegKey@@AEBV1@@Z@4HA
00000000000c7e10	wxbase33u:stdpaths.obj	?dtor$0@?0??DoGetKnownFolder@wxStandardPaths@@KA?AVwxString@@AEBU_GUID@@@Z@4HA
00000000000c7e10	wxbase33u:string.obj	?dtor$0@?0???H@YA?AVwxString@@AEBV0@0@Z@4HA
00000000000c7e10	wxbase33u:string.obj	?dtor$0@?0???H@YA?AVwxString@@VwxUniChar@@AEBV0@@Z@4HA
00000000000c7e10	wxbase33u:string.obj	?dtor$0@?0??FormatV@wxString@@SA?AV1@AEBV1@PEAD@Z@4HA
00000000000c7e10	wxbase33u:strvararg.obj	?dtor$1@?0???$Format@PEBD@wxString@@SA?AV0@AEBVwxFormatString@@PEBD@Z@4HA
00000000000c7e10	wxbase33u:utilscmn.obj	?dtor$0@?0??wxGetHomeDir@@YA?AVwxString@@XZ@4HA
00000000000c7e40	wxbase33u:dde.obj	?dtor$0@?0??DDEStringFromAtom@@YA?AVwxString@@PEAUHSZ__@@@Z@4HA
00000000000c7e40	wxbase33u:stdpaths.obj	?dtor$0@?0??DoGetDirectory@wxStandardPaths@@KA?AVwxString@@H@Z@4HA
00000000000c7e40	wxbase33u:string.obj	?dtor$0@?0???H@YA?AVwxString@@AEBV0@PEBD@Z@4HA
00000000000c7e70	wxbase33u:strconv.obj	?dtor$4@?0??WC2MB@wxMBConv_win32@@UEBA_KPEADPEB_W_K@Z@4HA
00000000000c7e70	wxbase33u:strconv.obj	?dtor$6@?0??DoConvertWC2MB@wxMBConv@@AEBA?AVwxCharBuffer@@PEB_W_K@Z@4HA
00000000000c7e70	wxbase33u:string.obj	?dtor$4@?0???H@YA?AVwxString@@AEBV0@PEBD@Z@4HA
00000000000c7e70	wxbase33u:stringops.obj	?dtor$10@?0??EncodeNChars@wxStringOperationsWchar@@SA?AVwxWCharBuffer@@_KAEBVwxUniChar@@@Z@4HA
00000000000c7e70	wxbase33u:utilsexc.obj	?dtor$11@?0??wxExecuteThread@@YAKPEAX@Z@4HA
00000000000c7e70	wxbase33u:utilsexc.obj	?dtor$35@?0??wxExecuteThread@@YAKPEAX@Z@4HA
00000000000c7e70	wxbase33u:utilsexc.obj	?dtor$59@?0??wxExecuteThread@@YAKPEAX@Z@4HA
00000000000c7e70	wxbase33u:utilsexc.obj	?dtor$6@?0???0wxPipeOutputStream@@QEAA@PEAX@Z@4HA
00000000000c7e80	wxbase33u:string.obj	?dtor$0@?0???H@YA?AVwxString@@AEBV0@PEB_W@Z@4HA
00000000000c7e80	wxbase33u:string.obj	?dtor$0@?0???H@YA?AVwxString@@PEBDAEBV0@@Z@4HA
00000000000c7e80	wxbase33u:strvararg.obj	?dtor$1@?0???$Format@PEBDH@wxString@@SA?AV0@AEBVwxFormatString@@PEBDH@Z@4HA
00000000000c7eb0	wxbase33u:string.obj	?dtor$0@?0???H@YA?AVwxString@@AEBV0@VwxUniChar@@@Z@4HA
00000000000c7ee0	wxbase33u:string.obj	?dtor$0@?0???H@YA?AVwxString@@PEB_WAEBV0@@Z@4HA
00000000000c7f10	wxbase33u:string.obj	?dtor$1@?0???H@YA?AVwxString@@VwxUniChar@@AEBV0@@Z@4HA
00000000000c7f20	wxbase33u:string.obj	?dtor$2@?0???H@YA?AVwxString@@VwxUniChar@@AEBV0@@Z@4HA
00000000000c7f30	wxbase33u:string.obj	?dtor$0@?0??AfterFirst@wxString@@QEBA?AV1@VwxUniChar@@@Z@4HA
00000000000c7f30	wxbase33u:string.obj	?dtor$0@?0??AfterLast@wxString@@QEBA?AV1@VwxUniChar@@@Z@4HA
00000000000c7f30	wxbase33u:string.obj	?dtor$0@?0??BeforeLast@wxString@@QEBA?AV1@VwxUniChar@@PEAV1@@Z@4HA
00000000000c7f60	wxbase33u:string.obj	?dtor$1@?0??BeforeFirst@wxString@@QEBA?AV1@VwxUniChar@@PEAV1@@Z@4HA
00000000000c7f70	wxbase33u:string.obj	?dtor$2@?0??BeforeFirst@wxString@@QEBA?AV1@VwxUniChar@@PEAV1@@Z@4HA
00000000000c7f80	wxbase33u:file.obj	?dtor$0@?0??ReadAll@wxFile@@QEAA_NPEAVwxString@@AEBVwxMBConv@@@Z@4HA
00000000000c7f80	wxbase33u:fileconf.obj	?dtor$13@?0??DeleteAll@wxFileConfig@@UEAA_NXZ@4HA
00000000000c7f80	wxbase33u:registry.obj	?dtor$12@?0??SetValue@wxRegKey@@QEAA_NAEBVwxString@@0@Z@4HA
00000000000c7f80	wxbase33u:registry.obj	?dtor$12@?0??SetValue@wxRegKey@@QEAA_NAEBVwxString@@AEBVwxMemoryBuffer@@@Z@4HA
00000000000c7f80	wxbase33u:registry.obj	?dtor$159@?0??Copy@wxRegKey@@QEAA_NAEAV1@@Z@4HA
00000000000c7f80	wxbase33u:registry.obj	?dtor$66@?0??Copy@wxRegKey@@QEAA_NAEAV1@@Z@4HA
00000000000c7f80	wxbase33u:registry.obj	?dtor$81@?0??Copy@wxRegKey@@QEAA_NAEAV1@@Z@4HA
00000000000c7f80	wxbase33u:string.obj	?dtor$0@?0??ConvertStr@wxString@@CA?AU?$SubstrBufFromType@V?$wxScopedCharTypeBuffer@_W@@@1@PEBD_KAEBVwxMBConv@@@Z@4HA
00000000000c7f80	wxbase33u:string.obj	?dtor$4@?0??ConvertStr@wxString@@CA?AU?$SubstrBufFromType@V?$wxScopedCharTypeBuffer@_W@@@1@PEBD_KAEBVwxMBConv@@@Z@4HA
00000000000c7f80	wxbase33u:thread.obj	?dtor$21@?0??OnInit@wxThreadModule@@UEAA_NXZ@4HA
00000000000c7f80	wxbase33u:thread.obj	?dtor$92@?0??OnInit@wxThreadModule@@UEAA_NXZ@4HA
00000000000c7f90	wxbase33u:config.obj	?dtor$26@?0??wxSplitPath@@YAXAEAVwxArrayString@@AEBVwxString@@@Z@4HA
00000000000c7f90	wxbase33u:event.obj	?dtor$5@?0??QueueEvent@wxEvtHandler@@UEAAXPEAVwxEvent@@@Z@4HA
00000000000c7f90	wxbase33u:file.obj	?dtor$25@?0??Open@wxFile@@QEAA_NAEBVwxString@@W4OpenMode@1@H@Z@4HA
00000000000c7f90	wxbase33u:fileconf.obj	?dtor$102@?0??Init@wxFileConfig@@AEAAXXZ@4HA
00000000000c7f90	wxbase33u:fileconf.obj	?dtor$102@?0??LineListAppend@wxFileConfig@@QEAAPEAVwxFileConfigLineList@@AEBVwxString@@@Z@4HA
00000000000c7f90	wxbase33u:fileconf.obj	?dtor$105@?0??LineListInsert@wxFileConfig@@QEAAPEAVwxFileConfigLineList@@AEBVwxString@@PEAV2@@Z@4HA
00000000000c7f90	wxbase33u:fileconf.obj	?dtor$118@?0??LineListAppend@wxFileConfig@@QEAAPEAVwxFileConfigLineList@@AEBVwxString@@@Z@4HA
00000000000c7f90	wxbase33u:fileconf.obj	?dtor$123@?0??Init@wxFileConfig@@AEAAXXZ@4HA
00000000000c7f90	wxbase33u:fileconf.obj	?dtor$136@?0??LineListInsert@wxFileConfig@@QEAAPEAVwxFileConfigLineList@@AEBVwxString@@PEAV2@@Z@4HA
00000000000c7f90	wxbase33u:fileconf.obj	?dtor$169@?0??Parse@wxFileConfig@@AEAAXAEBVwxTextBuffer@@_N@Z@4HA
00000000000c7f90	wxbase33u:fileconf.obj	?dtor$174@?0??LineListInsert@wxFileConfig@@QEAAPEAVwxFileConfigLineList@@AEBVwxString@@PEAV2@@Z@4HA
00000000000c7f90	wxbase33u:fileconf.obj	?dtor$182@?0??LineListAppend@wxFileConfig@@QEAAPEAVwxFileConfigLineList@@AEBVwxString@@@Z@4HA
00000000000c7f90	wxbase33u:fileconf.obj	?dtor$182@?0??Parse@wxFileConfig@@AEAAXAEBVwxTextBuffer@@_N@Z@4HA
00000000000c7f90	wxbase33u:fileconf.obj	?dtor$222@?0??LineListAppend@wxFileConfig@@QEAAPEAVwxFileConfigLineList@@AEBVwxString@@@Z@4HA
00000000000c7f90	wxbase33u:fileconf.obj	?dtor$229@?0??LineListInsert@wxFileConfig@@QEAAPEAVwxFileConfigLineList@@AEBVwxString@@PEAV2@@Z@4HA
00000000000c7f90	wxbase33u:fileconf.obj	?dtor$257@?0??Parse@wxFileConfig@@AEAAXAEBVwxTextBuffer@@_N@Z@4HA
00000000000c7f90	wxbase33u:fileconf.obj	?dtor$267@?0??Parse@wxFileConfig@@AEAAXAEBVwxTextBuffer@@_N@Z@4HA
00000000000c7f90	wxbase33u:fileconf.obj	?dtor$26@?0??DeleteAll@wxFileConfig@@UEAA_NXZ@4HA
00000000000c7f90	wxbase33u:fileconf.obj	?dtor$61@?0??LineListAppend@wxFileConfig@@QEAAPEAVwxFileConfigLineList@@AEBVwxString@@@Z@4HA
00000000000c7f90	wxbase33u:fileconf.obj	?dtor$63@?0??LineListInsert@wxFileConfig@@QEAAPEAVwxFileConfigLineList@@AEBVwxString@@PEAV2@@Z@4HA
00000000000c7f90	wxbase33u:fileconf.obj	?dtor$75@?0??Parse@wxFileConfig@@AEAAXAEBVwxTextBuffer@@_N@Z@4HA
00000000000c7f90	wxbase33u:fileconf.obj	?dtor$76@?0??Init@wxFileConfig@@AEAAXXZ@4HA
00000000000c7f90	wxbase33u:fileconf.obj	?dtor$7@?0??DoReadBinary@wxFileConfig@@MEBA_NAEBVwxString@@PEAVwxMemoryBuffer@@@Z@4HA
00000000000c7f90	wxbase33u:fmapbase.obj	?dtor$43@?0??NonInteractiveCharsetToEncoding@wxFontMapperBase@@IEAAHAEBVwxString@@@Z@4HA
00000000000c7f90	wxbase33u:registry.obj	?dtor$25@?0??SetValue@wxRegKey@@QEAA_NAEBVwxString@@J@Z@4HA
00000000000c7f90	wxbase33u:registry.obj	?dtor$56@?0??QueryValue@wxRegKey@@QEBA_NAEBVwxString@@AEAVwxMemoryBuffer@@@Z@4HA
00000000000c7f90	wxbase33u:string.obj	?dtor$3@?0??ConvertStr@wxString@@CA?AU?$SubstrBufFromType@V?$wxScopedCharTypeBuffer@_W@@@1@PEBD_KAEBVwxMBConv@@@Z@4HA
00000000000c7f90	wxbase33u:textfile.obj	?dtor$30@?0??OnRead@wxTextFile@@MEAA_NAEBVwxMBConv@@@Z@4HA
00000000000c7f90	wxbase33u:textfile.obj	?dtor$41@?0??OnWrite@wxTextFile@@MEAA_NW4wxTextFileType@@AEBVwxMBConv@@@Z@4HA
00000000000c7fa0	wxbase33u:dir.obj	?dtor$5@?0??FreeFindData@?A0x7f149f09@@YAXPEAX@Z@4HA
00000000000c7fa0	wxbase33u:dlmsw.obj	?dtor$5@?0??Unload@wxDynamicLibrary@@SAXPEAUHINSTANCE__@@@Z@4HA
00000000000c7fa0	wxbase33u:evtloopconsole.obj	?dtor$5@?0??WakeUp@wxMSWEventLoopBase@@UEAAXXZ@4HA
00000000000c7fa0	wxbase33u:file.obj	?dtor$11@?0??ReadAll@wxFile@@QEAA_NPEAVwxString@@AEBVwxMBConv@@@Z@4HA
00000000000c7fa0	wxbase33u:log.obj	?dtor$31@?0??wxMSWFormatMessage@@YA?AVwxString@@KPEAUHINSTANCE__@@@Z@4HA
00000000000c7fa0	wxbase33u:regconf.obj	?dtor$40@?0??SetPath@wxRegConfig@@UEAAXAEBVwxString@@@Z@4HA
00000000000c7fa0	wxbase33u:registry.obj	?dtor$16@?0??Create@wxRegKey@@QEAA_N_N@Z@4HA
00000000000c7fa0	wxbase33u:registry.obj	?dtor$54@?0??DeleteSelf@wxRegKey@@QEAA_NXZ@4HA
00000000000c7fa0	wxbase33u:stdpaths.obj	?dtor$14@?0??ResolveShellFunctions@?A0x022ab952@@YAXXZ@4HA
00000000000c7fa0	wxbase33u:string.obj	?dtor$16@?0??ConvertStr@wxString@@CA?AU?$SubstrBufFromType@V?$wxScopedCharTypeBuffer@_W@@@1@PEBD_KAEBVwxMBConv@@@Z@4HA
00000000000c7fa0	wxbase33u:string.obj	?dtor$6@?0??ConvertStr@wxString@@CA?AU?$SubstrBufFromType@V?$wxScopedCharTypeBuffer@_W@@@1@PEBD_KAEBVwxMBConv@@@Z@4HA
00000000000c7fa0	wxbase33u:timer.obj	?dtor$33@?0??OnExit@wxTimerHiddenWindowModule@@UEAAXXZ@4HA
00000000000c7fa0	wxbase33u:timer.obj	?dtor$9@?0??OnExit@wxTimerHiddenWindowModule@@UEAAXXZ@4HA
00000000000c7fa0	wxbase33u:translation.obj	?dtor$92@?0??GetTranslatedString@wxTranslations@@QEBAPEBVwxString@@AEBV2@I00@Z@4HA
00000000000c7fa0	wxbase33u:utilsexc.obj	?dtor$11@?0??OnExit@wxExecuteModule@@UEAAXXZ@4HA
00000000000c7fa0	wxbase33u:utilsexc.obj	?dtor$214@?0??wxExecute@@YAJAEBVwxString@@HPEAVwxProcess@@PEBUwxExecuteEnv@@@Z@4HA
00000000000c7fa0	wxbase33u:utilsexc.obj	?dtor$35@?0??OnExit@wxExecuteModule@@UEAAXXZ@4HA
00000000000c7fa0	wxbase33u:utilsexc.obj	?dtor$59@?0??OnExit@wxExecuteModule@@UEAAXXZ@4HA
00000000000c7fa0	wxbase33u:utilsexc.obj	?dtor$5@?0??Create@Event@wxWinAPI@@QEAA_NW4Kind@12@W4InitialState@12@PEB_W@Z@4HA
00000000000c7fa0	wxbase33u:utilsexc.obj	?dtor$5@?0??DoClose@?$AutoHANDLE@$0A@@@IEAAXXZ@4HA
00000000000c7fa0	wxbase33u:utilsexc.obj	?dtor$5@?0??Set@Event@wxWinAPI@@QEAA_NXZ@4HA
00000000000c7fa0	wxbase33u:utilsexc.obj	?dtor$5@?0??wxExecuteWindowCbk@@YA_JPEAUHWND__@@I_K_J@Z@4HA
00000000000c7fb0	wxbase33u:string.obj	?dtor$18@?0??ConvertStr@wxString@@CA?AU?$SubstrBufFromType@V?$wxScopedCharTypeBuffer@_W@@@1@PEBD_KAEBVwxMBConv@@@Z@4HA
00000000000c7fb0	wxbase33u:string.obj	?dtor$8@?0??ConvertStr@wxString@@CA?AU?$SubstrBufFromType@V?$wxScopedCharTypeBuffer@_W@@@1@PEBD_KAEBVwxMBConv@@@Z@4HA
00000000000c7fc0	wxbase33u:config.obj	?dtor$0@?0??ExpandEnvVars@wxConfigBase@@QEBA?AVwxString@@AEBV2@@Z@4HA
00000000000c7fc0	wxbase33u:fileconf.obj	?dtor$0@?0??GetFullName@wxFileConfigGroup@@QEBA?AVwxString@@XZ@4HA
00000000000c7fc0	wxbase33u:filename.obj	?dtor$0@?0??GetFullPath@wxFileName@@QEBA?AVwxString@@W4wxPathFormat@@@Z@4HA
00000000000c7fc0	wxbase33u:stdpbase.obj	?dtor$0@?0??AppendAppInfo@wxStandardPathsBase@@IEBA?AVwxString@@AEBV2@@Z@4HA
00000000000c7fc0	wxbase33u:string.obj	?dtor$0@?0??DoFormatWchar@wxString@@CA?AV1@PEB_WZZ@4HA
00000000000c7fc0	wxbase33u:sysopt.obj	?dtor$0@?0??GetOption@wxSystemOptions@@SA?AVwxString@@AEBV2@@Z@4HA
00000000000c7fc0	wxbase33u:utils.obj	?dtor$0@?0??wxGetUserHome@@YA?AVwxString@@AEBV1@@Z@4HA
00000000000c7ff0	wxbase33u:any.obj	?dtor$0@?0??ConvertValue@?$wxAnyValueTypeImpl@_N@@UEBA_NAEBTwxAnyValueBuffer@@PEAVwxAnyValueType@@AEAT2@@Z@4HA
00000000000c7ff0	wxbase33u:any.obj	?dtor$0@?0??ConvertValue@wxAnyValueTypeImplInt@@UEBA_NAEBTwxAnyValueBuffer@@PEAVwxAnyValueType@@AEAT2@@Z@4HA
00000000000c7ff0	wxbase33u:any.obj	?dtor$0@?0??ConvertValue@wxAnyValueTypeImplUint@@UEBA_NAEBTwxAnyValueBuffer@@PEAVwxAnyValueType@@AEAT2@@Z@4HA
00000000000c7ff0	wxbase33u:appbase.obj	?dtor$0@?0??GetTraits@wxAppConsoleBase@@QEAAPEAVwxAppTraits@@XZ@4HA
00000000000c7ff0	wxbase33u:appbase.obj	?dtor$0@?0??wxOnAssert@@YAXPEBDH00PEB_W@Z@4HA
00000000000c7ff0	wxbase33u:appbase.obj	?dtor$2@?0??wxOnAssert@@YAXPEBDH00AEBVwxString@@@Z@4HA
00000000000c7ff0	wxbase33u:appbase.obj	?dtor$3@?0??OnAssertFailure@wxAppConsoleBase@@UEAAXPEB_WH000@Z@4HA
00000000000c7ff0	wxbase33u:appbase.obj	?dtor$3@?0??wxOnAssert@@YAXPEBDH000@Z@4HA
00000000000c7ff0	wxbase33u:config.obj	?dtor$0@?0??Read@wxConfigBase@@QEBA_NAEBVwxString@@PEAV2@0@Z@4HA
00000000000c7ff0	wxbase33u:config.obj	?dtor$0@?0??Read@wxConfigBase@@QEBA_NAEBVwxString@@PEAV2@@Z@4HA
00000000000c7ff0	wxbase33u:config.obj	?dtor$1@?0??ExpandEnvVars@wxConfigBase@@QEBA?AVwxString@@AEBV2@@Z@4HA
00000000000c7ff0	wxbase33u:config.obj	?dtor$2@?0???0wxConfigPathChanger@@QEAA@PEBVwxConfigBase@@AEBVwxString@@@Z@4HA
00000000000c7ff0	wxbase33u:dde.obj	?dtor$2@?0??DDEAtomFromString@@YAPEAUHSZ__@@AEBVwxString@@@Z@4HA
00000000000c7ff0	wxbase33u:dir.obj	?dtor$0@?0??DoLogWithNum@wxLogger@@AEAAXJPEB_WZZ@4HA
00000000000c7ff0	wxbase33u:dynlib.obj	?dtor$2@?0??GetSymbol@wxDynamicLibrary@@QEBAPEAXAEBVwxString@@PEA_N@Z@4HA
00000000000c7ff0	wxbase33u:fileconf.obj	?dtor$0@?0??DoWriteBinary@wxFileConfig@@MEAA_NAEBVwxString@@AEBVwxMemoryBuffer@@@Z@4HA
00000000000c7ff0	wxbase33u:fileconf.obj	?dtor$0@?0??RenameEntry@wxFileConfig@@UEAA_NAEBVwxString@@0@Z@4HA
00000000000c7ff0	wxbase33u:fileconf.obj	?dtor$2@?0??GetFullName@wxFileConfigGroup@@QEBA?AVwxString@@XZ@4HA
00000000000c7ff0	wxbase33u:fileconf.obj	?dtor$2@?0??HasEntry@wxFileConfig@@UEBA_NAEBVwxString@@@Z@4HA
00000000000c7ff0	wxbase33u:log.obj	?dtor$0@?0??DoLogRecord@wxLog@@MEAAXKAEBVwxString@@AEBVwxLogRecordInfo@@@Z@4HA
00000000000c7ff0	wxbase33u:log.obj	?dtor$0@?0??OnLog@wxLog@@SAXKAEBVwxString@@AEBVwxLogRecordInfo@@@Z@4HA
00000000000c7ff0	wxbase33u:log.obj	?dtor$2@?0??LogLastRepeatIfNeeded@wxLog@@IEAAIXZ@4HA
00000000000c7ff0	wxbase33u:log.obj	?dtor$3@?0??Format@wxLogFormatter@@UEBA?AVwxString@@KAEBV2@AEBVwxLogRecordInfo@@@Z@4HA
00000000000c7ff0	wxbase33u:log.obj	?dtor$7@?0??Format@wxLogFormatter@@UEBA?AVwxString@@KAEBV2@AEBVwxLogRecordInfo@@@Z@4HA
00000000000c7ff0	wxbase33u:log.obj	?dtor$7@?0??LogLastRepeatIfNeeded@wxLog@@IEAAIXZ@4HA
00000000000c7ff0	wxbase33u:stdpaths.obj	?dtor$0@?0??GetConfigDir@wxStandardPaths@@UEBA?AVwxString@@XZ@4HA
00000000000c7ff0	wxbase33u:stdpaths.obj	?dtor$0@?0??GetUserDataDir@wxStandardPaths@@UEBA?AVwxString@@XZ@4HA
00000000000c7ff0	wxbase33u:stdpaths.obj	?dtor$0@?0??GetUserDir@wxStandardPaths@@UEBA?AVwxString@@W4Dir@wxStandardPathsBase@@@Z@4HA
00000000000c7ff0	wxbase33u:stdpaths.obj	?dtor$0@?0??GetUserLocalDataDir@wxStandardPaths@@UEBA?AVwxString@@XZ@4HA
00000000000c7ff0	wxbase33u:stdpaths.obj	?dtor$5@?0??GetAppDir@wxStandardPaths@@IEBA?AVwxString@@XZ@4HA
00000000000c7ff0	wxbase33u:stdpaths.obj	?dtor$6@?0??MakeConfigFileName@wxStandardPaths@@UEBA?AVwxString@@AEBV2@W4ConfigFileConv@wxStandardPathsBase@@@Z@4HA
00000000000c7ff0	wxbase33u:stdpbase.obj	?dtor$1@?0??AppendAppInfo@wxStandardPathsBase@@IEBA?AVwxString@@AEBV2@@Z@4HA
00000000000c7ff0	wxbase33u:stdpbase.obj	?dtor$1@?0??GetAppDocumentsDir@wxStandardPathsBase@@UEBA?AVwxString@@XZ@4HA
00000000000c7ff0	wxbase33u:stdpbase.obj	?dtor$1@?0??GetLocalizedResourcesDir@wxStandardPathsBase@@UEBA?AVwxString@@AEBV2@W4ResourceCat@1@@Z@4HA
00000000000c7ff0	wxbase33u:stdpbase.obj	?dtor$2@?0??GetAbsolutePath@wxFileName@@QEBA?AVwxString@@AEBV2@W4wxPathFormat@@@Z@4HA
00000000000c7ff0	wxbase33u:stdpbase.obj	?dtor$3@?0??AppendAppInfo@wxStandardPathsBase@@IEBA?AVwxString@@AEBV2@@Z@4HA
00000000000c7ff0	wxbase33u:string.obj	?dtor$1@?0??DoFormatWchar@wxString@@CA?AV1@PEB_WZZ@4HA
00000000000c7ff0	wxbase33u:sysopt.obj	?dtor$6@?0??GetOption@wxSystemOptions@@SA?AVwxString@@AEBV2@@Z@4HA
00000000000c7ff0	wxbase33u:txtstrm.obj	?dtor$0@?0??ReadWord@wxTextInputStream@@QEAA?AVwxString@@XZ@4HA
00000000000c7ff0	wxbase33u:variant.obj	?dtor$0@?0??Eq@wxVariantDataBool@@UEBA_NAEAVwxVariantData@@@Z@4HA
00000000000c7ff0	wxbase33u:variant.obj	?dtor$0@?0??Eq@wxVariantDataChar@@UEBA_NAEAVwxVariantData@@@Z@4HA
00000000000c7ff0	wxbase33u:variant.obj	?dtor$0@?0??Eq@wxVariantDataDateTime@@UEBA_NAEAVwxVariantData@@@Z@4HA
00000000000c7ff0	wxbase33u:variant.obj	?dtor$0@?0??Eq@wxVariantDataLong@@UEBA_NAEAVwxVariantData@@@Z@4HA
00000000000c7ff0	wxbase33u:variant.obj	?dtor$0@?0??Eq@wxVariantDataLongLong@@UEBA_NAEAVwxVariantData@@@Z@4HA
00000000000c7ff0	wxbase33u:variant.obj	?dtor$0@?0??Eq@wxVariantDataString@@UEBA_NAEAVwxVariantData@@@Z@4HA
00000000000c7ff0	wxbase33u:variant.obj	?dtor$0@?0??Eq@wxVariantDataULongLong@@UEBA_NAEAVwxVariantData@@@Z@4HA
00000000000c7ff0	wxbase33u:variant.obj	?dtor$0@?0??Eq@wxVariantDataVoidPtr@@UEBA_NAEAVwxVariantData@@@Z@4HA
00000000000c7ff0	wxbase33u:variant.obj	?dtor$0@?0??Eq@wxVariantDoubleData@@UEBA_NAEAVwxVariantData@@@Z@4HA
00000000000c7ff0	wxbase33u:variant.obj	?dtor$0@?0??Write@wxVariantDataBool@@UEBA_NAEAV?$basic_ostream@DU?$char_traits@D@std@@@std@@@Z@4HA
00000000000c7ff0	wxbase33u:variant.obj	?dtor$0@?0??Write@wxVariantDataChar@@UEBA_NAEAV?$basic_ostream@DU?$char_traits@D@std@@@std@@@Z@4HA
00000000000c7ff0	wxbase33u:variant.obj	?dtor$0@?0??Write@wxVariantDataList@@UEBA_NAEAV?$basic_ostream@DU?$char_traits@D@std@@@std@@@Z@4HA
00000000000c7ff0	wxbase33u:variant.obj	?dtor$0@?0??Write@wxVariantDataLong@@UEBA_NAEAV?$basic_ostream@DU?$char_traits@D@std@@@std@@@Z@4HA
00000000000c7ff0	wxbase33u:variant.obj	?dtor$0@?0??Write@wxVariantDataLongLong@@UEBA_NAEAV?$basic_ostream@DU?$char_traits@D@std@@@std@@@Z@4HA
00000000000c7ff0	wxbase33u:variant.obj	?dtor$0@?0??Write@wxVariantDataULongLong@@UEBA_NAEAV?$basic_ostream@DU?$char_traits@D@std@@@std@@@Z@4HA
00000000000c7ff0	wxbase33u:variant.obj	?dtor$0@?0??Write@wxVariantDataVoidPtr@@UEBA_NAEAV?$basic_ostream@DU?$char_traits@D@std@@@std@@@Z@4HA
00000000000c7ff0	wxbase33u:variant.obj	?dtor$0@?0??Write@wxVariantDataWxObjectPtr@@UEBA_NAEAV?$basic_ostream@DU?$char_traits@D@std@@@std@@@Z@4HA
00000000000c7ff0	wxbase33u:variant.obj	?dtor$0@?0??Write@wxVariantDoubleData@@UEBA_NAEAV?$basic_ostream@DU?$char_traits@D@std@@@std@@@Z@4HA
00000000000c7ff0	wxbase33u:variant.obj	?dtor$1@?0??Eq@wxVariantDataArrayString@@UEBA_NAEAVwxVariantData@@@Z@4HA
00000000000c7ff0	wxbase33u:variant.obj	?dtor$1@?0??Eq@wxVariantDataWxObjectPtr@@UEBA_NAEAVwxVariantData@@@Z@4HA
00000000000c8000	wxbase33u:any.obj	?dtor$0@?0??ConvertValue@wxAnyValueTypeImplConstWchar_tPtr@@UEBA_NAEBTwxAnyValueBuffer@@PEAVwxAnyValueType@@AEAT2@@Z@4HA
00000000000c8000	wxbase33u:appbase.obj	?dtor$0@?0??DoShowAssertDialog@@YA_NAEBVwxString@@@Z@4HA
00000000000c8000	wxbase33u:appbase.obj	?dtor$0@?0??OnCmdLineParsed@wxAppConsoleBase@@UEAA_NAEAVwxCmdLineParser@@@Z@4HA
00000000000c8000	wxbase33u:appbase.obj	?dtor$0@?0??ShowAssertDialog@wxAppTraitsBase@@UEAA_NAEBVwxString@@@Z@4HA
00000000000c8000	wxbase33u:appbase.obj	?dtor$1@?0??SetTraceMasks@@YAXXZ@4HA
00000000000c8000	wxbase33u:appbase.obj	?dtor$2@?0??SetTraceMasks@@YAXXZ@4HA
00000000000c8000	wxbase33u:config.obj	?dtor$0@?0??DoReadDouble@wxConfigBase@@MEBA_NAEBVwxString@@PEAN@Z@4HA
00000000000c8000	wxbase33u:config.obj	?dtor$0@?0??DoReadLongLong@wxConfigBase@@MEBA_NAEBVwxString@@PEA_J@Z@4HA
00000000000c8000	wxbase33u:config.obj	?dtor$0@?0??DoWriteDouble@wxConfigBase@@MEAA_NAEBVwxString@@N@Z@4HA
00000000000c8000	wxbase33u:datetime.obj	?dtor$1@?0??GetAmPmStrings@wxDateTime@@SAXPEAVwxString@@0@Z@4HA
00000000000c8000	wxbase33u:datetime.obj	?dtor$2@?0??GetAmPmStrings@wxDateTime@@SAXPEAVwxString@@0@Z@4HA
00000000000c8000	wxbase33u:datetime.obj	?dtor$4@?0??GetAmPmStrings@wxDateTime@@SAXPEAVwxString@@0@Z@4HA
00000000000c8000	wxbase33u:datetime.obj	?dtor$5@?0??GetAmPmStrings@wxDateTime@@SAXPEAVwxString@@0@Z@4HA
00000000000c8000	wxbase33u:dde.obj	?dtor$0@?0??Disconnect@wxDDEConnection@@UEAA_NXZ@4HA
00000000000c8000	wxbase33u:dde.obj	?dtor$0@?0??OnExecute@wxConnectionBase@@UEAA_NAEBVwxString@@PEBX_KW4wxIPCFormat@@@Z@4HA
00000000000c8000	wxbase33u:dde.obj	?dtor$0@?0??wxDDEInitialize@@YAXXZ@4HA
00000000000c8000	wxbase33u:file.obj	?dtor$4@?0??Open@wxTempFile@@QEAA_NAEBVwxString@@@Z@4HA
00000000000c8000	wxbase33u:fileconf.obj	?dtor$0@?0??DeleteGroup@wxFileConfig@@UEAA_NAEBVwxString@@@Z@4HA
00000000000c8000	wxbase33u:fileconf.obj	?dtor$0@?0??DoReadLong@wxFileConfig@@MEBA_NAEBVwxString@@PEAJ@Z@4HA
00000000000c8000	wxbase33u:fileconf.obj	?dtor$0@?0??HasGroup@wxFileConfig@@UEBA_NAEBVwxString@@@Z@4HA
00000000000c8000	wxbase33u:fileconf.obj	?dtor$1@?0??DeleteEntry@wxFileConfig@@UEAA_NAEBVwxString@@_N@Z@4HA
00000000000c8000	wxbase33u:filename.obj	?dtor$0@?0??AssignDir@wxFileName@@QEAAXAEBVwxString@@W4wxPathFormat@@@Z@4HA
00000000000c8000	wxbase33u:filename.obj	?dtor$0@?0??FileExists@wxFileName@@QEBA_NXZ@4HA
00000000000c8000	wxbase33u:filename.obj	?dtor$0@?0??wxFileSystemObjectExists@?A0x5494b9e8@@YA_NAEBVwxString@@H@Z@4HA
00000000000c8000	wxbase33u:init.obj	?dtor$0@?0???$Init@_W@wxCmdLineArgsArray@@QEAAXHPEAPEA_W@Z@4HA
00000000000c8000	wxbase33u:msgout.obj	?dtor$0@?0??DoPrintfWchar@wxMessageOutput@@IEAAXPEB_WZZ@4HA
00000000000c8000	wxbase33u:regconf.obj	?dtor$0@?0??DeleteGroup@wxRegConfig@@UEAA_NAEBVwxString@@@Z@4HA
00000000000c8000	wxbase33u:regconf.obj	?dtor$1@?0??GetEntryType@wxRegConfig@@UEBA?AW4EntryType@wxConfigBase@@AEBVwxString@@@Z@4HA
00000000000c8000	wxbase33u:regconf.obj	?dtor$1@?0??HasEntry@wxRegConfig@@UEBA_NAEBVwxString@@@Z@4HA
00000000000c8000	wxbase33u:regconf.obj	?dtor$1@?0??HasGroup@wxRegConfig@@UEBA_NAEBVwxString@@@Z@4HA
00000000000c8000	wxbase33u:regconf.obj	?dtor$2@?0??DeleteEntry@wxRegConfig@@UEAA_NAEBVwxString@@_N@Z@4HA
00000000000c8000	wxbase33u:string.obj	?dtor$0@?0??DoPrintfWchar@wxString@@AEAAHPEB_WZZ@4HA
00000000000c8000	wxbase33u:utils.obj	?dtor$0@?0??wxCharsetToCodepage@@YAJPEBD@Z@4HA
00000000000c8010	wxbase33u:string.obj	?dtor$0@?0??DoStringPrintfV@@YAHAEAVwxString@@AEBV1@PEAD@Z@4HA
00000000000c8020	wxbase33u:datetimefmt.obj	?dtor$0@?0??ParseFormatAt@?A0x0fa96387@@YA?AVwxDateTime@@AEAVconst_iterator@wxString@@AEBV34@AEBV4@2@Z@4HA
00000000000c8020	wxbase33u:dde.obj	?dtor$0@?0??Request@wxDDEConnection@@UEAAPEBXAEBVwxString@@PEA_KW4wxIPCFormat@@@Z@4HA
00000000000c8020	wxbase33u:dde.obj	?dtor$2@?0??DoPoke@wxDDEConnection@@MEAA_NAEBVwxString@@PEBX_KW4wxIPCFormat@@@Z@4HA
00000000000c8020	wxbase33u:dde.obj	?dtor$2@?0??StartAdvise@wxDDEConnection@@UEAA_NAEBVwxString@@@Z@4HA
00000000000c8020	wxbase33u:dde.obj	?dtor$2@?0??StopAdvise@wxDDEConnection@@UEAA_NAEBVwxString@@@Z@4HA
00000000000c8020	wxbase33u:fileconf.obj	?dtor$0@?0??DoReadBinary@wxFileConfig@@MEBA_NAEBVwxString@@PEAVwxMemoryBuffer@@@Z@4HA
00000000000c8020	wxbase33u:filename.obj	?dtor$3@?0??Assign@wxFileName@@QEAAXAEBVwxString@@W4wxPathFormat@@@Z@4HA
00000000000c8020	wxbase33u:longlong.obj	?dtor$1@?0??ToString@wxULongLongNative@@QEBA?AVwxString@@XZ@4HA
00000000000c8020	wxbase33u:stackwalk.obj	?dtor$3@?0??OnParam@wxStackFrame@@QEAAXPEAU_SYMBOL_INFOW@@@Z@4HA
00000000000c8020	wxbase33u:string.obj	?dtor$0@?0??FromAscii@wxString@@SA?AV1@PEBD_K@Z@4HA
00000000000c8020	wxbase33u:translation.obj	?dtor$1@?0??GetString@wxMsgCatalog@@QEBAPEBVwxString@@AEBV2@I0@Z@4HA
00000000000c8020	wxbase33u:translation.obj	?dtor$3@?0??GetString@wxMsgCatalog@@QEBAPEBVwxString@@AEBV2@I0@Z@4HA
00000000000c8020	wxbase33u:translation.obj	?dtor$9@?0??GetString@wxMsgCatalog@@QEBAPEBVwxString@@AEBV2@I0@Z@4HA
00000000000c8020	wxbase33u:txtstrm.obj	?dtor$0@?0??WriteString@wxTextOutputStream@@UEAAXAEBVwxString@@@Z@4HA
00000000000c8020	wxbase33u:variant.obj	?dtor$0@?0??Read@wxVariantDataChar@@UEAA_NAEAVwxInputStream@@@Z@4HA
00000000000c8030	wxbase33u:string.obj	?dtor$2@?0??FromAscii@wxString@@SA?AV1@PEBD_K@Z@4HA
00000000000c8040	wxbase33u:appbase.obj	?dtor$3@?0??ShowAssertDialog@wxAppTraitsBase@@UEAA_NAEBVwxString@@@Z@4HA
00000000000c8040	wxbase33u:appbase.obj	?dtor$4@?0???$Printf@VwxString@@HV1@@wxString@@QEAAHAEBVwxFormatString@@V0@H1@Z@4HA
00000000000c8040	wxbase33u:cmdline.obj	?dtor$1@?0??Usage@wxCmdLineParser@@QEBAXXZ@4HA
00000000000c8040	wxbase33u:config.obj	?dtor$4@?0??wxExpandEnvVars@@YA?AVwxString@@AEBV1@@Z@4HA
00000000000c8040	wxbase33u:dde.obj	?dtor$2@?0??Create@wxDDEServer@@UEAA_NAEBVwxString@@@Z@4HA
00000000000c8040	wxbase33u:filename.obj	?dtor$0@?0??DoSetPath@wxFileName@@AEAAXAEBVwxString@@W4wxPathFormat@@H@Z@4HA
00000000000c8040	wxbase33u:filename.obj	?dtor$6@?0??Assign@wxFileName@@QEAAXAEBVwxString@@0W4wxPathFormat@@@Z@4HA
00000000000c8040	wxbase33u:log.obj	?dtor$11@?0??CallDoLogNow@wxLog@@AEAAXKAEBVwxString@@AEBVwxLogRecordInfo@@@Z@4HA
00000000000c8040	wxbase33u:log.obj	?dtor$13@?0??CallDoLogNow@wxLog@@AEAAXKAEBVwxString@@AEBVwxLogRecordInfo@@@Z@4HA
00000000000c8040	wxbase33u:longlong.obj	?dtor$14@?0??ToString@wxLongLongNative@@QEBA?AVwxString@@XZ@4HA
00000000000c8040	wxbase33u:longlong.obj	?dtor$29@?0??ToString@wxLongLongNative@@QEBA?AVwxString@@XZ@4HA
00000000000c8040	wxbase33u:longlong.obj	?dtor$47@?0??ToString@wxLongLongNative@@QEBA?AVwxString@@XZ@4HA
00000000000c8040	wxbase33u:registry.obj	?dtor$4@?0??CopyValue@wxRegKey@@QEAA_NAEBVwxString@@AEAV1@0@Z@4HA
00000000000c8040	wxbase33u:string.obj	?dtor$1@?0??FromCDouble@wxString@@SA?AV1@NH@Z@4HA
00000000000c8040	wxbase33u:txtstrm.obj	?dtor$0@?0??Read32@wxTextInputStream@@QEAAIH@Z@4HA
00000000000c8040	wxbase33u:variant.obj	?dtor$1@?0??Write@wxVariantDataWxObjectPtr@@UEBA_NAEAVwxString@@@Z@4HA
00000000000c8050	wxbase33u:appbase.obj	?dtor$3@?0???$Printf@VwxString@@HV1@@wxString@@QEAAHAEBVwxFormatString@@V0@H1@Z@4HA
00000000000c8050	wxbase33u:config.obj	?dtor$5@?0??wxExpandEnvVars@@YA?AVwxString@@AEBV1@@Z@4HA
00000000000c8050	wxbase33u:dde.obj	?dtor$1@?0??Create@wxDDEServer@@UEAA_NAEBVwxString@@@Z@4HA
00000000000c8050	wxbase33u:dde.obj	?dtor$2@?0??MakeConnection@wxDDEClient@@UEAAPEAVwxConnectionBase@@AEBVwxString@@00@Z@4HA
00000000000c8050	wxbase33u:filename.obj	?dtor$5@?0??Assign@wxFileName@@QEAAXAEBVwxString@@0W4wxPathFormat@@@Z@4HA
00000000000c8050	wxbase33u:filename.obj	?dtor$5@?0??DoSetPath@wxFileName@@AEAAXAEBVwxString@@W4wxPathFormat@@H@Z@4HA
00000000000c8050	wxbase33u:log.obj	?dtor$10@?0??CallDoLogNow@wxLog@@AEAAXKAEBVwxString@@AEBVwxLogRecordInfo@@@Z@4HA
00000000000c8050	wxbase33u:log.obj	?dtor$12@?0??CallDoLogNow@wxLog@@AEAAXKAEBVwxString@@AEBVwxLogRecordInfo@@@Z@4HA
00000000000c8050	wxbase33u:log.obj	?dtor$3@?0??CallDoLogNow@wxLog@@AEAAXKAEBVwxString@@AEBVwxLogRecordInfo@@@Z@4HA
00000000000c8050	wxbase33u:registry.obj	?dtor$6@?0??CopyValue@wxRegKey@@QEAA_NAEBVwxString@@AEAV1@0@Z@4HA
00000000000c8050	wxbase33u:string.obj	?dtor$2@?0??FromCDouble@wxString@@SA?AV1@NH@Z@4HA
00000000000c8060	wxbase33u:appbase.obj	?dtor$0@?0??SetTraceMasks@@YAXXZ@4HA
00000000000c8060	wxbase33u:appbase.obj	?dtor$1@?0??ShowAssertDialog@wxAppTraitsBase@@UEAA_NAEBVwxString@@@Z@4HA
00000000000c8060	wxbase33u:appbase.obj	?dtor$5@?0???$Printf@VwxString@@HV1@@wxString@@QEAAHAEBVwxFormatString@@V0@H1@Z@4HA
00000000000c8060	wxbase33u:config.obj	?dtor$4@?0??DoReadDouble@wxConfigBase@@MEBA_NAEBVwxString@@PEAN@Z@4HA
00000000000c8060	wxbase33u:config.obj	?dtor$4@?0??DoReadLongLong@wxConfigBase@@MEBA_NAEBVwxString@@PEA_J@Z@4HA
00000000000c8060	wxbase33u:dde.obj	?dtor$1@?0??DoExecute@wxDDEConnection@@MEAA_NPEBX_KW4wxIPCFormat@@@Z@4HA
00000000000c8060	wxbase33u:fileconf.obj	?dtor$1@?0??FilterOutValue@@YA?AVwxString@@AEBV1@@Z@4HA
00000000000c8060	wxbase33u:fileconf.obj	?dtor$21@?0???0wxFileConfig@@QEAA@AEBVwxString@@000JAEBVwxMBConv@@@Z@4HA
00000000000c8060	wxbase33u:fileconf.obj	?dtor$54@?0???0wxFileConfig@@QEAA@AEBVwxString@@000JAEBVwxMBConv@@@Z@4HA
00000000000c8060	wxbase33u:filename.obj	?dtor$1@?0??Assign@wxFileName@@QEAAXAEBVwxString@@0W4wxPathFormat@@@Z@4HA
00000000000c8060	wxbase33u:filename.obj	?dtor$1@?0??DoSetPath@wxFileName@@AEAAXAEBVwxString@@W4wxPathFormat@@H@Z@4HA
00000000000c8060	wxbase33u:longlong.obj	?dtor$1@?0??ToString@wxLongLongNative@@QEBA?AVwxString@@XZ@4HA
00000000000c8060	wxbase33u:longlong.obj	?dtor$2@?0??ToString@wxLongLongNative@@QEBA?AVwxString@@XZ@4HA
00000000000c8060	wxbase33u:longlong.obj	?dtor$3@?0??ToString@wxLongLongNative@@QEBA?AVwxString@@XZ@4HA
00000000000c8060	wxbase33u:msgout.obj	?dtor$1@?0??DoPrintfWchar@wxMessageOutput@@IEAAXPEB_WZZ@4HA
00000000000c8060	wxbase33u:regconf.obj	?dtor$1@?0??DeleteEntry@wxRegConfig@@UEAA_NAEBVwxString@@_N@Z@4HA
00000000000c8060	wxbase33u:registry.obj	?dtor$1@?0??CopyValue@wxRegKey@@QEAA_NAEBVwxString@@AEAV1@0@Z@4HA
00000000000c8060	wxbase33u:stdpbase.obj	?dtor$18@?0??GetExecutablePath@wxStandardPathsBase@@UEBA?AVwxString@@XZ@4HA
00000000000c8060	wxbase33u:string.obj	?dtor$3@?0??FromCDouble@wxString@@SA?AV1@NH@Z@4HA
00000000000c8060	wxbase33u:txtstrm.obj	?dtor$3@?0??Read32@wxTextInputStream@@QEAAIH@Z@4HA
00000000000c8070	wxbase33u:appbase.obj	?dtor$10@?0??OnStackFrame@StackDump@?1??GetAssertStackTrace@wxAppTraitsBase@@UEAA?AVwxString@@XZ@MEAAXAEBVwxStackFrame@@@Z@4HA
00000000000c8070	wxbase33u:appbase.obj	?dtor$3@?0???6wxString@@QEAAAEAV0@_K@Z@4HA
00000000000c8070	wxbase33u:config.obj	?dtor$2@?0??DoWriteLongLong@wxConfigBase@@MEAA_NAEBVwxString@@_J@Z@4HA
00000000000c8070	wxbase33u:dde.obj	?dtor$9@?0??DoAdvise@wxDDEConnection@@MEAA_NAEBVwxString@@PEBX_KW4wxIPCFormat@@@Z@4HA
00000000000c8070	wxbase33u:debughlp.obj	?dtor$12@?0??DumpBaseType@wxDbgHelpDLL@@CA?AVwxString@@W4BasicType@1@_KPEAX@Z@4HA
00000000000c8070	wxbase33u:debughlp.obj	?dtor$17@?0??DumpBaseType@wxDbgHelpDLL@@CA?AVwxString@@W4BasicType@1@_KPEAX@Z@4HA
00000000000c8070	wxbase33u:debughlp.obj	?dtor$22@?0??DumpBaseType@wxDbgHelpDLL@@CA?AVwxString@@W4BasicType@1@_KPEAX@Z@4HA
00000000000c8070	wxbase33u:debughlp.obj	?dtor$27@?0??DumpBaseType@wxDbgHelpDLL@@CA?AVwxString@@W4BasicType@1@_KPEAX@Z@4HA
00000000000c8070	wxbase33u:debughlp.obj	?dtor$32@?0??DumpBaseType@wxDbgHelpDLL@@CA?AVwxString@@W4BasicType@1@_KPEAX@Z@4HA
00000000000c8070	wxbase33u:debughlp.obj	?dtor$37@?0??DumpBaseType@wxDbgHelpDLL@@CA?AVwxString@@W4BasicType@1@_KPEAX@Z@4HA
00000000000c8070	wxbase33u:debughlp.obj	?dtor$3@?0??LogError@wxDbgHelpDLL@@SAXPEB_W@Z@4HA
00000000000c8070	wxbase33u:evtloopconsole.obj	?dtor$4@?0??GetNextMessageTimeout@wxMSWEventLoopBase@@IEAAHPEAUtagMSG@@K@Z@4HA
00000000000c8070	wxbase33u:ffile.obj	?dtor$25@?0??Close@wxFFile@@QEAA_NXZ@4HA
00000000000c8070	wxbase33u:file.obj	?dtor$14@?0??Read@wxFile@@QEAA_JPEAX_K@Z@4HA
00000000000c8070	wxbase33u:file.obj	?dtor$14@?0??Write@wxFile@@QEAA_KPEBX_K@Z@4HA
00000000000c8070	wxbase33u:file.obj	?dtor$24@?0??Close@wxFile@@QEAA_NXZ@4HA
00000000000c8070	wxbase33u:file.obj	?dtor$24@?0??Length@wxFile@@QEBA_JXZ@4HA
00000000000c8070	wxbase33u:file.obj	?dtor$24@?0??Seek@wxFile@@QEAA_J_JW4wxSeekMode@@@Z@4HA
00000000000c8070	wxbase33u:file.obj	?dtor$24@?0??Tell@wxFile@@QEBA_JXZ@4HA
00000000000c8070	wxbase33u:file.obj	?dtor$25@?0??Discard@wxTempFile@@QEAAXXZ@4HA
00000000000c8070	wxbase33u:file.obj	?dtor$34@?0??Commit@wxTempFile@@QEAA_NXZ@4HA
00000000000c8070	wxbase33u:file.obj	?dtor$97@?0??Commit@wxTempFile@@QEAA_NXZ@4HA
00000000000c8070	wxbase33u:fileconf.obj	?dtor$102@?0??GetGroupLine@wxFileConfigGroup@@QEAAPEAVwxFileConfigLineList@@XZ@4HA
00000000000c8070	wxbase33u:fileconf.obj	?dtor$118@?0??LineListRemove@wxFileConfig@@QEAAXPEAVwxFileConfigLineList@@@Z@4HA
00000000000c8070	wxbase33u:fileconf.obj	?dtor$128@?0??DoWriteString@wxFileConfig@@MEAA_NAEBVwxString@@0@Z@4HA
00000000000c8070	wxbase33u:fileconf.obj	?dtor$137@?0??DoWriteString@wxFileConfig@@MEAA_NAEBVwxString@@0@Z@4HA
00000000000c8070	wxbase33u:fileconf.obj	?dtor$181@?0??DoWriteString@wxFileConfig@@MEAA_NAEBVwxString@@0@Z@4HA
00000000000c8070	wxbase33u:fileconf.obj	?dtor$184@?0??LineListRemove@wxFileConfig@@QEAAXPEAVwxFileConfigLineList@@@Z@4HA
00000000000c8070	wxbase33u:fileconf.obj	?dtor$223@?0??LineListRemove@wxFileConfig@@QEAAXPEAVwxFileConfigLineList@@@Z@4HA
00000000000c8070	wxbase33u:fileconf.obj	?dtor$25@?0??SetLine@wxFileConfigEntry@@QEAAXPEAVwxFileConfigLineList@@@Z@4HA
00000000000c8070	wxbase33u:fileconf.obj	?dtor$2@?0??DoWriteLong@wxFileConfig@@MEAA_NAEBVwxString@@J@Z@4HA
00000000000c8070	wxbase33u:fileconf.obj	?dtor$55@?0??GetGroupLine@wxFileConfigGroup@@QEAAPEAVwxFileConfigLineList@@XZ@4HA
00000000000c8070	wxbase33u:fileconf.obj	?dtor$57@?0??DoWriteString@wxFileConfig@@MEAA_NAEBVwxString@@0@Z@4HA
00000000000c8070	wxbase33u:fileconf.obj	?dtor$57@?0??LineListRemove@wxFileConfig@@QEAAXPEAVwxFileConfigLineList@@@Z@4HA
00000000000c8070	wxbase33u:fileconf.obj	?dtor$71@?0??DoWriteString@wxFileConfig@@MEAA_NAEBVwxString@@0@Z@4HA
00000000000c8070	wxbase33u:fileconf.obj	?dtor$75@?0??GetGroupLine@wxFileConfigGroup@@QEAAPEAVwxFileConfigLineList@@XZ@4HA
00000000000c8070	wxbase33u:fileconf.obj	?dtor$96@?0??LineListRemove@wxFileConfig@@QEAAXPEAVwxFileConfigLineList@@@Z@4HA
00000000000c8070	wxbase33u:filefn.obj	?dtor$26@?0??wxDoGetCwd@@YAPEA_WPEA_WH@Z@4HA
00000000000c8070	wxbase33u:filefn.obj	?dtor$26@?0??wxSetWorkingDirectory@@YA_NAEBVwxString@@@Z@4HA
00000000000c8070	wxbase33u:filefn.obj	?dtor$27@?0??wxRemoveFile@@YA_NAEBVwxString@@@Z@4HA
00000000000c8070	wxbase33u:filefn.obj	?dtor$28@?0??wxCopyFile@@YA_NAEBVwxString@@0_N@Z@4HA
00000000000c8070	wxbase33u:filefn.obj	?dtor$37@?0??wxRenameFile@@YA_NAEBVwxString@@0_N@Z@4HA
00000000000c8070	wxbase33u:filefn.obj	?dtor$92@?0??wxRenameFile@@YA_NAEBVwxString@@0_N@Z@4HA
00000000000c8070	wxbase33u:fmapbase.obj	?dtor$18@?0??GetEncodingName@wxFontMapperBase@@SA?AVwxString@@W4wxFontEncoding@@@Z@4HA
00000000000c8070	wxbase33u:module.obj	?dtor$100@?0??DoInitializeModule@wxModule@@CA_NPEAV1@AEAV?$vector@PEAVwxModule@@V?$allocator@PEAVwxModule@@@std@@@std@@@Z@4HA
00000000000c8070	wxbase33u:module.obj	?dtor$126@?0??DoInitializeModule@wxModule@@CA_NPEAV1@AEAV?$vector@PEAVwxModule@@V?$allocator@PEAVwxModule@@@std@@@std@@@Z@4HA
00000000000c8070	wxbase33u:module.obj	?dtor$150@?0??DoInitializeModule@wxModule@@CA_NPEAV1@AEAV?$vector@PEAVwxModule@@V?$allocator@PEAVwxModule@@@std@@@std@@@Z@4HA
00000000000c8070	wxbase33u:module.obj	?dtor$57@?0??DoInitializeModule@wxModule@@CA_NPEAV1@AEAV?$vector@PEAVwxModule@@V?$allocator@PEAVwxModule@@@std@@@std@@@Z@4HA
00000000000c8070	wxbase33u:module.obj	?dtor$5@?0??DoCleanUpModules@wxModule@@CAXAEBV?$vector@PEAVwxModule@@V?$allocator@PEAVwxModule@@@std@@@std@@@Z@4HA
00000000000c8070	wxbase33u:module.obj	?dtor$5@?0??RegisterModules@wxModule@@SAXXZ@4HA
00000000000c8070	wxbase33u:object.obj	?dtor$11@?0??Register@wxClassInfo@@IEAAXXZ@4HA
00000000000c8070	wxbase33u:regconf.obj	?dtor$6@?0???$DoWriteValue@J@wxRegConfig@@IEAA_NAEBVwxString@@AEBJ@Z@4HA
00000000000c8070	wxbase33u:regconf.obj	?dtor$6@?0???$DoWriteValue@VwxMemoryBuffer@@@wxRegConfig@@IEAA_NAEBVwxString@@AEBVwxMemoryBuffer@@@Z@4HA
00000000000c8070	wxbase33u:regconf.obj	?dtor$6@?0???$DoWriteValue@VwxString@@@wxRegConfig@@IEAA_NAEBVwxString@@0@Z@4HA
00000000000c8070	wxbase33u:regconf.obj	?dtor$6@?0???$DoWriteValue@_J@wxRegConfig@@IEAA_NAEBVwxString@@AEB_J@Z@4HA
00000000000c8070	wxbase33u:registry.obj	?dtor$11@?0??GetTypeString@@YA?AVwxString@@K@Z@4HA
00000000000c8070	wxbase33u:registry.obj	?dtor$124@?0??Rename@wxRegKey@@QEAA_NAEBVwxString@@@Z@4HA
00000000000c8070	wxbase33u:registry.obj	?dtor$152@?0??Copy@wxRegKey@@QEAA_NAEAV1@@Z@4HA
00000000000c8070	wxbase33u:registry.obj	?dtor$25@?0??SetValue64@wxRegKey@@QEAA_NAEBVwxString@@_J@Z@4HA
00000000000c8070	wxbase33u:registry.obj	?dtor$25@?0??SetValue@wxRegKey@@QEAA_NAEBVwxString@@0@Z@4HA
00000000000c8070	wxbase33u:registry.obj	?dtor$25@?0??SetValue@wxRegKey@@QEAA_NAEBVwxString@@AEBVwxMemoryBuffer@@@Z@4HA
00000000000c8070	wxbase33u:registry.obj	?dtor$26@?0??Close@wxRegKey@@QEAA_NXZ@4HA
00000000000c8070	wxbase33u:registry.obj	?dtor$26@?0??GetValueType@wxRegKey@@QEBA?AW4ValueType@1@AEBVwxString@@@Z@4HA
00000000000c8070	wxbase33u:registry.obj	?dtor$26@?0??Open@wxRegKey@@QEAA_NW4AccessMode@1@@Z@4HA
00000000000c8070	wxbase33u:registry.obj	?dtor$33@?0??RenameValue@wxRegKey@@QEAA_NAEBVwxString@@0@Z@4HA
00000000000c8070	wxbase33u:registry.obj	?dtor$43@?0??QueryValue64@wxRegKey@@QEBA_NAEBVwxString@@PEA_J@Z@4HA
00000000000c8070	wxbase33u:registry.obj	?dtor$43@?0??QueryValue@wxRegKey@@QEBA_NAEBVwxString@@PEAJ@Z@4HA
00000000000c8070	wxbase33u:registry.obj	?dtor$54@?0??Copy@wxRegKey@@QEAA_NAEAV1@@Z@4HA
00000000000c8070	wxbase33u:registry.obj	?dtor$57@?0??Rename@wxRegKey@@QEAA_NAEBVwxString@@@Z@4HA
00000000000c8070	wxbase33u:registry.obj	?dtor$83@?0??QueryValue64@wxRegKey@@QEBA_NAEBVwxString@@PEA_J@Z@4HA
00000000000c8070	wxbase33u:registry.obj	?dtor$83@?0??QueryValue@wxRegKey@@QEBA_NAEBVwxString@@PEAJ@Z@4HA
00000000000c8070	wxbase33u:registry.obj	?dtor$87@?0??RenameValue@wxRegKey@@QEAA_NAEBVwxString@@0@Z@4HA
00000000000c8070	wxbase33u:registry.obj	?dtor$92@?0??Rename@wxRegKey@@QEAA_NAEBVwxString@@@Z@4HA
00000000000c8070	wxbase33u:registry.obj	?dtor$94@?0??Copy@wxRegKey@@QEAA_NAEAV1@@Z@4HA
00000000000c8070	wxbase33u:strconv.obj	?dtor$37@?0??DoCreate@wxCSConv@@AEBAPEAVwxMBConv@@XZ@4HA
00000000000c8070	wxbase33u:stream.obj	?dtor$4@?0??SeekI@wxInputStream@@UEAA_J_JW4wxSeekMode@@@Z@4HA
00000000000c8070	wxbase33u:string.obj	?dtor$7@?0??FromCDouble@wxString@@SA?AV1@NH@Z@4HA
00000000000c8070	wxbase33u:strvararg.obj	?dtor$19@?0???0?$wxPrintfConvSpecParser@_W@@QEAA@PEB_W@Z@4HA
00000000000c8070	wxbase33u:strvararg.obj	?dtor$24@?0???0?$wxPrintfConvSpecParser@D@@QEAA@PEBD@Z@4HA
00000000000c8070	wxbase33u:strvararg.obj	?dtor$6@?0???0?$wxPrintfConvSpecParser@D@@QEAA@PEBD@Z@4HA
00000000000c8070	wxbase33u:strvararg.obj	?dtor$6@?0???0?$wxPrintfConvSpecParser@_W@@QEAA@PEB_W@Z@4HA
00000000000c8070	wxbase33u:thread.obj	?dtor$34@?0??OnInit@wxThreadModule@@UEAA_NXZ@4HA
00000000000c8070	wxbase33u:thread.obj	?dtor$86@?0??OnInit@wxThreadModule@@UEAA_NXZ@4HA
00000000000c8070	wxbase33u:txtstrm.obj	?dtor$5@?0??Write32@wxTextOutputStream@@QEAAXI@Z@4HA
00000000000c8070	wxbase33u:txtstrm.obj	?dtor$5@?0??Write8@wxTextOutputStream@@QEAAXE@Z@4HA
00000000000c8070	wxbase33u:txtstrm.obj	?dtor$5@?0??WriteDouble@wxTextOutputStream@@UEAAXN@Z@4HA
00000000000c8070	wxbase33u:utilsexc.obj	?dtor$24@?0??Create@wxPipe@@QEAA_NXZ@4HA
00000000000c8080	wxbase33u:appbase.obj	?dtor$0@?0??ShowAssertDialog@@YAXAEBVwxString@@H000PEAVwxAppTraits@@@Z@4HA
00000000000c8080	wxbase33u:appbase.obj	?dtor$19@?0??OnStackFrame@StackDump@?1??GetAssertStackTrace@wxAppTraitsBase@@UEAA?AVwxString@@XZ@MEAAXAEBVwxStackFrame@@@Z@4HA
00000000000c8080	wxbase33u:appbase.obj	?dtor$6@?0??OnStackFrame@StackDump@?1??GetAssertStackTrace@wxAppTraitsBase@@UEAA?AVwxString@@XZ@MEAAXAEBVwxStackFrame@@@Z@4HA
00000000000c8080	wxbase33u:appbase.obj	?dtor$8@?0??OnStackFrame@StackDump@?1??GetAssertStackTrace@wxAppTraitsBase@@UEAA?AVwxString@@XZ@MEAAXAEBVwxStackFrame@@@Z@4HA
00000000000c8080	wxbase33u:appbase.obj	?dtor$9@?0??OnStackFrame@StackDump@?1??GetAssertStackTrace@wxAppTraitsBase@@UEAA?AVwxString@@XZ@MEAAXAEBVwxStackFrame@@@Z@4HA
00000000000c8080	wxbase33u:datetime.obj	?dtor$0@?0??GetFirstWeekDay@wxDateTime@@SA_NPEAW4WeekDay@1@@Z@4HA
00000000000c8080	wxbase33u:datetime.obj	?dtor$1@?0??GetMonthName@wxDateTime@@SA?AVwxString@@W4Month@1@W4NameFlags@1@@Z@4HA
00000000000c8080	wxbase33u:datetime.obj	?dtor$1@?0??GetWeekDayName@wxDateTime@@SA?AVwxString@@W4WeekDay@1@W4NameFlags@1@@Z@4HA
00000000000c8080	wxbase33u:dynlib.obj	?dtor$2@?0??Load@wxDynamicLibrary@@QEAA_NAEBVwxString@@H@Z@4HA
00000000000c8080	wxbase33u:dynlib.obj	?dtor$4@?0??Load@wxDynamicLibrary@@QEAA_NAEBVwxString@@H@Z@4HA
00000000000c8080	wxbase33u:fileconf.obj	?dtor$12@?0??Flush@wxFileConfig@@UEAA_N_N@Z@4HA
00000000000c8080	wxbase33u:fileconf.obj	?dtor$18@?0??Flush@wxFileConfig@@UEAA_N_N@Z@4HA
00000000000c8080	wxbase33u:fileconf.obj	?dtor$6@?0??Flush@wxFileConfig@@UEAA_N_N@Z@4HA
00000000000c8080	wxbase33u:filefn.obj	?dtor$0@?0??AddEnvList@wxPathList@@QEAAXAEBVwxString@@@Z@4HA
00000000000c8080	wxbase33u:filename.obj	?dtor$0@?0??GetCwd@wxFileName@@SA?AVwxString@@AEBV2@@Z@4HA
00000000000c8080	wxbase33u:filename.obj	?dtor$0@?0??GetPath@wxFileName@@QEBA?AVwxString@@HW4wxPathFormat@@@Z@4HA
00000000000c8080	wxbase33u:filename.obj	?dtor$0@?0??GetTempDir@wxFileName@@SA?AVwxString@@XZ@4HA
00000000000c8080	wxbase33u:filename.obj	?dtor$1@?0??wxOleInitialize@@YA_NXZ@4HA
00000000000c8080	wxbase33u:filename.obj	?dtor$2@?0??GetTempDir@wxFileName@@SA?AVwxString@@XZ@4HA
00000000000c8080	wxbase33u:filename.obj	?dtor$2@?0??SplitPath@wxFileName@@SAXAEBVwxString@@PEAV2@111PEA_NW4wxPathFormat@@@Z@4HA
00000000000c8080	wxbase33u:filename.obj	?dtor$3@?0??SplitPath@wxFileName@@SAXAEBVwxString@@PEAV2@111PEA_NW4wxPathFormat@@@Z@4HA
00000000000c8080	wxbase33u:filename.obj	?dtor$4@?0??GetTempDir@wxFileName@@SA?AVwxString@@XZ@4HA
00000000000c8080	wxbase33u:filename.obj	?dtor$4@?0??SplitPath@wxFileName@@SAXAEBVwxString@@PEAV2@111PEA_NW4wxPathFormat@@@Z@4HA
00000000000c8080	wxbase33u:fmapbase.obj	?dtor$3@?0???0wxMemoryConfig@@QEAA@XZ@4HA
00000000000c8080	wxbase33u:fmapbase.obj	?dtor$4@?0??GetEncodingName@wxFontMapperBase@@SA?AVwxString@@W4wxFontEncoding@@@Z@4HA
00000000000c8080	wxbase33u:init.obj	?dtor$3@?0??DoCommonPostInit@@YA_NXZ@4HA
00000000000c8080	wxbase33u:registry.obj	?dtor$3@?0??GetTypeString@@YA?AVwxString@@K@Z@4HA
00000000000c8080	wxbase33u:stdpaths.obj	?dtor$16@?0??IgnoreAppSubDir@wxStandardPaths@@QEAAXAEBVwxString@@@Z@4HA
00000000000c8080	wxbase33u:stdpaths.obj	?dtor$4@?0??IgnoreAppSubDir@wxStandardPaths@@QEAAXAEBVwxString@@@Z@4HA
00000000000c8080	wxbase33u:string.obj	?dtor$1@?0??FromDouble@wxString@@SA?AV1@NH@Z@4HA
00000000000c8090	wxbase33u:appbase.obj	?dtor$1@?0??ShowAssertDialog@@YAXAEBVwxString@@H000PEAVwxAppTraits@@@Z@4HA
00000000000c8090	wxbase33u:appbase.obj	?dtor$4@?0??ShowAssertDialog@@YAXAEBVwxString@@H000PEAVwxAppTraits@@@Z@4HA
00000000000c8090	wxbase33u:basemsw.obj	?dtor$0@?0??WriteToStderr@wxConsoleAppTraits@@UEAA_NAEBVwxString@@@Z@4HA
00000000000c8090	wxbase33u:fileconf.obj	?dtor$13@?0??DeleteSubgroup@wxFileConfigGroup@@AEAA_NPEAV1@@Z@4HA
00000000000c8090	wxbase33u:fileconf.obj	?dtor$18@?0??DeleteSubgroup@wxFileConfigGroup@@AEAA_NPEAV1@@Z@4HA
00000000000c8090	wxbase33u:fileconf.obj	?dtor$1@?0??DeleteSubgroup@wxFileConfigGroup@@AEAA_NPEAV1@@Z@4HA
00000000000c8090	wxbase33u:fileconf.obj	?dtor$22@?0??DeleteSubgroup@wxFileConfigGroup@@AEAA_NPEAV1@@Z@4HA
00000000000c8090	wxbase33u:fileconf.obj	?dtor$27@?0??DeleteSubgroup@wxFileConfigGroup@@AEAA_NPEAV1@@Z@4HA
00000000000c8090	wxbase33u:fileconf.obj	?dtor$31@?0??DeleteSubgroup@wxFileConfigGroup@@AEAA_NPEAV1@@Z@4HA
00000000000c8090	wxbase33u:fileconf.obj	?dtor$39@?0??DeleteSubgroup@wxFileConfigGroup@@AEAA_NPEAV1@@Z@4HA
00000000000c8090	wxbase33u:fileconf.obj	?dtor$45@?0??DeleteSubgroup@wxFileConfigGroup@@AEAA_NPEAV1@@Z@4HA
00000000000c8090	wxbase33u:fileconf.obj	?dtor$49@?0??DeleteSubgroup@wxFileConfigGroup@@AEAA_NPEAV1@@Z@4HA
00000000000c8090	wxbase33u:fileconf.obj	?dtor$7@?0??DeleteSubgroup@wxFileConfigGroup@@AEAA_NPEAV1@@Z@4HA
00000000000c8090	wxbase33u:string.obj	?dtor$2@?0??FromDouble@wxString@@SA?AV1@NH@Z@4HA
00000000000c8090	wxbase33u:string.obj	?dtor$3@?0??FromDouble@wxString@@SA?AV1@NH@Z@4HA
00000000000c8090	wxbase33u:variant.obj	?dtor$0@?0??Write@wxVariantDataBool@@UEBA_NAEAVwxString@@@Z@4HA
00000000000c8090	wxbase33u:variant.obj	?dtor$0@?0??Write@wxVariantDataLong@@UEBA_NAEAVwxString@@@Z@4HA
00000000000c8090	wxbase33u:variant.obj	?dtor$0@?0??Write@wxVariantDataLongLong@@UEBA_NAEAVwxString@@@Z@4HA
00000000000c8090	wxbase33u:variant.obj	?dtor$0@?0??Write@wxVariantDataULongLong@@UEBA_NAEAVwxString@@@Z@4HA
00000000000c8090	wxbase33u:variant.obj	?dtor$0@?0??Write@wxVariantDataVoidPtr@@UEBA_NAEAVwxString@@@Z@4HA
00000000000c8090	wxbase33u:variant.obj	?dtor$0@?0??Write@wxVariantDoubleData@@UEBA_NAEAVwxString@@@Z@4HA
00000000000c80a0	wxbase33u:appbase.obj	?dtor$10@?0??ShowAssertDialog@@YAXAEBVwxString@@H000PEAVwxAppTraits@@@Z@4HA
00000000000c80a0	wxbase33u:appbase.obj	?dtor$25@?0??ShowAssertDialog@@YAXAEBVwxString@@H000PEAVwxAppTraits@@@Z@4HA
00000000000c80a0	wxbase33u:basemsw.obj	?dtor$2@?0??WriteToStderr@wxConsoleAppTraits@@UEAA_NAEBVwxString@@@Z@4HA
00000000000c80a0	wxbase33u:fileconf.obj	?dtor$111@?0??DeleteSubgroup@wxFileConfigGroup@@AEAA_NPEAV1@@Z@4HA
00000000000c80a0	wxbase33u:fileconf.obj	?dtor$147@?0??DeleteSubgroup@wxFileConfigGroup@@AEAA_NPEAV1@@Z@4HA
00000000000c80a0	wxbase33u:fileconf.obj	?dtor$162@?0??DeleteSubgroup@wxFileConfigGroup@@AEAA_NPEAV1@@Z@4HA
00000000000c80a0	wxbase33u:fileconf.obj	?dtor$1@?0??Save@wxFileConfig@@UEAA_NAEAVwxOutputStream@@AEBVwxMBConv@@@Z@4HA
00000000000c80a0	wxbase33u:fileconf.obj	?dtor$213@?0??DeleteSubgroup@wxFileConfigGroup@@AEAA_NPEAV1@@Z@4HA
00000000000c80a0	wxbase33u:fileconf.obj	?dtor$222@?0??DeleteSubgroup@wxFileConfigGroup@@AEAA_NPEAV1@@Z@4HA
00000000000c80a0	wxbase33u:fileconf.obj	?dtor$253@?0??DeleteSubgroup@wxFileConfigGroup@@AEAA_NPEAV1@@Z@4HA
00000000000c80a0	wxbase33u:fileconf.obj	?dtor$275@?0??DeleteSubgroup@wxFileConfigGroup@@AEAA_NPEAV1@@Z@4HA
00000000000c80a0	wxbase33u:fileconf.obj	?dtor$314@?0??DeleteSubgroup@wxFileConfigGroup@@AEAA_NPEAV1@@Z@4HA
00000000000c80a0	wxbase33u:fileconf.obj	?dtor$321@?0??DeleteSubgroup@wxFileConfigGroup@@AEAA_NPEAV1@@Z@4HA
00000000000c80a0	wxbase33u:fileconf.obj	?dtor$63@?0??DeleteSubgroup@wxFileConfigGroup@@AEAA_NPEAV1@@Z@4HA
00000000000c80a0	wxbase33u:string.obj	?dtor$13@?0??FromDouble@wxString@@SA?AV1@NH@Z@4HA
00000000000c80a0	wxbase33u:variant.obj	?dtor$0@?0??Write@wxVariantDataString@@UEBA_NAEAV?$basic_ostream@DU?$char_traits@D@std@@@std@@@Z@4HA
00000000000c80a0	wxbase33u:variant.obj	?dtor$1@?0??Write@wxVariantDataBool@@UEBA_NAEAVwxString@@@Z@4HA
00000000000c80a0	wxbase33u:variant.obj	?dtor$1@?0??Write@wxVariantDataLong@@UEBA_NAEAVwxString@@@Z@4HA
00000000000c80a0	wxbase33u:variant.obj	?dtor$1@?0??Write@wxVariantDataLongLong@@UEBA_NAEAVwxString@@@Z@4HA
00000000000c80a0	wxbase33u:variant.obj	?dtor$1@?0??Write@wxVariantDataULongLong@@UEBA_NAEAVwxString@@@Z@4HA
00000000000c80a0	wxbase33u:variant.obj	?dtor$1@?0??Write@wxVariantDataVoidPtr@@UEBA_NAEAVwxString@@@Z@4HA
00000000000c80a0	wxbase33u:variant.obj	?dtor$1@?0??Write@wxVariantDoubleData@@UEBA_NAEAVwxString@@@Z@4HA
00000000000c80b0	wxbase33u:ipcbase.obj	?dtor$0@?0??GetTextFromData@wxConnectionBase@@SA?AVwxString@@PEBX_KW4wxIPCFormat@@@Z@4HA
00000000000c80b0	wxbase33u:string.obj	?dtor$0@?0??Left@wxString@@QEBA?AV1@_K@Z@4HA
00000000000c80e0	wxbase33u:string.obj	?dtor$1@?0??Left@wxString@@QEBA?AV1@_K@Z@4HA
00000000000c80f0	wxbase33u:string.obj	?dtor$2@?0??Left@wxString@@QEBA?AV1@_K@Z@4HA
00000000000c8100	wxbase33u:filename.obj	?dtor$3@?0??GetPathTerminators@wxFileName@@SA?AVwxString@@W4wxPathFormat@@@Z@4HA
00000000000c8100	wxbase33u:string.obj	?dtor$1@?0??Matches@wxString@@QEBA_NAEBV1@@Z@4HA
00000000000c8100	wxbase33u:variant.obj	?dtor$1@?0??Write@wxVariantDataChar@@UEBA_NAEAV?$basic_ostream@DU?$char_traits@D@std@@@std@@@Z@4HA
00000000000c8110	wxbase33u:filename.obj	?dtor$4@?0??GetPathTerminators@wxFileName@@SA?AVwxString@@W4wxPathFormat@@@Z@4HA
00000000000c8110	wxbase33u:string.obj	?dtor$2@?0??Matches@wxString@@QEBA_NAEBV1@@Z@4HA
00000000000c8110	wxbase33u:variant.obj	?dtor$2@?0??Write@wxVariantDataChar@@UEBA_NAEAV?$basic_ostream@DU?$char_traits@D@std@@@std@@@Z@4HA
00000000000c8120	wxbase33u:any.obj	?dtor$0@?0??ConvertValue@wxAnyValueTypeImplConstCharPtr@@UEBA_NAEBTwxAnyValueBuffer@@PEAVwxAnyValueType@@AEAT2@@Z@4HA
00000000000c8120	wxbase33u:appbase.obj	?dtor$1@?0??GetAppName@wxAppConsoleBase@@QEBA?AVwxString@@XZ@4HA
00000000000c8120	wxbase33u:appbase.obj	?dtor$2@?0??GetAppName@wxAppConsoleBase@@QEBA?AVwxString@@XZ@4HA
00000000000c8120	wxbase33u:cmdline.obj	?dtor$11@?0??GetTypeName@@YA?AVwxString@@W4wxCmdLineParamType@@@Z@4HA
00000000000c8120	wxbase33u:cmdline.obj	?dtor$2@?0??GetTypeName@@YA?AVwxString@@W4wxCmdLineParamType@@@Z@4HA
00000000000c8120	wxbase33u:cmdline.obj	?dtor$5@?0??GetTypeName@@YA?AVwxString@@W4wxCmdLineParamType@@@Z@4HA
00000000000c8120	wxbase33u:cmdline.obj	?dtor$9@?0??GetTypeName@@YA?AVwxString@@W4wxCmdLineParamType@@@Z@4HA
00000000000c8120	wxbase33u:dde.obj	?dtor$11@?0??DDEGetErrorMsg@@YA?AVwxString@@I@Z@4HA
00000000000c8120	wxbase33u:dde.obj	?dtor$15@?0??DDEGetErrorMsg@@YA?AVwxString@@I@Z@4HA
00000000000c8120	wxbase33u:dde.obj	?dtor$18@?0??DDEGetErrorMsg@@YA?AVwxString@@I@Z@4HA
00000000000c8120	wxbase33u:dde.obj	?dtor$21@?0??DDEGetErrorMsg@@YA?AVwxString@@I@Z@4HA
00000000000c8120	wxbase33u:dde.obj	?dtor$24@?0??DDEGetErrorMsg@@YA?AVwxString@@I@Z@4HA
00000000000c8120	wxbase33u:dde.obj	?dtor$27@?0??DDEGetErrorMsg@@YA?AVwxString@@I@Z@4HA
00000000000c8120	wxbase33u:dde.obj	?dtor$30@?0??DDEGetErrorMsg@@YA?AVwxString@@I@Z@4HA
00000000000c8120	wxbase33u:dde.obj	?dtor$33@?0??DDEGetErrorMsg@@YA?AVwxString@@I@Z@4HA
00000000000c8120	wxbase33u:dde.obj	?dtor$36@?0??DDEGetErrorMsg@@YA?AVwxString@@I@Z@4HA
00000000000c8120	wxbase33u:dde.obj	?dtor$39@?0??DDEGetErrorMsg@@YA?AVwxString@@I@Z@4HA
00000000000c8120	wxbase33u:dde.obj	?dtor$3@?0??DDEGetErrorMsg@@YA?AVwxString@@I@Z@4HA
00000000000c8120	wxbase33u:dde.obj	?dtor$42@?0??DDEGetErrorMsg@@YA?AVwxString@@I@Z@4HA
00000000000c8120	wxbase33u:dde.obj	?dtor$45@?0??DDEGetErrorMsg@@YA?AVwxString@@I@Z@4HA
00000000000c8120	wxbase33u:dde.obj	?dtor$48@?0??DDEGetErrorMsg@@YA?AVwxString@@I@Z@4HA
00000000000c8120	wxbase33u:dde.obj	?dtor$51@?0??DDEGetErrorMsg@@YA?AVwxString@@I@Z@4HA
00000000000c8120	wxbase33u:dde.obj	?dtor$54@?0??DDEGetErrorMsg@@YA?AVwxString@@I@Z@4HA
00000000000c8120	wxbase33u:dde.obj	?dtor$56@?0??DDEGetErrorMsg@@YA?AVwxString@@I@Z@4HA
00000000000c8120	wxbase33u:dde.obj	?dtor$60@?0??DDEGetErrorMsg@@YA?AVwxString@@I@Z@4HA
00000000000c8120	wxbase33u:dde.obj	?dtor$6@?0??DDEGetErrorMsg@@YA?AVwxString@@I@Z@4HA
00000000000c8120	wxbase33u:dde.obj	?dtor$9@?0??DDEGetErrorMsg@@YA?AVwxString@@I@Z@4HA
00000000000c8120	wxbase33u:filefn.obj	?dtor$0@?0??FindAbsoluteValidPath@wxPathList@@QEBA?AVwxString@@AEBV2@@Z@4HA
00000000000c8120	wxbase33u:filename.obj	?dtor$0@?0??SplitPath@wxFileName@@SAXAEBVwxString@@PEAV2@11W4wxPathFormat@@@Z@4HA
00000000000c8120	wxbase33u:filename.obj	?dtor$1@?0??SplitVolume@wxFileName@@SAXAEBVwxString@@PEAV2@1W4wxPathFormat@@@Z@4HA
00000000000c8120	wxbase33u:filename.obj	?dtor$2@?0??SplitVolume@wxFileName@@SAXAEBVwxString@@PEAV2@1W4wxPathFormat@@@Z@4HA
00000000000c8120	wxbase33u:filename.obj	?dtor$4@?0??SplitVolume@wxFileName@@SAXAEBVwxString@@PEAV2@1W4wxPathFormat@@@Z@4HA
00000000000c8120	wxbase33u:filename.obj	?dtor$5@?0??SplitVolume@wxFileName@@SAXAEBVwxString@@PEAV2@1W4wxPathFormat@@@Z@4HA
00000000000c8120	wxbase33u:fmapbase.obj	?dtor$11@?0??NonInteractiveCharsetToEncoding@wxFontMapperBase@@IEAAHAEBVwxString@@@Z@4HA
00000000000c8120	wxbase33u:fmapbase.obj	?dtor$12@?0??NonInteractiveCharsetToEncoding@wxFontMapperBase@@IEAAHAEBVwxString@@@Z@4HA
00000000000c8120	wxbase33u:log.obj	?dtor$1@?0??DoLogText@wxLogStderr@@MEAAXAEBVwxString@@@Z@4HA
00000000000c8120	wxbase33u:log.obj	?dtor$1@?0??DoLogTextAtLevel@wxLog@@MEAAXKAEBVwxString@@@Z@4HA
00000000000c8120	wxbase33u:msgout.obj	?dtor$1@?0??Output@wxMessageOutputStderr@@UEAAXAEBVwxString@@@Z@4HA
00000000000c8120	wxbase33u:msw_uilocale.obj	?dtor$1@?0??GetLocalizedName@wxUILocaleImplStdC@@UEBA?AVwxString@@W4wxLocaleName@@W4wxLocaleForm@@@Z@4HA
00000000000c8120	wxbase33u:msw_uilocale.obj	?dtor$2@?0??GetLocalizedName@wxUILocaleImplStdC@@UEBA?AVwxString@@W4wxLocaleName@@W4wxLocaleForm@@@Z@4HA
00000000000c8120	wxbase33u:registry.obj	?dtor$3@?0??ExtractKeyName@wxRegKey@@SA?AW4StdKey@1@AEAVwxString@@@Z@4HA
00000000000c8120	wxbase33u:string.obj	?dtor$1@?0??Mid@wxString@@QEBA?AV1@_K0@Z@4HA
00000000000c8120	wxbase33u:txtstrm.obj	?dtor$3@?0??ReadDouble@wxTextInputStream@@QEAANXZ@4HA
00000000000c8120	wxbase33u:variant.obj	?dtor$0@?0??Read@wxVariantDataBool@@UEAA_NAEAVwxInputStream@@@Z@4HA
00000000000c8120	wxbase33u:variant.obj	?dtor$0@?0??Read@wxVariantDataLong@@UEAA_NAEAVwxInputStream@@@Z@4HA
00000000000c8120	wxbase33u:variant.obj	?dtor$0@?0??Read@wxVariantDataLongLong@@UEAA_NAEAVwxInputStream@@@Z@4HA
00000000000c8120	wxbase33u:variant.obj	?dtor$0@?0??Read@wxVariantDataString@@UEAA_NAEAVwxInputStream@@@Z@4HA
00000000000c8120	wxbase33u:variant.obj	?dtor$0@?0??Read@wxVariantDataULongLong@@UEAA_NAEAVwxInputStream@@@Z@4HA
00000000000c8120	wxbase33u:variant.obj	?dtor$0@?0??Read@wxVariantDoubleData@@UEAA_NAEAVwxInputStream@@@Z@4HA
00000000000c8120	wxbase33u:variant.obj	?dtor$4@?0??DoAs@?$wxAnyAsImpl@VwxString@@@wxPrivate@@SA?AVwxString@@AEBVwxAny@@@Z@4HA
00000000000c8120	wxbase33u:variant.obj	?dtor$5@?0??DoAs@?$wxAnyAsImpl@VwxString@@@wxPrivate@@SA?AVwxString@@AEBVwxAny@@@Z@4HA
00000000000c8130	wxbase33u:string.obj	?dtor$6@?0??Mid@wxString@@QEBA?AV1@_K0@Z@4HA
00000000000c8140	wxbase33u:string.obj	?dtor$7@?0??Mid@wxString@@QEBA?AV1@_K0@Z@4HA
00000000000c8150	wxbase33u:string.obj	?dtor$0@?0??Replace@wxString@@QEAA_KAEBV1@0_N@Z@4HA
00000000000c8160	wxbase33u:dde.obj	?dtor$1@?0??DoPoke@wxDDEConnection@@MEAA_NAEBVwxString@@PEBX_KW4wxIPCFormat@@@Z@4HA
00000000000c8160	wxbase33u:dde.obj	?dtor$1@?0??StartAdvise@wxDDEConnection@@UEAA_NAEBVwxString@@@Z@4HA
00000000000c8160	wxbase33u:dde.obj	?dtor$1@?0??StopAdvise@wxDDEConnection@@UEAA_NAEBVwxString@@@Z@4HA
00000000000c8160	wxbase33u:fileconf.obj	?dtor$1@?0??DoSetPath@wxFileConfig@@AEAA_NAEBVwxString@@_N@Z@4HA
00000000000c8160	wxbase33u:filename.obj	?dtor$2@?0??Assign@wxFileName@@QEAAXAEBVwxString@@W4wxPathFormat@@@Z@4HA
00000000000c8160	wxbase33u:longlong.obj	?dtor$12@?0??ToString@wxULongLongNative@@QEBA?AVwxString@@XZ@4HA
00000000000c8160	wxbase33u:module.obj	?dtor$15@?0??DoInitializeModule@wxModule@@CA_NPEAV1@AEAV?$vector@PEAVwxModule@@V?$allocator@PEAVwxModule@@@std@@@std@@@Z@4HA
00000000000c8160	wxbase33u:module.obj	?dtor$2@?0??DoInitializeModule@wxModule@@CA_NPEAV1@AEAV?$vector@PEAVwxModule@@V?$allocator@PEAVwxModule@@@std@@@std@@@Z@4HA
00000000000c8160	wxbase33u:module.obj	?dtor$8@?0??DoInitializeModule@wxModule@@CA_NPEAV1@AEAV?$vector@PEAVwxModule@@V?$allocator@PEAVwxModule@@@std@@@std@@@Z@4HA
00000000000c8160	wxbase33u:stackwalk.obj	?dtor$0@?0??OnParam@wxStackFrame@@QEAAXPEAU_SYMBOL_INFOW@@@Z@4HA
00000000000c8160	wxbase33u:stackwalk.obj	?dtor$1@?0??OnParam@wxStackFrame@@QEAAXPEAU_SYMBOL_INFOW@@@Z@4HA
00000000000c8160	wxbase33u:stackwalk.obj	?dtor$2@?0??OnParam@wxStackFrame@@QEAAXPEAU_SYMBOL_INFOW@@@Z@4HA
00000000000c8160	wxbase33u:strconv.obj	?dtor$4@?0??DoCreate@wxCSConv@@AEBAPEAVwxMBConv@@XZ@4HA
00000000000c8160	wxbase33u:string.obj	?dtor$1@?0??Replace@wxString@@QEAA_KAEBV1@0_N@Z@4HA
00000000000c8160	wxbase33u:translation.obj	?dtor$0@?0??GetString@wxMsgCatalog@@QEBAPEBVwxString@@AEBV2@I0@Z@4HA
00000000000c8160	wxbase33u:translation.obj	?dtor$7@?0??GetString@wxMsgCatalog@@QEBAPEBVwxString@@AEBV2@I0@Z@4HA
00000000000c8160	wxbase33u:variant.obj	?dtor$0@?0??Read@wxVariantDataArrayString@@UEAA_NAEAVwxString@@@Z@4HA
00000000000c8170	wxbase33u:dde.obj	?dtor$13@?0??MakeConnection@wxDDEClient@@UEAAPEAVwxConnectionBase@@AEBVwxString@@00@Z@4HA
00000000000c8170	wxbase33u:file.obj	?dtor$10@?0??Write@wxFile@@QEAA_NAEBVwxString@@AEBVwxMBConv@@@Z@4HA
00000000000c8170	wxbase33u:filename.obj	?dtor$145@?0??wxCreateTempImpl@@YA?AVwxString@@AEBV1@PEAVwxFile@@PEAVwxFFile@@PEA_N@Z@4HA
00000000000c8170	wxbase33u:filename.obj	?dtor$55@?0??wxCreateTempImpl@@YA?AVwxString@@AEBV1@PEAVwxFile@@PEAVwxFFile@@PEA_N@Z@4HA
00000000000c8170	wxbase33u:filename.obj	?dtor$89@?0??wxCreateTempImpl@@YA?AVwxString@@AEBV1@PEAVwxFile@@PEAVwxFFile@@PEA_N@Z@4HA
00000000000c8170	wxbase33u:registry.obj	?dtor$16@?0??GetNextKey@wxRegKey@@QEBA_NAEAVwxString@@AEAJ@Z@4HA
00000000000c8170	wxbase33u:string.obj	?dtor$6@?0??ToAscii@wxString@@QEBA?BV?$wxScopedCharTypeBuffer@D@@D@Z@4HA
00000000000c8180	wxbase33u:module.obj	?dtor$137@?0??DoInitializeModule@wxModule@@CA_NPEAV1@AEAV?$vector@PEAVwxModule@@V?$allocator@PEAVwxModule@@@std@@@std@@@Z@4HA
00000000000c8180	wxbase33u:module.obj	?dtor$26@?0??DoInitializeModule@wxModule@@CA_NPEAV1@AEAV?$vector@PEAVwxModule@@V?$allocator@PEAVwxModule@@@std@@@std@@@Z@4HA
00000000000c8180	wxbase33u:module.obj	?dtor$87@?0??DoInitializeModule@wxModule@@CA_NPEAV1@AEAV?$vector@PEAVwxModule@@V?$allocator@PEAVwxModule@@@std@@@std@@@Z@4HA
00000000000c8180	wxbase33u:regconf.obj	?dtor$27@?0??SetPath@wxRegConfig@@UEAAXAEBVwxString@@@Z@4HA
00000000000c8180	wxbase33u:string.obj	?dtor$0@?0??assign@wxString@@QEAAAEAV1@_KVwxUniChar@@@Z@4HA
00000000000c8180	wxbase33u:strvararg.obj	?dtor$0@?0???$Format@PEBDH@wxString@@SA?AV0@AEBVwxFormatString@@PEBDH@Z@4HA
00000000000c8190	wxbase33u:fileconf.obj	?dtor$14@?0??FilterInValue@@YA?AVwxString@@AEBV1@@Z@4HA
00000000000c8190	wxbase33u:filename.obj	?dtor$33@?0??GetLongPath@wxFileName@@QEBA?AVwxString@@XZ@4HA
00000000000c8190	wxbase33u:registry.obj	?dtor$6@?0??QueryValue@wxRegKey@@QEBA_NAEBVwxString@@AEAV2@_N@Z@4HA
00000000000c8190	wxbase33u:thread.obj	?dtor$0@?0???$Log@PEBDHPEB_WJVwxString@@@wxLogger@@QEAAXAEBVwxFormatString@@PEBDHPEB_WJVwxString@@@Z@4HA
00000000000c81a0	wxbase33u:datetimefmt.obj	?dtor$23@?0??ParseTime@wxDateTime@@QEAA_NAEBVwxString@@PEAVconst_iterator@2@@Z@4HA
00000000000c81a0	wxbase33u:datetimefmt.obj	?dtor$9@?0??ParseTime@wxDateTime@@QEAA_NAEBVwxString@@PEAVconst_iterator@2@@Z@4HA
00000000000c81a0	wxbase33u:debughlp.obj	?dtor$0@?0??wxEnumSymbolsCallback@@YAHPEAU_SYMBOL_INFO@@KPEAX@Z@4HA
00000000000c81a0	wxbase33u:registry.obj	?dtor$13@?0??CopyValue@wxRegKey@@QEAA_NAEBVwxString@@AEAV1@0@Z@4HA
00000000000c81a0	wxbase33u:thread.obj	?dtor$14@?0??OnExit@wxThreadModule@@UEAAXXZ@4HA
00000000000c81a0	wxbase33u:thread.obj	?dtor$1@?0???$Log@PEBDHPEB_WJVwxString@@@wxLogger@@QEAAXAEBVwxFormatString@@PEBDHPEB_WJVwxString@@@Z@4HA
00000000000c81a0	wxbase33u:timer.obj	?dtor$30@?0??Start@wxMSWTimerImpl@@UEAA_NH_N@Z@4HA
00000000000c81b0	wxbase33u:cmdline.obj	?catch$0@?0???$OnScopeExit@V?$wxScopeGuardImpl1@P6APEADPEBD@ZPEBD@@@wxPrivate@@YAXAEAV?$wxScopeGuardImpl1@P6APEADPEBD@ZPEBD@@@Z@4HA
00000000000c81b0	wxbase33u:thread.obj	?catch$0@?0???$OnScopeExit@V?$wxScopeGuardImpl0@P6AXXZ@@@wxPrivate@@YAXAEAV?$wxScopeGuardImpl0@P6AXXZ@@@Z@4HA
00000000000c81bd	wxbase33u:cmdline.obj	__catch$??$OnScopeExit@V?$wxScopeGuardImpl1@P6APEADPEBD@ZPEBD@@@wxPrivate@@YAXAEAV?$wxScopeGuardImpl1@P6APEADPEBD@ZPEBD@@@Z$0
00000000000c81bd	wxbase33u:thread.obj	__catch$??$OnScopeExit@V?$wxScopeGuardImpl0@P6AXXZ@@@wxPrivate@@YAXAEAV?$wxScopeGuardImpl0@P6AXXZ@@@Z$0
00000000000c81d0	wxbase33u:dde.obj	?dtor$0@?0???$_Try_emplace@AEBVwxString@@$$V@?$_Hash@V?$_Umap_traits@VwxString@@PEAUHSZ__@@V?$_Uhash_compare@VwxString@@UwxStringHash@@UwxStringEqual@@@std@@V?$allocator@U?$pair@$$CBVwxString@@PEAUHSZ__@@@std@@@4@$0A@@std@@@std@@IEAA?AU?$pair@PEAU?$_List_node@U?$pair@$$CBVwxString@@PEAUHSZ__@@@std@@PEAX@std@@_N@1@AEBVwxString@@@Z@4HA
00000000000c81d0	wxbase33u:log.obj	?dtor$0@?0???$insert@V?$_List_unchecked_const_iterator@V?$_List_val@U?$_List_simple_types@U?$pair@$$CBVwxString@@_K@std@@@std@@@std@@U_Iterator_base0@2@@std@@@?$_Hash@V?$_Umap_traits@VwxString@@_KV?$_Uhash_compare@VwxString@@UwxStringHash@@UwxStringEqual@@@std@@V?$allocator@U?$pair@$$CBVwxString@@_K@std@@@3@$0A@@std@@@std@@QEAAXV?$_List_unchecked_const_iterator@V?$_List_val@U?$_List_simple_types@U?$pair@$$CBVwxString@@_K@std@@@std@@@std@@U_Iterator_base0@2@@1@0@Z@4HA
00000000000c81d0	wxbase33u:thread.obj	?dtor$0@?0???$_Try_emplace@AEBVwxString@@$$V@?$_Hash@V?$_Umap_traits@VwxString@@_KV?$_Uhash_compare@VwxString@@UwxStringHash@@UwxStringEqual@@@std@@V?$allocator@U?$pair@$$CBVwxString@@_K@std@@@3@$0A@@std@@@std@@IEAA?AU?$pair@PEAU?$_List_node@U?$pair@$$CBVwxString@@_K@std@@PEAX@std@@_N@1@AEBVwxString@@@Z@4HA
00000000000c81e0	log4cpplib:HierarchyMaintainer.obj	?dtor$13@?0??_getInstance@HierarchyMaintainer@log4cpp@@MEAAAEAVCategory@2@AEBV?$basic_string@DU?$char_traits@D@std@@V?$allocator@D@2@@std@@@Z@4HA
00000000000c81e0	log4cpplib:HierarchyMaintainer.obj	?dtor$14@?0??_getInstance@HierarchyMaintainer@log4cpp@@MEAAAEAVCategory@2@AEBV?$basic_string@DU?$char_traits@D@std@@V?$allocator@D@2@@std@@@Z@4HA
00000000000c81e0	wxbase33u:dde.obj	?dtor$2@?0???$_Try_emplace@AEBVwxString@@$$V@?$_Hash@V?$_Umap_traits@VwxString@@PEAUHSZ__@@V?$_Uhash_compare@VwxString@@UwxStringHash@@UwxStringEqual@@@std@@V?$allocator@U?$pair@$$CBVwxString@@PEAUHSZ__@@@std@@@4@$0A@@std@@@std@@IEAA?AU?$pair@PEAU?$_List_node@U?$pair@$$CBVwxString@@PEAUHSZ__@@@std@@PEAX@std@@_N@1@AEBVwxString@@@Z@4HA
00000000000c81e0	wxbase33u:log.obj	?dtor$2@?0???$insert@V?$_List_unchecked_const_iterator@V?$_List_val@U?$_List_simple_types@U?$pair@$$CBVwxString@@_K@std@@@std@@@std@@U_Iterator_base0@2@@std@@@?$_Hash@V?$_Umap_traits@VwxString@@_KV?$_Uhash_compare@VwxString@@UwxStringHash@@UwxStringEqual@@@std@@V?$allocator@U?$pair@$$CBVwxString@@_K@std@@@3@$0A@@std@@@std@@QEAAXV?$_List_unchecked_const_iterator@V?$_List_val@U?$_List_simple_types@U?$pair@$$CBVwxString@@_K@std@@@std@@@std@@U_Iterator_base0@2@@1@0@Z@4HA
00000000000c81e0	wxbase33u:thread.obj	?dtor$2@?0???$_Try_emplace@AEBVwxString@@$$V@?$_Hash@V?$_Umap_traits@VwxString@@_KV?$_Uhash_compare@VwxString@@UwxStringHash@@UwxStringEqual@@@std@@V?$allocator@U?$pair@$$CBVwxString@@_K@std@@@3@$0A@@std@@@std@@IEAA?AU?$pair@PEAU?$_List_node@U?$pair@$$CBVwxString@@_K@std@@PEAX@std@@_N@1@AEBVwxString@@@Z@4HA
00000000000c81f0	wxbase33u:any.obj	?dtor$0@?0??ConvertValue@wxAnyValueTypeImplDouble@@UEBA_NAEBTwxAnyValueBuffer@@PEAVwxAnyValueType@@AEAT2@@Z@4HA
00000000000c81f0	wxbase33u:any.obj	?dtor$0@?0??wxAnyConvertString@@YA_NAEBVwxString@@PEAVwxAnyValueType@@AEATwxAnyValueBuffer@@@Z@4HA
00000000000c81f0	wxbase33u:common_uilocale.obj	?dtor$0@?0??Language@wxLocaleIdent@@QEAAAEAV1@AEBVwxString@@@Z@4HA
00000000000c81f0	wxbase33u:common_uilocale.obj	?dtor$1@?0??Language@wxLocaleIdent@@QEAAAEAV1@AEBVwxString@@@Z@4HA
00000000000c81f0	wxbase33u:config.obj	?dtor$0@?0??UpdateIfDeleted@wxConfigPathChanger@@QEAAXXZ@4HA
00000000000c81f0	wxbase33u:datetime.obj	?dtor$1@?0??GetCountry@wxDateTime@@SA?AW4Country@1@XZ@4HA
00000000000c81f0	wxbase33u:datetimefmt.obj	?dtor$0@?0??GetNumericToken@?A0x0fa96387@@YA_N_KAEAVconst_iterator@wxString@@AEBV23@PEAKPEA_K@Z@4HA
00000000000c81f0	wxbase33u:debughlp.obj	?dtor$0@?0??BindDbgHelpFunctions@wxDbgHelpDLL@@CA_NAEBVwxDynamicLibrary@@@Z@4HA
00000000000c81f0	wxbase33u:debughlp.obj	?dtor$0@?0??Init@wxDbgHelpDLL@@SA_NXZ@4HA
00000000000c81f0	wxbase33u:debughlp.obj	?dtor$10@?0??BindDbgHelpFunctions@wxDbgHelpDLL@@CA_NAEBVwxDynamicLibrary@@@Z@4HA
00000000000c81f0	wxbase33u:debughlp.obj	?dtor$11@?0??BindDbgHelpFunctions@wxDbgHelpDLL@@CA_NAEBVwxDynamicLibrary@@@Z@4HA
00000000000c81f0	wxbase33u:debughlp.obj	?dtor$12@?0??BindDbgHelpFunctions@wxDbgHelpDLL@@CA_NAEBVwxDynamicLibrary@@@Z@4HA
00000000000c81f0	wxbase33u:debughlp.obj	?dtor$13@?0??BindDbgHelpFunctions@wxDbgHelpDLL@@CA_NAEBVwxDynamicLibrary@@@Z@4HA
00000000000c81f0	wxbase33u:debughlp.obj	?dtor$14@?0??BindDbgHelpFunctions@wxDbgHelpDLL@@CA_NAEBVwxDynamicLibrary@@@Z@4HA
00000000000c81f0	wxbase33u:debughlp.obj	?dtor$15@?0??BindDbgHelpFunctions@wxDbgHelpDLL@@CA_NAEBVwxDynamicLibrary@@@Z@4HA
00000000000c81f0	wxbase33u:debughlp.obj	?dtor$16@?0??BindDbgHelpFunctions@wxDbgHelpDLL@@CA_NAEBVwxDynamicLibrary@@@Z@4HA
00000000000c81f0	wxbase33u:debughlp.obj	?dtor$17@?0??BindDbgHelpFunctions@wxDbgHelpDLL@@CA_NAEBVwxDynamicLibrary@@@Z@4HA
00000000000c81f0	wxbase33u:debughlp.obj	?dtor$18@?0??BindDbgHelpFunctions@wxDbgHelpDLL@@CA_NAEBVwxDynamicLibrary@@@Z@4HA
00000000000c81f0	wxbase33u:debughlp.obj	?dtor$19@?0??BindDbgHelpFunctions@wxDbgHelpDLL@@CA_NAEBVwxDynamicLibrary@@@Z@4HA
00000000000c81f0	wxbase33u:debughlp.obj	?dtor$1@?0??BindDbgHelpFunctions@wxDbgHelpDLL@@CA_NAEBVwxDynamicLibrary@@@Z@4HA
00000000000c81f0	wxbase33u:debughlp.obj	?dtor$20@?0??BindDbgHelpFunctions@wxDbgHelpDLL@@CA_NAEBVwxDynamicLibrary@@@Z@4HA
00000000000c81f0	wxbase33u:debughlp.obj	?dtor$21@?0??BindDbgHelpFunctions@wxDbgHelpDLL@@CA_NAEBVwxDynamicLibrary@@@Z@4HA
00000000000c81f0	wxbase33u:debughlp.obj	?dtor$22@?0??BindDbgHelpFunctions@wxDbgHelpDLL@@CA_NAEBVwxDynamicLibrary@@@Z@4HA
00000000000c81f0	wxbase33u:debughlp.obj	?dtor$23@?0??BindDbgHelpFunctions@wxDbgHelpDLL@@CA_NAEBVwxDynamicLibrary@@@Z@4HA
00000000000c81f0	wxbase33u:debughlp.obj	?dtor$24@?0??BindDbgHelpFunctions@wxDbgHelpDLL@@CA_NAEBVwxDynamicLibrary@@@Z@4HA
00000000000c81f0	wxbase33u:debughlp.obj	?dtor$25@?0??BindDbgHelpFunctions@wxDbgHelpDLL@@CA_NAEBVwxDynamicLibrary@@@Z@4HA
00000000000c81f0	wxbase33u:debughlp.obj	?dtor$26@?0??BindDbgHelpFunctions@wxDbgHelpDLL@@CA_NAEBVwxDynamicLibrary@@@Z@4HA
00000000000c81f0	wxbase33u:debughlp.obj	?dtor$27@?0??BindDbgHelpFunctions@wxDbgHelpDLL@@CA_NAEBVwxDynamicLibrary@@@Z@4HA
00000000000c81f0	wxbase33u:debughlp.obj	?dtor$28@?0??BindDbgHelpFunctions@wxDbgHelpDLL@@CA_NAEBVwxDynamicLibrary@@@Z@4HA
00000000000c81f0	wxbase33u:debughlp.obj	?dtor$29@?0??BindDbgHelpFunctions@wxDbgHelpDLL@@CA_NAEBVwxDynamicLibrary@@@Z@4HA
00000000000c81f0	wxbase33u:debughlp.obj	?dtor$2@?0??BindDbgHelpFunctions@wxDbgHelpDLL@@CA_NAEBVwxDynamicLibrary@@@Z@4HA
00000000000c81f0	wxbase33u:debughlp.obj	?dtor$3@?0??BindDbgHelpFunctions@wxDbgHelpDLL@@CA_NAEBVwxDynamicLibrary@@@Z@4HA
00000000000c81f0	wxbase33u:debughlp.obj	?dtor$4@?0??BindDbgHelpFunctions@wxDbgHelpDLL@@CA_NAEBVwxDynamicLibrary@@@Z@4HA
00000000000c81f0	wxbase33u:debughlp.obj	?dtor$5@?0??BindDbgHelpFunctions@wxDbgHelpDLL@@CA_NAEBVwxDynamicLibrary@@@Z@4HA
00000000000c81f0	wxbase33u:debughlp.obj	?dtor$6@?0??BindDbgHelpFunctions@wxDbgHelpDLL@@CA_NAEBVwxDynamicLibrary@@@Z@4HA
00000000000c81f0	wxbase33u:debughlp.obj	?dtor$7@?0??BindDbgHelpFunctions@wxDbgHelpDLL@@CA_NAEBVwxDynamicLibrary@@@Z@4HA
00000000000c81f0	wxbase33u:debughlp.obj	?dtor$8@?0??BindDbgHelpFunctions@wxDbgHelpDLL@@CA_NAEBVwxDynamicLibrary@@@Z@4HA
00000000000c81f0	wxbase33u:debughlp.obj	?dtor$9@?0??BindDbgHelpFunctions@wxDbgHelpDLL@@CA_NAEBVwxDynamicLibrary@@@Z@4HA
00000000000c81f0	wxbase33u:filename.obj	?dtor$0@?0??Assign@wxFileName@@QEAAXAEBV1@@Z@4HA
00000000000c81f0	wxbase33u:filename.obj	?dtor$1@?0??Assign@wxFileName@@QEAAXAEBV1@@Z@4HA
00000000000c81f0	wxbase33u:filename.obj	?dtor$2@?0??Assign@wxFileName@@QEAAXAEBV1@@Z@4HA
00000000000c81f0	wxbase33u:log.obj	?dtor$1@?0??GetComponentLevel@wxLog@@SAKAEBVwxString@@@Z@4HA
00000000000c81f0	wxbase33u:msgout.obj	?dtor$1@?0??Output@wxMessageOutputBest@@UEAAXAEBVwxString@@@Z@4HA
00000000000c81f0	wxbase33u:regconf.obj	?dtor$0@?0??GetNumberOfEntries@wxRegConfig@@UEBA_K_N@Z@4HA
00000000000c81f0	wxbase33u:regconf.obj	?dtor$0@?0??GetNumberOfGroups@wxRegConfig@@UEBA_K_N@Z@4HA
00000000000c81f0	wxbase33u:registry.obj	?dtor$1@?0??HasSubkeys@wxRegKey@@QEBA_NXZ@4HA
00000000000c81f0	wxbase33u:registry.obj	?dtor$1@?0??HasValues@wxRegKey@@QEBA_NXZ@4HA
00000000000c81f0	wxbase33u:stdpaths.obj	?dtor$0@?0??IgnoreAppBuildSubDirs@wxStandardPaths@@QEAAXXZ@4HA
00000000000c81f0	wxbase33u:stdpaths.obj	?dtor$1@?0??IgnoreAppBuildSubDirs@wxStandardPaths@@QEAAXXZ@4HA
00000000000c81f0	wxbase33u:stdpaths.obj	?dtor$2@?0??IgnoreAppBuildSubDirs@wxStandardPaths@@QEAAXXZ@4HA
00000000000c81f0	wxbase33u:stdpaths.obj	?dtor$3@?0??IgnoreAppBuildSubDirs@wxStandardPaths@@QEAAXXZ@4HA
00000000000c81f0	wxbase33u:stdpaths.obj	?dtor$4@?0??IgnoreAppBuildSubDirs@wxStandardPaths@@QEAAXXZ@4HA
00000000000c81f0	wxbase33u:stdpaths.obj	?dtor$5@?0??IgnoreAppBuildSubDirs@wxStandardPaths@@QEAAXXZ@4HA
00000000000c81f0	wxbase33u:stdpaths.obj	?dtor$7@?0??IgnoreAppBuildSubDirs@wxStandardPaths@@QEAAXXZ@4HA
00000000000c81f0	wxbase33u:strconv.obj	?dtor$3@?0???0wxMBConv_wxwin@@QEAA@PEBD@Z@4HA
00000000000c81f0	wxbase33u:thread.obj	?dtor$0@?0??DoLog@wxLogger@@AEAAXPEB_WZZ@4HA
00000000000c81f0	wxbase33u:variant.obj	?dtor$1@?0???8wxVariant@@QEBA_NAEBV0@@Z@4HA
00000000000c81f0	wxbase33u:variant.obj	?dtor$1@?0??Write@wxVariantDataDateTime@@UEBA_NAEAVwxString@@@Z@4HA
00000000000c8200	wxbase33u:common_uilocale.obj	?dtor$10@?0??Language@wxLocaleIdent@@QEAAAEAV1@AEBVwxString@@@Z@4HA
00000000000c8200	wxbase33u:common_uilocale.obj	?dtor$2@?0??Language@wxLocaleIdent@@QEAAAEAV1@AEBVwxString@@@Z@4HA
00000000000c8200	wxbase33u:datetime.obj	?dtor$0@?0??GetCountry@wxDateTime@@SA?AW4Country@1@XZ@4HA
00000000000c8200	wxbase33u:debughlp.obj	?dtor$0@?0??DumpField@wxDbgHelpDLL@@CA?AVwxString@@PEAU_SYMBOL_INFOW@@PEAXI@Z@4HA
00000000000c8200	wxbase33u:debughlp.obj	?dtor$0@?0??DumpUDT@wxDbgHelpDLL@@CA?AVwxString@@PEAU_SYMBOL_INFOW@@PEAXI@Z@4HA
00000000000c8200	wxbase33u:event.obj	?dtor$2@?0???0wxThreadEvent@@QEAA@AEBV0@@Z@4HA
00000000000c8200	wxbase33u:log.obj	?dtor$2@?0??GetComponentLevel@wxLog@@SAKAEBVwxString@@@Z@4HA
00000000000c8200	wxbase33u:msgout.obj	?dtor$2@?0??Output@wxMessageOutputBest@@UEAAXAEBVwxString@@@Z@4HA
00000000000c8200	wxbase33u:msgout.obj	?dtor$3@?0??Output@wxMessageOutputBest@@UEAAXAEBVwxString@@@Z@4HA
00000000000c8200	wxbase33u:regconf.obj	?dtor$6@?0???0wxRegConfig@@QEAA@AEBVwxString@@000J@Z@4HA
00000000000c8200	wxbase33u:stdpaths.obj	?dtor$6@?0??IgnoreAppBuildSubDirs@wxStandardPaths@@QEAAXXZ@4HA
00000000000c8200	wxbase33u:thread.obj	?dtor$3@?0??DoLog@wxLogger@@AEAAXPEB_WZZ@4HA
00000000000c8200	wxbase33u:variant.obj	?dtor$0@?0???8wxVariant@@QEBA_NAEBV0@@Z@4HA
00000000000c8200	wxbase33u:variant.obj	?dtor$0@?0??Write@wxVariantDataDateTime@@UEBA_NAEAVwxString@@@Z@4HA
00000000000c8210	wxbase33u:thread.obj	?dtor$0@?0??OnExit@wxThreadModule@@UEAAXXZ@4HA
00000000000c8240	wxbase33u:thread.obj	?dtor$1@?0??OnExit@wxThreadModule@@UEAAXXZ@4HA
00000000000c8240	wxbase33u:utils.obj	?dtor$3@?0??wxGetFullModuleName@@YA?AVwxString@@PEAUHINSTANCE__@@@Z@4HA
00000000000c8250	wxbase33u:appbase.obj	?dtor$0@?0???$Printf@VwxString@@HV1@@wxString@@QEAAHAEBVwxFormatString@@V0@H1@Z@4HA
00000000000c8250	wxbase33u:fileconf.obj	?dtor$0@?0???$LogTrace@VwxString@@V1@@wxLogger@@QEAAXAEBVwxString@@AEBVwxFormatString@@V1@2@Z@4HA
00000000000c8250	wxbase33u:filename.obj	?dtor$9@?0??GetTempDir@wxFileName@@SA?AVwxString@@XZ@4HA
00000000000c8250	wxbase33u:regconf.obj	?dtor$9@?0??SetPath@wxRegConfig@@UEAAXAEBVwxString@@@Z@4HA
00000000000c8250	wxbase33u:registry.obj	?dtor$0@?0???$Log@VwxString@@V1@@wxLogger@@QEAAXAEBVwxFormatString@@VwxString@@1@Z@4HA
00000000000c8250	wxbase33u:registry.obj	?dtor$29@?0??DeleteSelf@wxRegKey@@QEAA_NXZ@4HA
00000000000c8250	wxbase33u:strconv.obj	?dtor$86@?0??DoCreate@wxCSConv@@AEBAPEAVwxMBConv@@XZ@4HA
00000000000c8250	wxbase33u:thread.obj	?dtor$2@?0??OnExit@wxThreadModule@@UEAAXXZ@4HA
00000000000c8250	wxbase33u:translation.obj	?dtor$18@?0??GetTranslatedString@wxTranslations@@QEBAPEBVwxString@@AEBV2@I00@Z@4HA
00000000000c8250	wxbase33u:utils.obj	?dtor$4@?0??wxGetFullModuleName@@YA?AVwxString@@PEAUHINSTANCE__@@@Z@4HA
00000000000c8250	wxbase33u:utilsexc.obj	?dtor$2@?0??CanRead@wxPipeInputStream@@UEBA_NXZ@4HA
00000000000c8250	wxbase33u:utilsexc.obj	?dtor$3@?0???0wxPipeOutputStream@@QEAA@PEAX@Z@4HA
00000000000c8260	wxbase33u:file.obj	?dtor$6@?0??Read@wxFile@@QEAA_JPEAX_K@Z@4HA
00000000000c8260	wxbase33u:file.obj	?dtor$6@?0??Write@wxFile@@QEAA_KPEBX_K@Z@4HA
00000000000c8260	wxbase33u:thread.obj	?dtor$3@?0??OnExit@wxThreadModule@@UEAAXXZ@4HA
00000000000c8260	wxbase33u:utils.obj	?dtor$5@?0??wxGetFullModuleName@@YA?AVwxString@@PEAUHINSTANCE__@@@Z@4HA
00000000000c8260	wxbase33u:utilsexc.obj	?dtor$2@?0??wxExecuteThread@@YAKPEAX@Z@4HA
00000000000c8260	wxbase33u:utilsexc.obj	?dtor$4@?0???0wxPipeOutputStream@@QEAA@PEAX@Z@4HA
00000000000c8260	wxbase33u:utilsexc.obj	?dtor$6@?0??wxExecuteThread@@YAKPEAX@Z@4HA
00000000000c8260	wxbase33u:utilsexc.obj	?dtor$9@?0??wxExecuteThread@@YAKPEAX@Z@4HA
00000000000c8270	wxbase33u:fileconf.obj	?dtor$63@?0??Parse@wxFileConfig@@AEAAXAEBVwxTextBuffer@@_N@Z@4HA
00000000000c8270	wxbase33u:strconv.obj	?dtor$10@?0??ToWChar@wxMBConv@@UEBA_KPEA_W_KPEBD1@Z@4HA
00000000000c8270	wxbase33u:thread.obj	?dtor$5@?0??OnExit@wxThreadModule@@UEAAXXZ@4HA
00000000000c8270	wxbase33u:txtstrm.obj	?dtor$8@?0??PutChar@wxTextOutputStream@@QEAAAEAV1@_W@Z@4HA
00000000000c8270	wxbase33u:utils.obj	?dtor$7@?0??wxGetFullModuleName@@YA?AVwxString@@PEAUHINSTANCE__@@@Z@4HA
00000000000c8280	wxbase33u:thread.obj	?dtor$6@?0??OnExit@wxThreadModule@@UEAAXXZ@4HA
00000000000c8280	wxbase33u:utils.obj	?dtor$8@?0??wxGetFullModuleName@@YA?AVwxString@@PEAUHINSTANCE__@@@Z@4HA
00000000000c8290	wxbase33u:appbase.obj	?dtor$2@?0??ShowAssertDialog@@YAXAEBVwxString@@H000PEAVwxAppTraits@@@Z@4HA
00000000000c8290	wxbase33u:fileconf.obj	?dtor$34@?0??DeleteSubgroup@wxFileConfigGroup@@AEAA_NPEAV1@@Z@4HA
00000000000c8290	wxbase33u:fileconf.obj	?dtor$40@?0??SetValue@wxFileConfigEntry@@QEAAXAEBVwxString@@_N@Z@4HA
00000000000c8290	wxbase33u:thread.obj	?dtor$13@?0??OnExit@wxThreadModule@@UEAAXXZ@4HA
00000000000c82a0	wxbase33u:file.obj	?dtor$0@?0??Close@wxFile@@QEAA_NXZ@4HA
00000000000c82a0	wxbase33u:file.obj	?dtor$0@?0??Length@wxFile@@QEBA_JXZ@4HA
00000000000c82a0	wxbase33u:file.obj	?dtor$0@?0??Seek@wxFile@@QEAA_J_JW4wxSeekMode@@@Z@4HA
00000000000c82a0	wxbase33u:file.obj	?dtor$0@?0??Tell@wxFile@@QEBA_JXZ@4HA
00000000000c82a0	wxbase33u:fmapbase.obj	?dtor$3@?0??NonInteractiveCharsetToEncoding@wxFontMapperBase@@IEAAHAEBVwxString@@@Z@4HA
00000000000c82a0	wxbase33u:thread.obj	?dtor$0@?0??OnInit@wxThreadModule@@UEAA_NXZ@4HA
00000000000c82a0	wxbase33u:timer.obj	?dtor$0@?0??Start@wxMSWTimerImpl@@UEAA_NH_N@Z@4HA
00000000000c82d0	wxbase33u:datetimefmt.obj	?dtor$10@?0??ParseFormat@wxDateTime@@QEAA_NAEBVwxString@@0AEBV1@PEAVconst_iterator@2@@Z@4HA
00000000000c82d0	wxbase33u:datetimefmt.obj	?dtor$11@?0??ParseFormat@wxDateTime@@QEAA_NAEBVwxString@@0AEBV1@PEAVconst_iterator@2@@Z@4HA
00000000000c82d0	wxbase33u:datetimefmt.obj	?dtor$13@?0??ParseFormat@wxDateTime@@QEAA_NAEBVwxString@@0AEBV1@PEAVconst_iterator@2@@Z@4HA
00000000000c82d0	wxbase33u:datetimefmt.obj	?dtor$16@?0??ParseFormat@wxDateTime@@QEAA_NAEBVwxString@@0AEBV1@PEAVconst_iterator@2@@Z@4HA
00000000000c82d0	wxbase33u:datetimefmt.obj	?dtor$22@?0??ParseFormat@wxDateTime@@QEAA_NAEBVwxString@@0AEBV1@PEAVconst_iterator@2@@Z@4HA
00000000000c82d0	wxbase33u:datetimefmt.obj	?dtor$49@?0??ParseFormat@wxDateTime@@QEAA_NAEBVwxString@@0AEBV1@PEAVconst_iterator@2@@Z@4HA
00000000000c82d0	wxbase33u:datetimefmt.obj	?dtor$4@?0??ParseFormat@wxDateTime@@QEAA_NAEBVwxString@@0AEBV1@PEAVconst_iterator@2@@Z@4HA
00000000000c82d0	wxbase33u:datetimefmt.obj	?dtor$5@?0??ParseFormat@wxDateTime@@QEAA_NAEBVwxString@@0AEBV1@PEAVconst_iterator@2@@Z@4HA
00000000000c82d0	wxbase33u:datetimefmt.obj	?dtor$8@?0??ParseFormat@wxDateTime@@QEAA_NAEBVwxString@@0AEBV1@PEAVconst_iterator@2@@Z@4HA
00000000000c82d0	wxbase33u:datetimefmt.obj	?dtor$98@?0??ParseFormat@wxDateTime@@QEAA_NAEBVwxString@@0AEBV1@PEAVconst_iterator@2@@Z@4HA
00000000000c82d0	wxbase33u:file.obj	?dtor$1@?0??Close@wxFile@@QEAA_NXZ@4HA
00000000000c82d0	wxbase33u:file.obj	?dtor$1@?0??Length@wxFile@@QEBA_JXZ@4HA
00000000000c82d0	wxbase33u:file.obj	?dtor$1@?0??Seek@wxFile@@QEAA_J_JW4wxSeekMode@@@Z@4HA
00000000000c82d0	wxbase33u:file.obj	?dtor$1@?0??Tell@wxFile@@QEBA_JXZ@4HA
00000000000c82d0	wxbase33u:fileconf.obj	?dtor$16@?0??DoWriteString@wxFileConfig@@MEAA_NAEBVwxString@@0@Z@4HA
00000000000c82d0	wxbase33u:fileconf.obj	?dtor$40@?0??DeleteSubgroup@wxFileConfigGroup@@AEAA_NPEAV1@@Z@4HA
00000000000c82d0	wxbase33u:fileconf.obj	?dtor$46@?0??DeleteSubgroup@wxFileConfigGroup@@AEAA_NPEAV1@@Z@4HA
00000000000c82d0	wxbase33u:fileconf.obj	?dtor$50@?0??DeleteSubgroup@wxFileConfigGroup@@AEAA_NPEAV1@@Z@4HA
00000000000c82d0	wxbase33u:filename.obj	?dtor$11@?0??wxCreateTempImpl@@YA?AVwxString@@AEBV1@PEAVwxFile@@PEAVwxFFile@@PEA_N@Z@4HA
00000000000c82d0	wxbase33u:filename.obj	?dtor$19@?0??wxCreateTempImpl@@YA?AVwxString@@AEBV1@PEAVwxFile@@PEAVwxFFile@@PEA_N@Z@4HA
00000000000c82d0	wxbase33u:fmapbase.obj	?dtor$75@?0??NonInteractiveCharsetToEncoding@wxFontMapperBase@@IEAAHAEBVwxString@@@Z@4HA
00000000000c82d0	wxbase33u:msw_uilocale.obj	?dtor$0@?0??GetLocaleId@wxUILocaleImplStdC@@UEBA?AVwxLocaleIdent@@XZ@4HA
00000000000c82d0	wxbase33u:registry.obj	?dtor$5@?0??Create@wxRegKey@@QEAA_N_N@Z@4HA
00000000000c82d0	wxbase33u:registry.obj	?dtor$5@?0??Open@wxRegKey@@QEAA_NW4AccessMode@1@@Z@4HA
00000000000c82d0	wxbase33u:textfile.obj	?dtor$2@?0??OnRead@wxTextFile@@MEAA_NAEBVwxMBConv@@@Z@4HA
00000000000c82d0	wxbase33u:thread.obj	?dtor$1@?0??OnInit@wxThreadModule@@UEAA_NXZ@4HA
00000000000c82d0	wxbase33u:thread.obj	?dtor$8@?0??OnInit@wxThreadModule@@UEAA_NXZ@4HA
00000000000c82d0	wxbase33u:timer.obj	?dtor$1@?0??Start@wxMSWTimerImpl@@UEAA_NH_N@Z@4HA
00000000000c82e0	wxbase33u:appbase.obj	?dtor$0@?0???6wxString@@QEAAAEAV0@_K@Z@4HA
00000000000c82e0	wxbase33u:config.obj	?dtor$2@?0??wxSplitPath@@YAXAEAVwxArrayString@@AEBVwxString@@@Z@4HA
00000000000c82e0	wxbase33u:fileconf.obj	?dtor$5@?0??Parse@wxFileConfig@@AEAAXAEBVwxTextBuffer@@_N@Z@4HA
00000000000c82e0	wxbase33u:filename.obj	?dtor$20@?0??GetShortcutTarget@wxFileName@@QEBA_NAEBVwxString@@AEAV2@PEAV2@@Z@4HA
00000000000c82e0	wxbase33u:module.obj	?dtor$14@?0??DoInitializeModule@wxModule@@CA_NPEAV1@AEAV?$vector@PEAVwxModule@@V?$allocator@PEAVwxModule@@@std@@@std@@@Z@4HA
00000000000c82e0	wxbase33u:module.obj	?dtor$3@?0??DoInitializeModule@wxModule@@CA_NPEAV1@AEAV?$vector@PEAVwxModule@@V?$allocator@PEAVwxModule@@@std@@@std@@@Z@4HA
00000000000c82e0	wxbase33u:module.obj	?dtor$9@?0??DoInitializeModule@wxModule@@CA_NPEAV1@AEAV?$vector@PEAVwxModule@@V?$allocator@PEAVwxModule@@@std@@@std@@@Z@4HA
00000000000c82e0	wxbase33u:stdpaths.obj	?dtor$0@?0??ResolveShellFunctions@?A0x022ab952@@YAXXZ@4HA
00000000000c82e0	wxbase33u:stdpaths.obj	?dtor$2@?0??IgnoreAppSubDir@wxStandardPaths@@QEAAXAEBVwxString@@@Z@4HA
00000000000c82e0	wxbase33u:textfile.obj	?dtor$6@?0??OnWrite@wxTextFile@@MEAA_NW4wxTextFileType@@AEBVwxMBConv@@@Z@4HA
00000000000c82e0	wxbase33u:textfile.obj	?dtor$9@?0??OnRead@wxTextFile@@MEAA_NAEBVwxMBConv@@@Z@4HA
00000000000c82e0	wxbase33u:thread.obj	?dtor$10@?0??OnInit@wxThreadModule@@UEAA_NXZ@4HA
00000000000c82e0	wxbase33u:thread.obj	?dtor$2@?0??OnInit@wxThreadModule@@UEAA_NXZ@4HA
00000000000c82e0	wxbase33u:timer.obj	?dtor$2@?0??Start@wxMSWTimerImpl@@UEAA_NH_N@Z@4HA
00000000000c82f0	wxbase33u:appbase.obj	?dtor$7@?0???6wxString@@QEAAAEAV0@_K@Z@4HA
00000000000c82f0	wxbase33u:config.obj	?dtor$3@?0??wxSplitPath@@YAXAEAVwxArrayString@@AEBVwxString@@@Z@4HA
00000000000c82f0	wxbase33u:datetimefmt.obj	?dtor$1@?0??ParseTime@wxDateTime@@QEAA_NAEBVwxString@@PEAVconst_iterator@2@@Z@4HA
00000000000c82f0	wxbase33u:fileconf.obj	?dtor$15@?0??Parse@wxFileConfig@@AEAAXAEBVwxTextBuffer@@_N@Z@4HA
00000000000c82f0	wxbase33u:fileconf.obj	?dtor$17@?0??Init@wxFileConfig@@AEAAXXZ@4HA
00000000000c82f0	wxbase33u:fileconf.obj	?dtor$23@?0??Init@wxFileConfig@@AEAAXXZ@4HA
00000000000c82f0	wxbase33u:fileconf.obj	?dtor$24@?0??Parse@wxFileConfig@@AEAAXAEBVwxTextBuffer@@_N@Z@4HA
00000000000c82f0	wxbase33u:fileconf.obj	?dtor$2@?0??SetValue@wxFileConfigEntry@@QEAAXAEBVwxString@@_N@Z@4HA
00000000000c82f0	wxbase33u:fileconf.obj	?dtor$32@?0??Parse@wxFileConfig@@AEAAXAEBVwxTextBuffer@@_N@Z@4HA
00000000000c82f0	wxbase33u:fileconf.obj	?dtor$7@?0??Init@wxFileConfig@@AEAAXXZ@4HA
00000000000c82f0	wxbase33u:filename.obj	?dtor$26@?0??GetShortcutTarget@wxFileName@@QEBA_NAEBVwxString@@AEAV2@PEAV2@@Z@4HA
00000000000c82f0	wxbase33u:log.obj	?dtor$4@?0??LogLastRepeatIfNeeded@wxLog@@IEAAIXZ@4HA
00000000000c82f0	wxbase33u:registry.obj	?dtor$2@?0??SetValue64@wxRegKey@@QEAA_NAEBVwxString@@_J@Z@4HA
00000000000c82f0	wxbase33u:registry.obj	?dtor$2@?0??SetValue@wxRegKey@@QEAA_NAEBVwxString@@J@Z@4HA
00000000000c82f0	wxbase33u:textfile.obj	?dtor$3@?0??OnRead@wxTextFile@@MEAA_NAEBVwxMBConv@@@Z@4HA
00000000000c82f0	wxbase33u:textfile.obj	?dtor$7@?0??OnWrite@wxTextFile@@MEAA_NW4wxTextFileType@@AEBVwxMBConv@@@Z@4HA
00000000000c82f0	wxbase33u:thread.obj	?dtor$3@?0??OnInit@wxThreadModule@@UEAA_NXZ@4HA
00000000000c82f0	wxbase33u:thread.obj	?dtor$9@?0??OnInit@wxThreadModule@@UEAA_NXZ@4HA
00000000000c82f0	wxbase33u:timer.obj	?dtor$3@?0??Start@wxMSWTimerImpl@@UEAA_NH_N@Z@4HA
00000000000c82f0	wxbase33u:variant.obj	?dtor$2@?0??Read@wxVariantDataArrayString@@UEAA_NAEAVwxString@@@Z@4HA
00000000000c8300	wxbase33u:appbase.obj	?dtor$0@?0??OnStackFrame@StackDump@?1??GetAssertStackTrace@wxAppTraitsBase@@UEAA?AVwxString@@XZ@MEAAXAEBVwxStackFrame@@@Z@4HA
00000000000c8300	wxbase33u:appbase.obj	?dtor$1@?0???6wxString@@QEAAAEAV0@_K@Z@4HA
00000000000c8300	wxbase33u:config.obj	?dtor$0@?0??DoWriteLongLong@wxConfigBase@@MEAA_NAEBVwxString@@_J@Z@4HA
00000000000c8300	wxbase33u:debughlp.obj	?dtor$0@?0??LogError@wxDbgHelpDLL@@SAXPEB_W@Z@4HA
00000000000c8300	wxbase33u:debughlp.obj	?dtor$2@?0??DumpBaseType@wxDbgHelpDLL@@CA?AVwxString@@W4BasicType@1@_KPEAX@Z@4HA
00000000000c8300	wxbase33u:debughlp.obj	?dtor$3@?0??DumpBaseType@wxDbgHelpDLL@@CA?AVwxString@@W4BasicType@1@_KPEAX@Z@4HA
00000000000c8300	wxbase33u:debughlp.obj	?dtor$4@?0??DumpBaseType@wxDbgHelpDLL@@CA?AVwxString@@W4BasicType@1@_KPEAX@Z@4HA
00000000000c8300	wxbase33u:debughlp.obj	?dtor$5@?0??DumpBaseType@wxDbgHelpDLL@@CA?AVwxString@@W4BasicType@1@_KPEAX@Z@4HA
00000000000c8300	wxbase33u:debughlp.obj	?dtor$6@?0??DumpBaseType@wxDbgHelpDLL@@CA?AVwxString@@W4BasicType@1@_KPEAX@Z@4HA
00000000000c8300	wxbase33u:debughlp.obj	?dtor$7@?0??DumpBaseType@wxDbgHelpDLL@@CA?AVwxString@@W4BasicType@1@_KPEAX@Z@4HA
00000000000c8300	wxbase33u:evtloopconsole.obj	?dtor$1@?0??GetNextMessageTimeout@wxMSWEventLoopBase@@IEAAHPEAUtagMSG@@K@Z@4HA
00000000000c8300	wxbase33u:ffile.obj	?dtor$4@?0??Close@wxFFile@@QEAA_NXZ@4HA
00000000000c8300	wxbase33u:file.obj	?dtor$12@?0??Commit@wxTempFile@@QEAA_NXZ@4HA
00000000000c8300	wxbase33u:file.obj	?dtor$4@?0??Close@wxFile@@QEAA_NXZ@4HA
00000000000c8300	wxbase33u:file.obj	?dtor$4@?0??Commit@wxTempFile@@QEAA_NXZ@4HA
00000000000c8300	wxbase33u:file.obj	?dtor$4@?0??Discard@wxTempFile@@QEAAXXZ@4HA
00000000000c8300	wxbase33u:file.obj	?dtor$4@?0??Length@wxFile@@QEBA_JXZ@4HA
00000000000c8300	wxbase33u:file.obj	?dtor$4@?0??Read@wxFile@@QEAA_JPEAX_K@Z@4HA
00000000000c8300	wxbase33u:file.obj	?dtor$4@?0??Seek@wxFile@@QEAA_J_JW4wxSeekMode@@@Z@4HA
00000000000c8300	wxbase33u:file.obj	?dtor$4@?0??Tell@wxFile@@QEBA_JXZ@4HA
00000000000c8300	wxbase33u:file.obj	?dtor$4@?0??Write@wxFile@@QEAA_KPEBX_K@Z@4HA
00000000000c8300	wxbase33u:fileconf.obj	?dtor$0@?0??DoWriteLong@wxFileConfig@@MEAA_NAEBVwxString@@J@Z@4HA
00000000000c8300	wxbase33u:fileconf.obj	?dtor$10@?0??DoWriteString@wxFileConfig@@MEAA_NAEBVwxString@@0@Z@4HA
00000000000c8300	wxbase33u:fileconf.obj	?dtor$10@?0??GetGroupLine@wxFileConfigGroup@@QEAAPEAVwxFileConfigLineList@@XZ@4HA
00000000000c8300	wxbase33u:fileconf.obj	?dtor$15@?0??LineListRemove@wxFileConfig@@QEAAXPEAVwxFileConfigLineList@@@Z@4HA
00000000000c8300	wxbase33u:fileconf.obj	?dtor$18@?0??DoWriteString@wxFileConfig@@MEAA_NAEBVwxString@@0@Z@4HA
00000000000c8300	wxbase33u:fileconf.obj	?dtor$1@?0??GetGroupLine@wxFileConfigGroup@@QEAAPEAVwxFileConfigLineList@@XZ@4HA
00000000000c8300	wxbase33u:fileconf.obj	?dtor$1@?0??LineListRemove@wxFileConfig@@QEAAXPEAVwxFileConfigLineList@@@Z@4HA
00000000000c8300	wxbase33u:fileconf.obj	?dtor$21@?0??DoWriteString@wxFileConfig@@MEAA_NAEBVwxString@@0@Z@4HA
00000000000c8300	wxbase33u:fileconf.obj	?dtor$22@?0??LineListRemove@wxFileConfig@@QEAAXPEAVwxFileConfigLineList@@@Z@4HA
00000000000c8300	wxbase33u:fileconf.obj	?dtor$26@?0??DoWriteString@wxFileConfig@@MEAA_NAEBVwxString@@0@Z@4HA
00000000000c8300	wxbase33u:fileconf.obj	?dtor$29@?0??LineListRemove@wxFileConfig@@QEAAXPEAVwxFileConfigLineList@@@Z@4HA
00000000000c8300	wxbase33u:fileconf.obj	?dtor$3@?0??DoWriteString@wxFileConfig@@MEAA_NAEBVwxString@@0@Z@4HA
00000000000c8300	wxbase33u:fileconf.obj	?dtor$4@?0??SetLine@wxFileConfigEntry@@QEAAXPEAVwxFileConfigLineList@@@Z@4HA
00000000000c8300	wxbase33u:fileconf.obj	?dtor$6@?0??GetGroupLine@wxFileConfigGroup@@QEAAPEAVwxFileConfigLineList@@XZ@4HA
00000000000c8300	wxbase33u:fileconf.obj	?dtor$8@?0??LineListRemove@wxFileConfig@@QEAAXPEAVwxFileConfigLineList@@@Z@4HA
00000000000c8300	wxbase33u:filefn.obj	?dtor$13@?0??wxRenameFile@@YA_NAEBVwxString@@0_N@Z@4HA
00000000000c8300	wxbase33u:filefn.obj	?dtor$4@?0??wxCopyFile@@YA_NAEBVwxString@@0_N@Z@4HA
00000000000c8300	wxbase33u:filefn.obj	?dtor$4@?0??wxDoGetCwd@@YAPEA_WPEA_WH@Z@4HA
00000000000c8300	wxbase33u:filefn.obj	?dtor$4@?0??wxRemoveFile@@YA_NAEBVwxString@@@Z@4HA
00000000000c8300	wxbase33u:filefn.obj	?dtor$4@?0??wxRenameFile@@YA_NAEBVwxString@@0_N@Z@4HA
00000000000c8300	wxbase33u:filefn.obj	?dtor$4@?0??wxSetWorkingDirectory@@YA_NAEBVwxString@@@Z@4HA
00000000000c8300	wxbase33u:fmapbase.obj	?dtor$8@?0??GetEncodingName@wxFontMapperBase@@SA?AVwxString@@W4wxFontEncoding@@@Z@4HA
00000000000c8300	wxbase33u:module.obj	?dtor$10@?0??DoInitializeModule@wxModule@@CA_NPEAV1@AEAV?$vector@PEAVwxModule@@V?$allocator@PEAVwxModule@@@std@@@std@@@Z@4HA
00000000000c8300	wxbase33u:module.obj	?dtor$16@?0??DoInitializeModule@wxModule@@CA_NPEAV1@AEAV?$vector@PEAVwxModule@@V?$allocator@PEAVwxModule@@@std@@@std@@@Z@4HA
00000000000c8300	wxbase33u:module.obj	?dtor$19@?0??DoInitializeModule@wxModule@@CA_NPEAV1@AEAV?$vector@PEAVwxModule@@V?$allocator@PEAVwxModule@@@std@@@std@@@Z@4HA
00000000000c8300	wxbase33u:module.obj	?dtor$1@?0??DoCleanUpModules@wxModule@@CAXAEBV?$vector@PEAVwxModule@@V?$allocator@PEAVwxModule@@@std@@@std@@@Z@4HA
00000000000c8300	wxbase33u:module.obj	?dtor$1@?0??RegisterModules@wxModule@@SAXXZ@4HA
00000000000c8300	wxbase33u:module.obj	?dtor$4@?0??DoInitializeModule@wxModule@@CA_NPEAV1@AEAV?$vector@PEAVwxModule@@V?$allocator@PEAVwxModule@@@std@@@std@@@Z@4HA
00000000000c8300	wxbase33u:regconf.obj	?dtor$2@?0???$DoWriteValue@J@wxRegConfig@@IEAA_NAEBVwxString@@AEBJ@Z@4HA
00000000000c8300	wxbase33u:regconf.obj	?dtor$2@?0???$DoWriteValue@VwxMemoryBuffer@@@wxRegConfig@@IEAA_NAEBVwxString@@AEBVwxMemoryBuffer@@@Z@4HA
00000000000c8300	wxbase33u:regconf.obj	?dtor$2@?0???$DoWriteValue@VwxString@@@wxRegConfig@@IEAA_NAEBVwxString@@0@Z@4HA
00000000000c8300	wxbase33u:regconf.obj	?dtor$2@?0???$DoWriteValue@_J@wxRegConfig@@IEAA_NAEBVwxString@@AEB_J@Z@4HA
00000000000c8300	wxbase33u:registry.obj	?dtor$11@?0??RenameValue@wxRegKey@@QEAA_NAEBVwxString@@0@Z@4HA
00000000000c8300	wxbase33u:registry.obj	?dtor$13@?0??QueryValue64@wxRegKey@@QEBA_NAEBVwxString@@PEA_J@Z@4HA
00000000000c8300	wxbase33u:registry.obj	?dtor$13@?0??QueryValue@wxRegKey@@QEBA_NAEBVwxString@@PEAJ@Z@4HA
00000000000c8300	wxbase33u:registry.obj	?dtor$13@?0??Rename@wxRegKey@@QEAA_NAEBVwxString@@@Z@4HA
00000000000c8300	wxbase33u:registry.obj	?dtor$18@?0??Copy@wxRegKey@@QEAA_NAEAV1@@Z@4HA
00000000000c8300	wxbase33u:registry.obj	?dtor$20@?0??Rename@wxRegKey@@QEAA_NAEBVwxString@@@Z@4HA
00000000000c8300	wxbase33u:registry.obj	?dtor$26@?0??Copy@wxRegKey@@QEAA_NAEAV1@@Z@4HA
00000000000c8300	wxbase33u:registry.obj	?dtor$4@?0??Close@wxRegKey@@QEAA_NXZ@4HA
00000000000c8300	wxbase33u:registry.obj	?dtor$4@?0??GetTypeString@@YA?AVwxString@@K@Z@4HA
00000000000c8300	wxbase33u:registry.obj	?dtor$4@?0??GetValueType@wxRegKey@@QEBA?AW4ValueType@1@AEBVwxString@@@Z@4HA
00000000000c8300	wxbase33u:registry.obj	?dtor$4@?0??Open@wxRegKey@@QEAA_NW4AccessMode@1@@Z@4HA
00000000000c8300	wxbase33u:registry.obj	?dtor$4@?0??QueryValue64@wxRegKey@@QEBA_NAEBVwxString@@PEA_J@Z@4HA
00000000000c8300	wxbase33u:registry.obj	?dtor$4@?0??QueryValue@wxRegKey@@QEBA_NAEBVwxString@@PEAJ@Z@4HA
00000000000c8300	wxbase33u:registry.obj	?dtor$4@?0??Rename@wxRegKey@@QEAA_NAEBVwxString@@@Z@4HA
00000000000c8300	wxbase33u:registry.obj	?dtor$4@?0??RenameValue@wxRegKey@@QEAA_NAEBVwxString@@0@Z@4HA
00000000000c8300	wxbase33u:registry.obj	?dtor$4@?0??SetValue64@wxRegKey@@QEAA_NAEBVwxString@@_J@Z@4HA
00000000000c8300	wxbase33u:registry.obj	?dtor$4@?0??SetValue@wxRegKey@@QEAA_NAEBVwxString@@0@Z@4HA
00000000000c8300	wxbase33u:registry.obj	?dtor$4@?0??SetValue@wxRegKey@@QEAA_NAEBVwxString@@AEBVwxMemoryBuffer@@@Z@4HA
00000000000c8300	wxbase33u:registry.obj	?dtor$8@?0??Copy@wxRegKey@@QEAA_NAEAV1@@Z@4HA
00000000000c8300	wxbase33u:stream.obj	?dtor$1@?0??SeekI@wxInputStream@@UEAA_J_JW4wxSeekMode@@@Z@4HA
00000000000c8300	wxbase33u:thread.obj	?dtor$11@?0??OnInit@wxThreadModule@@UEAA_NXZ@4HA
00000000000c8300	wxbase33u:thread.obj	?dtor$4@?0??OnInit@wxThreadModule@@UEAA_NXZ@4HA
00000000000c8300	wxbase33u:txtstrm.obj	?dtor$1@?0??Write32@wxTextOutputStream@@QEAAXI@Z@4HA
00000000000c8300	wxbase33u:txtstrm.obj	?dtor$1@?0??Write8@wxTextOutputStream@@QEAAXE@Z@4HA
00000000000c8300	wxbase33u:txtstrm.obj	?dtor$1@?0??WriteDouble@wxTextOutputStream@@UEAAXN@Z@4HA
00000000000c8300	wxbase33u:utilsexc.obj	?dtor$4@?0??Create@wxPipe@@QEAA_NXZ@4HA
00000000000c8310	wxbase33u:config.obj	?dtor$1@?0??DoReadBool@wxConfigBase@@MEBA_NAEBVwxString@@PEA_N@Z@4HA
00000000000c8310	wxbase33u:file.obj	?dtor$5@?0??Close@wxFile@@QEAA_NXZ@4HA
00000000000c8310	wxbase33u:file.obj	?dtor$5@?0??Length@wxFile@@QEBA_JXZ@4HA
00000000000c8310	wxbase33u:file.obj	?dtor$5@?0??Seek@wxFile@@QEAA_J_JW4wxSeekMode@@@Z@4HA
00000000000c8310	wxbase33u:file.obj	?dtor$5@?0??Tell@wxFile@@QEBA_JXZ@4HA
00000000000c8310	wxbase33u:fileconf.obj	?dtor$11@?0??DoWriteString@wxFileConfig@@MEAA_NAEBVwxString@@0@Z@4HA
00000000000c8310	wxbase33u:fileconf.obj	?dtor$19@?0??DeleteSubgroup@wxFileConfigGroup@@AEAA_NPEAV1@@Z@4HA
00000000000c8310	wxbase33u:fileconf.obj	?dtor$22@?0??DoWriteString@wxFileConfig@@MEAA_NAEBVwxString@@0@Z@4HA
00000000000c8310	wxbase33u:fileconf.obj	?dtor$23@?0??DeleteSubgroup@wxFileConfigGroup@@AEAA_NPEAV1@@Z@4HA
00000000000c8310	wxbase33u:fileconf.obj	?dtor$27@?0??DoWriteString@wxFileConfig@@MEAA_NAEBVwxString@@0@Z@4HA
00000000000c8310	wxbase33u:fileconf.obj	?dtor$28@?0??DeleteSubgroup@wxFileConfigGroup@@AEAA_NPEAV1@@Z@4HA
00000000000c8310	wxbase33u:fileconf.obj	?dtor$2@?0??DeleteSubgroup@wxFileConfigGroup@@AEAA_NPEAV1@@Z@4HA
00000000000c8310	wxbase33u:fileconf.obj	?dtor$32@?0??DeleteSubgroup@wxFileConfigGroup@@AEAA_NPEAV1@@Z@4HA
00000000000c8310	wxbase33u:fileconf.obj	?dtor$4@?0??DoWriteString@wxFileConfig@@MEAA_NAEBVwxString@@0@Z@4HA
00000000000c8310	wxbase33u:fileconf.obj	?dtor$8@?0??DeleteSubgroup@wxFileConfigGroup@@AEAA_NPEAV1@@Z@4HA
00000000000c8310	wxbase33u:filename.obj	?dtor$12@?0??wxCreateTempImpl@@YA?AVwxString@@AEBV1@PEAVwxFile@@PEAVwxFFile@@PEA_N@Z@4HA
00000000000c8310	wxbase33u:filename.obj	?dtor$18@?0??wxCreateTempImpl@@YA?AVwxString@@AEBV1@PEAVwxFile@@PEAVwxFFile@@PEA_N@Z@4HA
00000000000c8310	wxbase33u:filename.obj	?dtor$2@?0??DoSetPath@wxFileName@@AEAAXAEBVwxString@@W4wxPathFormat@@H@Z@4HA
00000000000c8310	wxbase33u:stdpaths.obj	?dtor$13@?0??IgnoreAppSubDir@wxStandardPaths@@QEAAXAEBVwxString@@@Z@4HA
00000000000c8310	wxbase33u:textfile.obj	?dtor$0@?0??OnRead@wxTextFile@@MEAA_NAEBVwxMBConv@@@Z@4HA
00000000000c8310	wxbase33u:thread.obj	?dtor$12@?0??OnInit@wxThreadModule@@UEAA_NXZ@4HA
00000000000c8310	wxbase33u:thread.obj	?dtor$5@?0??OnInit@wxThreadModule@@UEAA_NXZ@4HA
00000000000c8310	wxbase33u:timer.obj	?dtor$5@?0??Start@wxMSWTimerImpl@@UEAA_NH_N@Z@4HA
00000000000c8320	wxbase33u:dir.obj	?dtor$3@?0??FreeFindData@?A0x7f149f09@@YAXPEAX@Z@4HA
00000000000c8320	wxbase33u:dlmsw.obj	?dtor$3@?0??Unload@wxDynamicLibrary@@SAXPEAUHINSTANCE__@@@Z@4HA
00000000000c8320	wxbase33u:evtloopconsole.obj	?dtor$3@?0??WakeUp@wxMSWEventLoopBase@@UEAAXXZ@4HA
00000000000c8320	wxbase33u:evtloopconsole.obj	?dtor$4@?0???0wxMSWEventLoopBase@@QEAA@XZ@4HA
00000000000c8320	wxbase33u:thread.obj	?dtor$13@?0??OnInit@wxThreadModule@@UEAA_NXZ@4HA
00000000000c8320	wxbase33u:thread.obj	?dtor$6@?0??OnInit@wxThreadModule@@UEAA_NXZ@4HA
00000000000c8320	wxbase33u:timer.obj	?dtor$3@?0??OnExit@wxTimerHiddenWindowModule@@UEAAXXZ@4HA
00000000000c8320	wxbase33u:timer.obj	?dtor$6@?0??Start@wxMSWTimerImpl@@UEAA_NH_N@Z@4HA
00000000000c8320	wxbase33u:timer.obj	?dtor$7@?0??OnExit@wxTimerHiddenWindowModule@@UEAAXXZ@4HA
00000000000c8320	wxbase33u:utilsexc.obj	?dtor$2@?0??OnExit@wxExecuteModule@@UEAAXXZ@4HA
00000000000c8320	wxbase33u:utilsexc.obj	?dtor$3@?0??Create@Event@wxWinAPI@@QEAA_NW4Kind@12@W4InitialState@12@PEB_W@Z@4HA
00000000000c8320	wxbase33u:utilsexc.obj	?dtor$3@?0??DoClose@?$AutoHANDLE@$0A@@@IEAAXXZ@4HA
00000000000c8320	wxbase33u:utilsexc.obj	?dtor$3@?0??Set@Event@wxWinAPI@@QEAA_NXZ@4HA
00000000000c8320	wxbase33u:utilsexc.obj	?dtor$3@?0??wxExecuteWindowCbk@@YA_JPEAUHWND__@@I_K_J@Z@4HA
00000000000c8320	wxbase33u:utilsexc.obj	?dtor$5@?0??OnExit@wxExecuteModule@@UEAAXXZ@4HA
00000000000c8320	wxbase33u:utilsexc.obj	?dtor$9@?0??OnExit@wxExecuteModule@@UEAAXXZ@4HA
00000000000c8330	wxbase33u:registry.obj	?dtor$20@?0??DeleteValue@wxRegKey@@QEAA_NAEBVwxString@@@Z@4HA
00000000000c8330	wxbase33u:thread.obj	?dtor$7@?0??OnInit@wxThreadModule@@UEAA_NXZ@4HA
00000000000c8360	wxbase33u:file.obj	?dtor$31@?0??Close@wxFile@@QEAA_NXZ@4HA
00000000000c8360	wxbase33u:file.obj	?dtor$31@?0??Length@wxFile@@QEBA_JXZ@4HA
00000000000c8360	wxbase33u:file.obj	?dtor$31@?0??Seek@wxFile@@QEAA_J_JW4wxSeekMode@@@Z@4HA
00000000000c8360	wxbase33u:file.obj	?dtor$31@?0??Tell@wxFile@@QEBA_JXZ@4HA
00000000000c8360	wxbase33u:fileconf.obj	?dtor$14@?0??DeleteAll@wxFileConfig@@UEAA_NXZ@4HA
00000000000c8360	wxbase33u:filefn.obj	?dtor$26@?0??wxRenameFile@@YA_NAEBVwxString@@0_N@Z@4HA
00000000000c8360	wxbase33u:filefn.obj	?dtor$33@?0??wxDoGetCwd@@YAPEA_WPEA_WH@Z@4HA
00000000000c8360	wxbase33u:filefn.obj	?dtor$33@?0??wxSetWorkingDirectory@@YA_NAEBVwxString@@@Z@4HA
00000000000c8360	wxbase33u:thread.obj	?dtor$22@?0??OnInit@wxThreadModule@@UEAA_NXZ@4HA
00000000000c8360	wxbase33u:utilsexc.obj	?dtor$31@?0??Create@wxPipe@@QEAA_NXZ@4HA
00000000000c8390	wxbase33u:appbase.obj	?dtor$11@?0??OnStackFrame@StackDump@?1??GetAssertStackTrace@wxAppTraitsBase@@UEAA?AVwxString@@XZ@MEAAXAEBVwxStackFrame@@@Z@4HA
00000000000c8390	wxbase33u:appbase.obj	?dtor$4@?0???6wxString@@QEAAAEAV0@_K@Z@4HA
00000000000c8390	wxbase33u:config.obj	?dtor$3@?0??DoWriteLongLong@wxConfigBase@@MEAA_NAEBVwxString@@_J@Z@4HA
00000000000c8390	wxbase33u:debughlp.obj	?dtor$13@?0??DumpBaseType@wxDbgHelpDLL@@CA?AVwxString@@W4BasicType@1@_KPEAX@Z@4HA
00000000000c8390	wxbase33u:debughlp.obj	?dtor$18@?0??DumpBaseType@wxDbgHelpDLL@@CA?AVwxString@@W4BasicType@1@_KPEAX@Z@4HA
00000000000c8390	wxbase33u:debughlp.obj	?dtor$23@?0??DumpBaseType@wxDbgHelpDLL@@CA?AVwxString@@W4BasicType@1@_KPEAX@Z@4HA
00000000000c8390	wxbase33u:debughlp.obj	?dtor$28@?0??DumpBaseType@wxDbgHelpDLL@@CA?AVwxString@@W4BasicType@1@_KPEAX@Z@4HA
00000000000c8390	wxbase33u:debughlp.obj	?dtor$33@?0??DumpBaseType@wxDbgHelpDLL@@CA?AVwxString@@W4BasicType@1@_KPEAX@Z@4HA
00000000000c8390	wxbase33u:debughlp.obj	?dtor$38@?0??DumpBaseType@wxDbgHelpDLL@@CA?AVwxString@@W4BasicType@1@_KPEAX@Z@4HA
00000000000c8390	wxbase33u:debughlp.obj	?dtor$4@?0??LogError@wxDbgHelpDLL@@SAXPEB_W@Z@4HA
00000000000c8390	wxbase33u:evtloopconsole.obj	?dtor$5@?0??GetNextMessageTimeout@wxMSWEventLoopBase@@IEAAHPEAUtagMSG@@K@Z@4HA
00000000000c8390	wxbase33u:ffile.obj	?dtor$26@?0??Close@wxFFile@@QEAA_NXZ@4HA
00000000000c8390	wxbase33u:file.obj	?dtor$15@?0??Read@wxFile@@QEAA_JPEAX_K@Z@4HA
00000000000c8390	wxbase33u:file.obj	?dtor$15@?0??Write@wxFile@@QEAA_KPEBX_K@Z@4HA
00000000000c8390	wxbase33u:file.obj	?dtor$25@?0??Close@wxFile@@QEAA_NXZ@4HA
00000000000c8390	wxbase33u:file.obj	?dtor$25@?0??Length@wxFile@@QEBA_JXZ@4HA
00000000000c8390	wxbase33u:file.obj	?dtor$25@?0??Seek@wxFile@@QEAA_J_JW4wxSeekMode@@@Z@4HA
00000000000c8390	wxbase33u:file.obj	?dtor$25@?0??Tell@wxFile@@QEBA_JXZ@4HA
00000000000c8390	wxbase33u:file.obj	?dtor$26@?0??Discard@wxTempFile@@QEAAXXZ@4HA
00000000000c8390	wxbase33u:file.obj	?dtor$35@?0??Commit@wxTempFile@@QEAA_NXZ@4HA
00000000000c8390	wxbase33u:file.obj	?dtor$98@?0??Commit@wxTempFile@@QEAA_NXZ@4HA
00000000000c8390	wxbase33u:fileconf.obj	?dtor$103@?0??GetGroupLine@wxFileConfigGroup@@QEAAPEAVwxFileConfigLineList@@XZ@4HA
00000000000c8390	wxbase33u:fileconf.obj	?dtor$119@?0??LineListRemove@wxFileConfig@@QEAAXPEAVwxFileConfigLineList@@@Z@4HA
00000000000c8390	wxbase33u:fileconf.obj	?dtor$129@?0??DoWriteString@wxFileConfig@@MEAA_NAEBVwxString@@0@Z@4HA
00000000000c8390	wxbase33u:fileconf.obj	?dtor$138@?0??DoWriteString@wxFileConfig@@MEAA_NAEBVwxString@@0@Z@4HA
00000000000c8390	wxbase33u:fileconf.obj	?dtor$182@?0??DoWriteString@wxFileConfig@@MEAA_NAEBVwxString@@0@Z@4HA
00000000000c8390	wxbase33u:fileconf.obj	?dtor$185@?0??LineListRemove@wxFileConfig@@QEAAXPEAVwxFileConfigLineList@@@Z@4HA
00000000000c8390	wxbase33u:fileconf.obj	?dtor$224@?0??LineListRemove@wxFileConfig@@QEAAXPEAVwxFileConfigLineList@@@Z@4HA
00000000000c8390	wxbase33u:fileconf.obj	?dtor$26@?0??SetLine@wxFileConfigEntry@@QEAAXPEAVwxFileConfigLineList@@@Z@4HA
00000000000c8390	wxbase33u:fileconf.obj	?dtor$3@?0??DoWriteLong@wxFileConfig@@MEAA_NAEBVwxString@@J@Z@4HA
00000000000c8390	wxbase33u:fileconf.obj	?dtor$56@?0??GetGroupLine@wxFileConfigGroup@@QEAAPEAVwxFileConfigLineList@@XZ@4HA
00000000000c8390	wxbase33u:fileconf.obj	?dtor$58@?0??DoWriteString@wxFileConfig@@MEAA_NAEBVwxString@@0@Z@4HA
00000000000c8390	wxbase33u:fileconf.obj	?dtor$58@?0??LineListRemove@wxFileConfig@@QEAAXPEAVwxFileConfigLineList@@@Z@4HA
00000000000c8390	wxbase33u:fileconf.obj	?dtor$72@?0??DoWriteString@wxFileConfig@@MEAA_NAEBVwxString@@0@Z@4HA
00000000000c8390	wxbase33u:fileconf.obj	?dtor$76@?0??GetGroupLine@wxFileConfigGroup@@QEAAPEAVwxFileConfigLineList@@XZ@4HA
00000000000c8390	wxbase33u:fileconf.obj	?dtor$97@?0??LineListRemove@wxFileConfig@@QEAAXPEAVwxFileConfigLineList@@@Z@4HA
00000000000c8390	wxbase33u:filefn.obj	?dtor$27@?0??wxDoGetCwd@@YAPEA_WPEA_WH@Z@4HA
00000000000c8390	wxbase33u:filefn.obj	?dtor$27@?0??wxSetWorkingDirectory@@YA_NAEBVwxString@@@Z@4HA
00000000000c8390	wxbase33u:filefn.obj	?dtor$28@?0??wxRemoveFile@@YA_NAEBVwxString@@@Z@4HA
00000000000c8390	wxbase33u:filefn.obj	?dtor$29@?0??wxCopyFile@@YA_NAEBVwxString@@0_N@Z@4HA
00000000000c8390	wxbase33u:filefn.obj	?dtor$38@?0??wxRenameFile@@YA_NAEBVwxString@@0_N@Z@4HA
00000000000c8390	wxbase33u:filefn.obj	?dtor$93@?0??wxRenameFile@@YA_NAEBVwxString@@0_N@Z@4HA
00000000000c8390	wxbase33u:fmapbase.obj	?dtor$19@?0??GetEncodingName@wxFontMapperBase@@SA?AVwxString@@W4wxFontEncoding@@@Z@4HA
00000000000c8390	wxbase33u:module.obj	?dtor$101@?0??DoInitializeModule@wxModule@@CA_NPEAV1@AEAV?$vector@PEAVwxModule@@V?$allocator@PEAVwxModule@@@std@@@std@@@Z@4HA
00000000000c8390	wxbase33u:module.obj	?dtor$127@?0??DoInitializeModule@wxModule@@CA_NPEAV1@AEAV?$vector@PEAVwxModule@@V?$allocator@PEAVwxModule@@@std@@@std@@@Z@4HA
00000000000c8390	wxbase33u:module.obj	?dtor$151@?0??DoInitializeModule@wxModule@@CA_NPEAV1@AEAV?$vector@PEAVwxModule@@V?$allocator@PEAVwxModule@@@std@@@std@@@Z@4HA
00000000000c8390	wxbase33u:module.obj	?dtor$58@?0??DoInitializeModule@wxModule@@CA_NPEAV1@AEAV?$vector@PEAVwxModule@@V?$allocator@PEAVwxModule@@@std@@@std@@@Z@4HA
00000000000c8390	wxbase33u:module.obj	?dtor$6@?0??DoCleanUpModules@wxModule@@CAXAEBV?$vector@PEAVwxModule@@V?$allocator@PEAVwxModule@@@std@@@std@@@Z@4HA
00000000000c8390	wxbase33u:module.obj	?dtor$6@?0??RegisterModules@wxModule@@SAXXZ@4HA
00000000000c8390	wxbase33u:object.obj	?dtor$12@?0??Register@wxClassInfo@@IEAAXXZ@4HA
00000000000c8390	wxbase33u:regconf.obj	?dtor$7@?0???$DoWriteValue@J@wxRegConfig@@IEAA_NAEBVwxString@@AEBJ@Z@4HA
00000000000c8390	wxbase33u:regconf.obj	?dtor$7@?0???$DoWriteValue@VwxMemoryBuffer@@@wxRegConfig@@IEAA_NAEBVwxString@@AEBVwxMemoryBuffer@@@Z@4HA
00000000000c8390	wxbase33u:regconf.obj	?dtor$7@?0???$DoWriteValue@VwxString@@@wxRegConfig@@IEAA_NAEBVwxString@@0@Z@4HA
00000000000c8390	wxbase33u:regconf.obj	?dtor$7@?0???$DoWriteValue@_J@wxRegConfig@@IEAA_NAEBVwxString@@AEB_J@Z@4HA
00000000000c8390	wxbase33u:registry.obj	?dtor$125@?0??Rename@wxRegKey@@QEAA_NAEBVwxString@@@Z@4HA
00000000000c8390	wxbase33u:registry.obj	?dtor$12@?0??GetTypeString@@YA?AVwxString@@K@Z@4HA
00000000000c8390	wxbase33u:registry.obj	?dtor$153@?0??Copy@wxRegKey@@QEAA_NAEAV1@@Z@4HA
00000000000c8390	wxbase33u:registry.obj	?dtor$26@?0??SetValue64@wxRegKey@@QEAA_NAEBVwxString@@_J@Z@4HA
00000000000c8390	wxbase33u:registry.obj	?dtor$26@?0??SetValue@wxRegKey@@QEAA_NAEBVwxString@@0@Z@4HA
00000000000c8390	wxbase33u:registry.obj	?dtor$26@?0??SetValue@wxRegKey@@QEAA_NAEBVwxString@@AEBVwxMemoryBuffer@@@Z@4HA
00000000000c8390	wxbase33u:registry.obj	?dtor$27@?0??Close@wxRegKey@@QEAA_NXZ@4HA
00000000000c8390	wxbase33u:registry.obj	?dtor$27@?0??GetValueType@wxRegKey@@QEBA?AW4ValueType@1@AEBVwxString@@@Z@4HA
00000000000c8390	wxbase33u:registry.obj	?dtor$27@?0??Open@wxRegKey@@QEAA_NW4AccessMode@1@@Z@4HA
00000000000c8390	wxbase33u:registry.obj	?dtor$34@?0??RenameValue@wxRegKey@@QEAA_NAEBVwxString@@0@Z@4HA
00000000000c8390	wxbase33u:registry.obj	?dtor$44@?0??QueryValue64@wxRegKey@@QEBA_NAEBVwxString@@PEA_J@Z@4HA
00000000000c8390	wxbase33u:registry.obj	?dtor$44@?0??QueryValue@wxRegKey@@QEBA_NAEBVwxString@@PEAJ@Z@4HA
00000000000c8390	wxbase33u:registry.obj	?dtor$55@?0??Copy@wxRegKey@@QEAA_NAEAV1@@Z@4HA
00000000000c8390	wxbase33u:registry.obj	?dtor$58@?0??Rename@wxRegKey@@QEAA_NAEBVwxString@@@Z@4HA
00000000000c8390	wxbase33u:registry.obj	?dtor$84@?0??QueryValue64@wxRegKey@@QEBA_NAEBVwxString@@PEA_J@Z@4HA
00000000000c8390	wxbase33u:registry.obj	?dtor$84@?0??QueryValue@wxRegKey@@QEBA_NAEBVwxString@@PEAJ@Z@4HA
00000000000c8390	wxbase33u:registry.obj	?dtor$88@?0??RenameValue@wxRegKey@@QEAA_NAEBVwxString@@0@Z@4HA
00000000000c8390	wxbase33u:registry.obj	?dtor$93@?0??Rename@wxRegKey@@QEAA_NAEBVwxString@@@Z@4HA
00000000000c8390	wxbase33u:registry.obj	?dtor$95@?0??Copy@wxRegKey@@QEAA_NAEAV1@@Z@4HA
00000000000c8390	wxbase33u:stream.obj	?dtor$5@?0??SeekI@wxInputStream@@UEAA_J_JW4wxSeekMode@@@Z@4HA
00000000000c8390	wxbase33u:strvararg.obj	?dtor$20@?0???0?$wxPrintfConvSpecParser@_W@@QEAA@PEB_W@Z@4HA
00000000000c8390	wxbase33u:strvararg.obj	?dtor$25@?0???0?$wxPrintfConvSpecParser@D@@QEAA@PEBD@Z@4HA
00000000000c8390	wxbase33u:strvararg.obj	?dtor$7@?0???0?$wxPrintfConvSpecParser@D@@QEAA@PEBD@Z@4HA
00000000000c8390	wxbase33u:strvararg.obj	?dtor$7@?0???0?$wxPrintfConvSpecParser@_W@@QEAA@PEB_W@Z@4HA
00000000000c8390	wxbase33u:thread.obj	?dtor$35@?0??OnInit@wxThreadModule@@UEAA_NXZ@4HA
00000000000c8390	wxbase33u:thread.obj	?dtor$87@?0??OnInit@wxThreadModule@@UEAA_NXZ@4HA
00000000000c8390	wxbase33u:txtstrm.obj	?dtor$6@?0??Write32@wxTextOutputStream@@QEAAXI@Z@4HA
00000000000c8390	wxbase33u:txtstrm.obj	?dtor$6@?0??Write8@wxTextOutputStream@@QEAAXE@Z@4HA
00000000000c8390	wxbase33u:txtstrm.obj	?dtor$6@?0??WriteDouble@wxTextOutputStream@@UEAAXN@Z@4HA
00000000000c8390	wxbase33u:utilsexc.obj	?dtor$25@?0??Create@wxPipe@@QEAA_NXZ@4HA
00000000000c83a0	wxbase33u:fileconf.obj	?dtor$32@?0??DeleteAll@wxFileConfig@@UEAA_NXZ@4HA
00000000000c83a0	wxbase33u:filename.obj	?dtor$35@?0??wxCreateTempImpl@@YA?AVwxString@@AEBV1@PEAVwxFile@@PEAVwxFFile@@PEA_N@Z@4HA
00000000000c83a0	wxbase33u:registry.obj	?dtor$100@?0??Copy@wxRegKey@@QEAA_NAEAV1@@Z@4HA
00000000000c83a0	wxbase33u:registry.obj	?dtor$31@?0??SetValue@wxRegKey@@QEAA_NAEBVwxString@@0@Z@4HA
00000000000c83a0	wxbase33u:registry.obj	?dtor$31@?0??SetValue@wxRegKey@@QEAA_NAEBVwxString@@AEBVwxMemoryBuffer@@@Z@4HA
00000000000c83a0	wxbase33u:strconv.obj	?dtor$0@?0??DoConvertWC2MB@wxMBConv@@AEBA?AVwxCharBuffer@@PEB_W_K@Z@4HA
00000000000c83a0	wxbase33u:strconv.obj	?dtor$0@?0??WC2MB@wxMBConv_win32@@UEBA_KPEADPEB_W_K@Z@4HA
00000000000c83a0	wxbase33u:stringops.obj	?dtor$0@?0??EncodeNChars@wxStringOperationsWchar@@SA?AVwxWCharBuffer@@_KAEBVwxUniChar@@@Z@4HA
00000000000c83a0	wxbase33u:thread.obj	?dtor$40@?0??OnInit@wxThreadModule@@UEAA_NXZ@4HA
00000000000c83a0	wxbase33u:thread.obj	?dtor$72@?0??OnInit@wxThreadModule@@UEAA_NXZ@4HA
00000000000c83a0	wxbase33u:timer.obj	?dtor$11@?0??Start@wxMSWTimerImpl@@UEAA_NH_N@Z@4HA
00000000000c83b0	wxbase33u:fileconf.obj	?dtor$33@?0??DeleteAll@wxFileConfig@@UEAA_NXZ@4HA
00000000000c83b0	wxbase33u:filefn.obj	?dtor$44@?0??wxRenameFile@@YA_NAEBVwxString@@0_N@Z@4HA
00000000000c83b0	wxbase33u:thread.obj	?dtor$41@?0??OnInit@wxThreadModule@@UEAA_NXZ@4HA
00000000000c83e0	wxbase33u:thread.obj	?dtor$50@?0??OnInit@wxThreadModule@@UEAA_NXZ@4HA
00000000000c8400	wxbase33u:thread.obj	?dtor$73@?0??OnInit@wxThreadModule@@UEAA_NXZ@4HA
00000000000c8430	wxbase33u:thread.obj	?dtor$93@?0??OnInit@wxThreadModule@@UEAA_NXZ@4HA
00000000000c8460	wxbase33u:filefn.obj	?dtor$59@?0??wxRenameFile@@YA_NAEBVwxString@@0_N@Z@4HA
00000000000c8460	wxbase33u:thread.obj	?dtor$102@?0??OnInit@wxThreadModule@@UEAA_NXZ@4HA
00000000000c8460	wxbase33u:timer.obj	?dtor$42@?0??Start@wxMSWTimerImpl@@UEAA_NH_N@Z@4HA
00000000000c8480	log4cpplib:Category.obj	?dtor$0@?0??getAppender@Category@log4cpp@@UEBAPEAVAppender@2@AEBV?$basic_string@DU?$char_traits@D@std@@V?$allocator@D@2@@std@@@Z@4HA
00000000000c8480	log4cpplib:HierarchyMaintainer.obj	?dtor$0@?0??getCurrentCategories@HierarchyMaintainer@log4cpp@@UEBAPEAV?$vector@PEAVCategory@log4cpp@@V?$allocator@PEAVCategory@log4cpp@@@std@@@std@@XZ@4HA
00000000000c8480	log4cpplib:HierarchyMaintainer.obj	?dtor$0@?0??getExistingInstance@HierarchyMaintainer@log4cpp@@UEAAPEAVCategory@2@AEBV?$basic_string@DU?$char_traits@D@std@@V?$allocator@D@2@@std@@@Z@4HA
00000000000c8480	log4cpplib:HierarchyMaintainer.obj	?dtor$0@?0??getInstance@HierarchyMaintainer@log4cpp@@UEAAAEAVCategory@2@AEBV?$basic_string@DU?$char_traits@D@std@@V?$allocator@D@2@@std@@@Z@4HA
00000000000c8480	log4cpplib:HierarchyMaintainer.obj	?dtor$0@?0??shutdown@HierarchyMaintainer@log4cpp@@UEAAXXZ@4HA
00000000000c8480	wxbase33u:thread.obj	?dtor$0@?0??wxMutexGuiLeaveImpl@@YAXXZ@4HA
00000000000c8490	wxbase33u:appbase.obj	?dtor$1@?0??OnUnhandledException@wxAppConsoleBase@@UEAAXXZ@4HA
00000000000c8490	wxbase33u:appbase.obj	?dtor$3@?0??CheckBuildOptions@wxAppConsoleBase@@SA_NPEBD0@Z@4HA
00000000000c8490	wxbase33u:config.obj	?dtor$4@?0??DoReadBool@wxConfigBase@@MEBA_NAEBVwxString@@PEA_N@Z@4HA
00000000000c8490	wxbase33u:strconv.obj	?dtor$1@?0??GetMBNulLen@wxMBConv_win32@@UEBA_KXZ@4HA
00000000000c8490	wxbase33u:thread.obj	?dtor$0@?0??wxWakeUpMainThread@@YAXXZ@4HA
00000000000c84a0	wxbase33u:fileconf.obj	?dtor$232@?0??DeleteSubgroup@wxFileConfigGroup@@AEAA_NPEAV1@@Z@4HA
00000000000c84a0	wxbase33u:fileconf.obj	?dtor$267@?0??DeleteSubgroup@wxFileConfigGroup@@AEAA_NPEAV1@@Z@4HA
00000000000c84a0	wxbase33u:fileconf.obj	?dtor$4@?0??DeleteSubgroup@wxFileConfigGroup@@AEAA_NPEAV1@@Z@4HA
00000000000c84a0	wxbase33u:registry.obj	?dtor$10@?0??Copy@wxRegKey@@QEAA_NAEAV1@@Z@4HA
00000000000c84a0	wxbase33u:registry.obj	?dtor$47@?0??Copy@wxRegKey@@QEAA_NAEAV1@@Z@4HA
00000000000c84a0	wxbase33u:registry.obj	?dtor$6@?0??DeleteSelf@wxRegKey@@QEAA_NXZ@4HA
00000000000c84a0	wxbase33u:thread.obj	?dtor$1@?0??wxWakeUpMainThread@@YAXXZ@4HA
00000000000c84b0	wxbase33u:appbase.obj	?dtor$6@?0??ShowAssertDialog@@YAXAEBVwxString@@H000PEAVwxAppTraits@@@Z@4HA
00000000000c84b0	wxbase33u:thread.obj	?dtor$2@?0??wxWakeUpMainThread@@YAXXZ@4HA
00000000000c84c0	wxbase33u:appbase.obj	?dtor$4@?0??OnUnhandledException@wxAppConsoleBase@@UEAAXXZ@4HA
00000000000c84c0	wxbase33u:appbase.obj	?dtor$8@?0??CheckBuildOptions@wxAppConsoleBase@@SA_NPEBD0@Z@4HA
00000000000c84c0	wxbase33u:cmdline.obj	?dtor$152@?0??SetDesc@wxCmdLineParser@@QEAAXPEBUwxCmdLineEntryDesc@@@Z@4HA
00000000000c84c0	wxbase33u:config.obj	?dtor$14@?0??DoReadBool@wxConfigBase@@MEBA_NAEBVwxString@@PEA_N@Z@4HA
00000000000c84c0	wxbase33u:strconv.obj	?dtor$4@?0??GetMBNulLen@wxMBConv_win32@@UEBA_KXZ@4HA
00000000000c84c0	wxbase33u:thread.obj	?dtor$3@?0??wxWakeUpMainThread@@YAXXZ@4HA
00000000000c84d0	wxbase33u:appbase.obj	?dtor$5@?0??OnUnhandledException@wxAppConsoleBase@@UEAAXXZ@4HA
00000000000c84d0	wxbase33u:appbase.obj	?dtor$9@?0??CheckBuildOptions@wxAppConsoleBase@@SA_NPEBD0@Z@4HA
00000000000c84d0	wxbase33u:config.obj	?dtor$15@?0??DoReadBool@wxConfigBase@@MEBA_NAEBVwxString@@PEA_N@Z@4HA
00000000000c84d0	wxbase33u:strconv.obj	?dtor$5@?0??GetMBNulLen@wxMBConv_win32@@UEBA_KXZ@4HA
00000000000c84d0	wxbase33u:thread.obj	?dtor$4@?0??wxWakeUpMainThread@@YAXXZ@4HA
00000000000c84e0	wxbase33u:config.obj	?dtor$38@?0??wxSplitPath@@YAXAEAVwxArrayString@@AEBVwxString@@@Z@4HA
00000000000c84e0	wxbase33u:fileconf.obj	?dtor$187@?0??DeleteSubgroup@wxFileConfigGroup@@AEAA_NPEAV1@@Z@4HA
00000000000c84e0	wxbase33u:fileconf.obj	?dtor$42@?0??DeleteSubgroup@wxFileConfigGroup@@AEAA_NPEAV1@@Z@4HA
00000000000c84e0	wxbase33u:fileconf.obj	?dtor$48@?0??Init@wxFileConfig@@AEAAXXZ@4HA
00000000000c84e0	wxbase33u:fileconf.obj	?dtor$6@?0??SetLine@wxFileConfigEntry@@QEAAXPEAVwxFileConfigLineList@@@Z@4HA
00000000000c84e0	wxbase33u:registry.obj	?dtor$12@?0??RenameValue@wxRegKey@@QEAA_NAEBVwxString@@0@Z@4HA
00000000000c84e0	wxbase33u:registry.obj	?dtor$28@?0??Copy@wxRegKey@@QEAA_NAEAV1@@Z@4HA
00000000000c84e0	wxbase33u:registry.obj	?dtor$99@?0??RenameValue@wxRegKey@@QEAA_NAEBVwxString@@0@Z@4HA
00000000000c84e0	wxbase33u:textfile.obj	?dtor$53@?0??OnWrite@wxTextFile@@MEAA_NW4wxTextFileType@@AEBVwxMBConv@@@Z@4HA
00000000000c84e0	wxbase33u:thread.obj	?dtor$9@?0??wxWakeUpMainThread@@YAXXZ@4HA
00000000000c84f0	wxbase33u:appbase.obj	?dtor$1@?0???$Printf@VwxString@@HV1@@wxString@@QEAAHAEBVwxFormatString@@V0@H1@Z@4HA
00000000000c84f0	wxbase33u:appbase.obj	?dtor$6@?0??CheckBuildOptions@wxAppConsoleBase@@SA_NPEBD0@Z@4HA
00000000000c84f0	wxbase33u:dir.obj	?dtor$2@?0??FreeFindData@?A0x7f149f09@@YAXPEAX@Z@4HA
00000000000c84f0	wxbase33u:dlmsw.obj	?dtor$2@?0??Unload@wxDynamicLibrary@@SAXPEAUHINSTANCE__@@@Z@4HA
00000000000c84f0	wxbase33u:evtloopconsole.obj	?dtor$2@?0??WakeUp@wxMSWEventLoopBase@@UEAAXXZ@4HA
00000000000c84f0	wxbase33u:evtloopconsole.obj	?dtor$3@?0???0wxMSWEventLoopBase@@QEAA@XZ@4HA
00000000000c84f0	wxbase33u:fileconf.obj	?dtor$1@?0???$LogTrace@VwxString@@V1@@wxLogger@@QEAAXAEBVwxString@@AEBVwxFormatString@@V1@2@Z@4HA
00000000000c84f0	wxbase33u:fileconf.obj	?dtor$22@?0??FilterInValue@@YA?AVwxString@@AEBV1@@Z@4HA
00000000000c84f0	wxbase33u:registry.obj	?dtor$1@?0???$Log@VwxString@@V1@@wxLogger@@QEAAXAEBVwxFormatString@@VwxString@@1@Z@4HA
00000000000c84f0	wxbase33u:stdpaths.obj	?dtor$5@?0??ResolveShellFunctions@?A0x022ab952@@YAXXZ@4HA
00000000000c84f0	wxbase33u:timer.obj	?dtor$2@?0??OnExit@wxTimerHiddenWindowModule@@UEAAXXZ@4HA
00000000000c84f0	wxbase33u:timer.obj	?dtor$6@?0??OnExit@wxTimerHiddenWindowModule@@UEAAXXZ@4HA
00000000000c84f0	wxbase33u:utilsexc.obj	?dtor$2@?0??Create@Event@wxWinAPI@@QEAA_NW4Kind@12@W4InitialState@12@PEB_W@Z@4HA
00000000000c84f0	wxbase33u:utilsexc.obj	?dtor$2@?0??DoClose@?$AutoHANDLE@$0A@@@IEAAXXZ@4HA
00000000000c84f0	wxbase33u:utilsexc.obj	?dtor$2@?0??Set@Event@wxWinAPI@@QEAA_NXZ@4HA
00000000000c84f0	wxbase33u:utilsexc.obj	?dtor$2@?0??wxExecuteWindowCbk@@YA_JPEAUHWND__@@I_K_J@Z@4HA
00000000000c84f0	wxbase33u:utilsexc.obj	?dtor$5@?0??wxExecuteThread@@YAKPEAX@Z@4HA
00000000000c84f0	wxbase33u:utilsexc.obj	?dtor$8@?0??OnExit@wxExecuteModule@@UEAAXXZ@4HA
00000000000c8500	wxbase33u:appbase.obj	?dtor$2@?0???$Printf@VwxString@@HV1@@wxString@@QEAAHAEBVwxFormatString@@V0@H1@Z@4HA
00000000000c8500	wxbase33u:config.obj	?dtor$14@?0??wxExpandEnvVars@@YA?AVwxString@@AEBV1@@Z@4HA
00000000000c8500	wxbase33u:dde.obj	?dtor$0@?0??Create@wxDDEServer@@UEAA_NAEBVwxString@@@Z@4HA
00000000000c8500	wxbase33u:dde.obj	?dtor$1@?0??MakeConnection@wxDDEClient@@UEAAPEAVwxConnectionBase@@AEBVwxString@@00@Z@4HA
00000000000c8500	wxbase33u:filename.obj	?dtor$4@?0??Assign@wxFileName@@QEAAXAEBVwxString@@0W4wxPathFormat@@@Z@4HA
00000000000c8500	wxbase33u:filename.obj	?dtor$4@?0??DoSetPath@wxFileName@@AEAAXAEBVwxString@@W4wxPathFormat@@H@Z@4HA
00000000000c8500	wxbase33u:log.obj	?dtor$5@?0??CallDoLogNow@wxLog@@AEAAXKAEBVwxString@@AEBVwxLogRecordInfo@@@Z@4HA
00000000000c8500	wxbase33u:registry.obj	?dtor$5@?0??CopyValue@wxRegKey@@QEAA_NAEBVwxString@@AEAV1@0@Z@4HA
00000000000c8500	wxbase33u:stdpaths.obj	?dtor$0@?0??GetAppDir@wxStandardPaths@@IEBA?AVwxString@@XZ@4HA
00000000000c8500	wxbase33u:stdpaths.obj	?dtor$2@?0??MakeConfigFileName@wxStandardPaths@@UEBA?AVwxString@@AEBV2@W4ConfigFileConv@wxStandardPathsBase@@@Z@4HA
00000000000c8510	wxbase33u:appbase.obj	?dtor$0@?0???$Printf@VwxString@@PEBD@wxMessageOutput@@QEAAXAEBVwxFormatString@@VwxString@@PEBD@Z@4HA
00000000000c8510	wxbase33u:appbase.obj	?dtor$4@?0??CheckBuildOptions@wxAppConsoleBase@@SA_NPEBD0@Z@4HA
00000000000c8510	wxbase33u:file.obj	?dtor$0@?0???0wxTempFile@@QEAA@AEBVwxString@@@Z@4HA
00000000000c8510	wxbase33u:fileconf.obj	?dtor$10@?0??LineListAppend@wxFileConfig@@QEAAPEAVwxFileConfigLineList@@AEBVwxString@@@Z@4HA
00000000000c8510	wxbase33u:fileconf.obj	?dtor$134@?0??LineListAppend@wxFileConfig@@QEAAPEAVwxFileConfigLineList@@AEBVwxString@@@Z@4HA
00000000000c8510	wxbase33u:fileconf.obj	?dtor$209@?0??LineListAppend@wxFileConfig@@QEAAPEAVwxFileConfigLineList@@AEBVwxString@@@Z@4HA
00000000000c8510	wxbase33u:fileconf.obj	?dtor$3@?0??GetLastEntryLine@wxFileConfigGroup@@QEAAPEAVwxFileConfigLineList@@XZ@4HA
00000000000c8510	wxbase33u:fileconf.obj	?dtor$47@?0??LineListAppend@wxFileConfig@@QEAAPEAVwxFileConfigLineList@@AEBVwxString@@@Z@4HA
00000000000c8510	wxbase33u:fileconf.obj	?dtor$89@?0??LineListAppend@wxFileConfig@@QEAAPEAVwxFileConfigLineList@@AEBVwxString@@@Z@4HA
00000000000c8510	wxbase33u:filename.obj	?dtor$0@?0???0wxFileName@@QEAA@AEBVwxString@@W4wxPathFormat@@@Z@4HA
00000000000c8510	wxbase33u:regconf.obj	?dtor$3@?0???$DoReadValue@J@wxRegConfig@@IEBA_NAEBVwxString@@PEAJ@Z@4HA
00000000000c8510	wxbase33u:regconf.obj	?dtor$3@?0???$DoReadValue@VwxMemoryBuffer@@@wxRegConfig@@IEBA_NAEBVwxString@@PEAVwxMemoryBuffer@@@Z@4HA
00000000000c8510	wxbase33u:regconf.obj	?dtor$3@?0???$DoReadValue@VwxString@@@wxRegConfig@@IEBA_NAEBVwxString@@PEAV1@@Z@4HA
00000000000c8510	wxbase33u:regconf.obj	?dtor$3@?0???$DoReadValue@_J@wxRegConfig@@IEBA_NAEBVwxString@@PEA_J@Z@4HA
00000000000c8510	wxbase33u:regconf.obj	?dtor$3@?0???$DoWriteValue@J@wxRegConfig@@IEAA_NAEBVwxString@@AEBJ@Z@4HA
00000000000c8510	wxbase33u:regconf.obj	?dtor$3@?0???$DoWriteValue@VwxMemoryBuffer@@@wxRegConfig@@IEAA_NAEBVwxString@@AEBVwxMemoryBuffer@@@Z@4HA
00000000000c8510	wxbase33u:regconf.obj	?dtor$3@?0???$DoWriteValue@VwxString@@@wxRegConfig@@IEAA_NAEBVwxString@@0@Z@4HA
00000000000c8510	wxbase33u:regconf.obj	?dtor$3@?0???$DoWriteValue@_J@wxRegConfig@@IEAA_NAEBVwxString@@AEB_J@Z@4HA
00000000000c8510	wxbase33u:stackwalk.obj	?dtor$21@?0??OnParam@wxStackFrame@@QEAAXPEAU_SYMBOL_INFOW@@@Z@4HA
00000000000c8510	wxbase33u:stackwalk.obj	?dtor$9@?0??OnParam@wxStackFrame@@QEAAXPEAU_SYMBOL_INFOW@@@Z@4HA
00000000000c8520	wxbase33u:appbase.obj	?dtor$1@?0???$Printf@VwxString@@PEBD@wxMessageOutput@@QEAAXAEBVwxFormatString@@VwxString@@PEBD@Z@4HA
00000000000c8520	wxbase33u:strconv.obj	?dtor$0@?0??ToWChar@wxMBConv@@UEBA_KPEA_W_KPEBD1@Z@4HA
00000000000c8520	wxbase33u:strconv.obj	?dtor$2@?0??FromWChar@wxMBConv@@UEBA_KPEAD_KPEB_W1@Z@4HA
00000000000c8530	wxbase33u:appbase.obj	?dtor$0@?0???0wxAppConsoleBase@@QEAA@XZ@4HA
00000000000c8530	wxbase33u:process.obj	?dtor$1@?0??wxCreateObject@wxProcess@@SAPEAVwxObject@@XZ@4HA
00000000000c8540	wxbase33u:appbase.obj	?dtor$1@?0???0wxAppConsoleBase@@QEAA@XZ@4HA
00000000000c8550	wxbase33u:appbase.obj	?dtor$2@?0???0wxAppConsoleBase@@QEAA@XZ@4HA
00000000000c8570	wxbase33u:appbase.obj	?dtor$3@?0???0wxAppConsoleBase@@QEAA@XZ@4HA
00000000000c8590	wxbase33u:appbase.obj	?dtor$4@?0???0wxAppConsoleBase@@QEAA@XZ@4HA
00000000000c85b0	wxbase33u:appbase.obj	?dtor$5@?0???0wxAppConsoleBase@@QEAA@XZ@4HA
00000000000c85d0	wxbase33u:appbase.obj	?dtor$6@?0???0wxAppConsoleBase@@QEAA@XZ@4HA
00000000000c85f0	wxbase33u:appbase.obj	?dtor$7@?0???0wxAppConsoleBase@@QEAA@XZ@4HA
00000000000c8610	wxbase33u:appbase.obj	?dtor$8@?0???0wxAppConsoleBase@@QEAA@XZ@4HA
00000000000c8630	wxbase33u:appbase.obj	?dtor$9@?0???0wxAppConsoleBase@@QEAA@XZ@4HA
00000000000c8650	wxbase33u:appbase.obj	?dtor$10@?0???0wxAppConsoleBase@@QEAA@XZ@4HA
00000000000c8670	wxbase33u:appbase.obj	?dtor$1@?0??wxOnAssert@@YAXPEBDH00AEBVwxString@@@Z@4HA
00000000000c8670	wxbase33u:appbase.obj	?dtor$2@?0???6wxString@@QEAAAEAV0@_K@Z@4HA
00000000000c8670	wxbase33u:appbase.obj	?dtor$2@?0??OnAssertFailure@wxAppConsoleBase@@UEAAXPEB_WH000@Z@4HA
00000000000c8670	wxbase33u:appbase.obj	?dtor$2@?0??wxOnAssert@@YAXPEBDH000@Z@4HA
00000000000c8670	wxbase33u:appbase.obj	?dtor$3@?0??GetTraits@wxAppConsoleBase@@QEAAPEAVwxAppTraits@@XZ@4HA
00000000000c8670	wxbase33u:appbase.obj	?dtor$3@?0??wxOnAssert@@YAXPEBDH00PEB_W@Z@4HA
00000000000c8670	wxbase33u:config.obj	?dtor$1@?0??DoWriteLongLong@wxConfigBase@@MEAA_NAEBVwxString@@_J@Z@4HA
00000000000c8670	wxbase33u:datetimefmt.obj	?dtor$3@?0??ParseTime@wxDateTime@@QEAA_NAEBVwxString@@PEAVconst_iterator@2@@Z@4HA
00000000000c8670	wxbase33u:dde.obj	?dtor$1@?0??DDEAtomFromString@@YAPEAUHSZ__@@AEBVwxString@@@Z@4HA
00000000000c8670	wxbase33u:dir.obj	?dtor$4@?0??DoLogWithNum@wxLogger@@AEAAXJPEB_WZZ@4HA
00000000000c8670	wxbase33u:dynlib.obj	?dtor$1@?0??GetSymbol@wxDynamicLibrary@@QEBAPEAXAEBVwxString@@PEA_N@Z@4HA
00000000000c8670	wxbase33u:file.obj	?dtor$3@?0??Read@wxFile@@QEAA_JPEAX_K@Z@4HA
00000000000c8670	wxbase33u:file.obj	?dtor$3@?0??Write@wxFile@@QEAA_KPEBX_K@Z@4HA
00000000000c8670	wxbase33u:fileconf.obj	?dtor$0@?0??HasEntry@wxFileConfig@@UEBA_NAEBVwxString@@@Z@4HA
00000000000c8670	wxbase33u:fileconf.obj	?dtor$1@?0??DoWriteLong@wxFileConfig@@MEAA_NAEBVwxString@@J@Z@4HA
00000000000c8670	wxbase33u:fileconf.obj	?dtor$3@?0??GetFullName@wxFileConfigGroup@@QEBA?AVwxString@@XZ@4HA
00000000000c8670	wxbase33u:fileconf.obj	?dtor$9@?0??SetValue@wxFileConfigEntry@@QEAAXAEBVwxString@@_N@Z@4HA
00000000000c8670	wxbase33u:filefn.obj	?dtor$2@?0??FindValidPath@wxPathList@@QEBA?AVwxString@@AEBV2@@Z@4HA
00000000000c8670	wxbase33u:filefn.obj	?dtor$4@?0??FindValidPath@wxPathList@@QEBA?AVwxString@@AEBV2@@Z@4HA
00000000000c8670	wxbase33u:filefn.obj	?dtor$5@?0??FindValidPath@wxPathList@@QEBA?AVwxString@@AEBV2@@Z@4HA
00000000000c8670	wxbase33u:filefn.obj	?dtor$6@?0??FindValidPath@wxPathList@@QEBA?AVwxString@@AEBV2@@Z@4HA
00000000000c8670	wxbase33u:filename.obj	?dtor$19@?0??GetShortcutTarget@wxFileName@@QEBA_NAEBVwxString@@AEAV2@PEAV2@@Z@4HA
00000000000c8670	wxbase33u:filename.obj	?dtor$4@?0??GetShortcutTarget@wxFileName@@QEBA_NAEBVwxString@@AEAV2@PEAV2@@Z@4HA
00000000000c8670	wxbase33u:filename.obj	?dtor$8@?0??GetShortcutTarget@wxFileName@@QEBA_NAEBVwxString@@AEAV2@PEAV2@@Z@4HA
00000000000c8670	wxbase33u:filename.obj	?dtor$9@?0??GetShortcutTarget@wxFileName@@QEBA_NAEBVwxString@@AEAV2@PEAV2@@Z@4HA
00000000000c8670	wxbase33u:ipcbase.obj	?dtor$1@?0??GetTextFromData@wxConnectionBase@@SA?AVwxString@@PEBX_KW4wxIPCFormat@@@Z@4HA
00000000000c8670	wxbase33u:ipcbase.obj	?dtor$2@?0??GetTextFromData@wxConnectionBase@@SA?AVwxString@@PEBX_KW4wxIPCFormat@@@Z@4HA
00000000000c8670	wxbase33u:ipcbase.obj	?dtor$3@?0??GetTextFromData@wxConnectionBase@@SA?AVwxString@@PEBX_KW4wxIPCFormat@@@Z@4HA
00000000000c8670	wxbase33u:log.obj	?dtor$3@?0??LogLastRepeatIfNeeded@wxLog@@IEAAIXZ@4HA
00000000000c8670	wxbase33u:log.obj	?dtor$4@?0??Format@wxLogFormatter@@UEBA?AVwxString@@KAEBV2@AEBVwxLogRecordInfo@@@Z@4HA
00000000000c8670	wxbase33u:log.obj	?dtor$6@?0??Format@wxLogFormatter@@UEBA?AVwxString@@KAEBV2@AEBVwxLogRecordInfo@@@Z@4HA
00000000000c8670	wxbase33u:msgout.obj	?dtor$2@?0??Output@wxMessageOutputDebug@@UEAAXAEBVwxString@@@Z@4HA
00000000000c8670	wxbase33u:msgout.obj	?dtor$3@?0??Output@wxMessageOutputDebug@@UEAAXAEBVwxString@@@Z@4HA
00000000000c8670	wxbase33u:stdpbase.obj	?dtor$0@?0??GetAppDocumentsDir@wxStandardPathsBase@@UEBA?AVwxString@@XZ@4HA
00000000000c8670	wxbase33u:stdpbase.obj	?dtor$0@?0??GetLocalizedResourcesDir@wxStandardPathsBase@@UEBA?AVwxString@@AEBV2@W4ResourceCat@1@@Z@4HA
00000000000c8670	wxbase33u:stdpbase.obj	?dtor$2@?0??AppendAppInfo@wxStandardPathsBase@@IEBA?AVwxString@@AEBV2@@Z@4HA
00000000000c8670	wxbase33u:sysopt.obj	?dtor$2@?0??GetOption@wxSystemOptions@@SA?AVwxString@@AEBV2@@Z@4HA
00000000000c8670	wxbase33u:sysopt.obj	?dtor$5@?0??GetOption@wxSystemOptions@@SA?AVwxString@@AEBV2@@Z@4HA
00000000000c8670	wxbase33u:sysopt.obj	?dtor$7@?0??GetOption@wxSystemOptions@@SA?AVwxString@@AEBV2@@Z@4HA
00000000000c8670	wxbase33u:sysopt.obj	?dtor$9@?0??GetOption@wxSystemOptions@@SA?AVwxString@@AEBV2@@Z@4HA
00000000000c8670	wxbase33u:txtstrm.obj	?dtor$0@?0??Write32@wxTextOutputStream@@QEAAXI@Z@4HA
00000000000c8670	wxbase33u:txtstrm.obj	?dtor$0@?0??Write8@wxTextOutputStream@@QEAAXE@Z@4HA
00000000000c8670	wxbase33u:txtstrm.obj	?dtor$0@?0??WriteDouble@wxTextOutputStream@@UEAAXN@Z@4HA
00000000000c8670	wxbase33u:utilsexc.obj	?dtor$1@?0??wxExecuteDDE@@YA_NAEBVwxString@@00@Z@4HA
00000000000c8670	wxbase33u:variant.obj	?dtor$0@?0??Eq@wxVariantDataArrayString@@UEBA_NAEAVwxVariantData@@@Z@4HA
00000000000c8670	wxbase33u:variant.obj	?dtor$0@?0??Eq@wxVariantDataWxObjectPtr@@UEBA_NAEAVwxVariantData@@@Z@4HA
00000000000c8680	wxbase33u:appbase.obj	?dtor$4@?0??SetTraceMasks@@YAXXZ@4HA
00000000000c8680	wxbase33u:appbase.obj	?dtor$8@?0???6wxString@@QEAAAEAV0@_K@Z@4HA
00000000000c8680	wxbase33u:config.obj	?dtor$4@?0??wxSplitPath@@YAXAEAVwxArrayString@@AEBVwxString@@@Z@4HA
00000000000c8680	wxbase33u:datetimefmt.obj	?dtor$2@?0??ParseTime@wxDateTime@@QEAA_NAEBVwxString@@PEAVconst_iterator@2@@Z@4HA
00000000000c8680	wxbase33u:debughlp.obj	?dtor$5@?0??DumpField@wxDbgHelpDLL@@CA?AVwxString@@PEAU_SYMBOL_INFOW@@PEAXI@Z@4HA
00000000000c8680	wxbase33u:debughlp.obj	?dtor$9@?0??DumpField@wxDbgHelpDLL@@CA?AVwxString@@PEAU_SYMBOL_INFOW@@PEAXI@Z@4HA
00000000000c8680	wxbase33u:fileconf.obj	?dtor$16@?0??Init@wxFileConfig@@AEAAXXZ@4HA
00000000000c8680	wxbase33u:fileconf.obj	?dtor$24@?0??Init@wxFileConfig@@AEAAXXZ@4HA
00000000000c8680	wxbase33u:fileconf.obj	?dtor$3@?0??SetValue@wxFileConfigEntry@@QEAAXAEBVwxString@@_N@Z@4HA
00000000000c8680	wxbase33u:fileconf.obj	?dtor$6@?0??Init@wxFileConfig@@AEAAXXZ@4HA
00000000000c8680	wxbase33u:filename.obj	?dtor$1@?0??GetShortcutTarget@wxFileName@@QEBA_NAEBVwxString@@AEAV2@PEAV2@@Z@4HA
00000000000c8680	wxbase33u:log.obj	?dtor$5@?0??LogLastRepeatIfNeeded@wxLog@@IEAAIXZ@4HA
00000000000c8680	wxbase33u:module.obj	?dtor$2@?0??RegisterModules@wxModule@@SAXXZ@4HA
00000000000c8680	wxbase33u:module.obj	?dtor$3@?0??InitializeModules@wxModule@@SA_NXZ@4HA
00000000000c8680	wxbase33u:registry.obj	?dtor$12@?0??QueryValue64@wxRegKey@@QEBA_NAEBVwxString@@PEA_J@Z@4HA
00000000000c8680	wxbase33u:registry.obj	?dtor$12@?0??QueryValue@wxRegKey@@QEBA_NAEBVwxString@@PEAJ@Z@4HA
00000000000c8680	wxbase33u:registry.obj	?dtor$3@?0??SetValue64@wxRegKey@@QEAA_NAEBVwxString@@_J@Z@4HA
00000000000c8680	wxbase33u:registry.obj	?dtor$3@?0??SetValue@wxRegKey@@QEAA_NAEBVwxString@@J@Z@4HA
00000000000c8680	wxbase33u:sysopt.obj	?dtor$11@?0??GetOption@wxSystemOptions@@SA?AVwxString@@AEBV2@@Z@4HA
00000000000c8680	wxbase33u:sysopt.obj	?dtor$8@?0??GetOption@wxSystemOptions@@SA?AVwxString@@AEBV2@@Z@4HA
00000000000c8680	wxbase33u:textfile.obj	?dtor$11@?0??OnWrite@wxTextFile@@MEAA_NW4wxTextFileType@@AEBVwxMBConv@@@Z@4HA
00000000000c8680	wxbase33u:textfile.obj	?dtor$4@?0??OnRead@wxTextFile@@MEAA_NAEBVwxMBConv@@@Z@4HA
00000000000c8680	wxbase33u:tokenzr.obj	?dtor$2@?0??wxStringTokenize@@YA?AVwxArrayString@@AEBVwxString@@0W4wxStringTokenizerMode@@@Z@4HA
00000000000c8680	wxbase33u:utilsexc.obj	?dtor$2@?0??Create@wxPipe@@QEAA_NXZ@4HA
00000000000c8690	wxbase33u:appbase.obj	?dtor$0@?0??OnAssertFailure@wxAppConsoleBase@@UEAAXPEB_WH000@Z@4HA
00000000000c8690	wxbase33u:appbase.obj	?dtor$0@?0??wxOnAssert@@YAXPEBDH000@Z@4HA
00000000000c8690	wxbase33u:appbase.obj	?dtor$1@?0??GetTraits@wxAppConsoleBase@@QEAAPEAVwxAppTraits@@XZ@4HA
00000000000c8690	wxbase33u:appbase.obj	?dtor$1@?0??wxOnAssert@@YAXPEBDH00PEB_W@Z@4HA
00000000000c8690	wxbase33u:appbase.obj	?dtor$9@?0???6wxString@@QEAAAEAV0@_K@Z@4HA
00000000000c8690	wxbase33u:config.obj	?dtor$0@?0??wxSplitPath@@YAXAEAVwxArrayString@@AEBVwxString@@@Z@4HA
00000000000c8690	wxbase33u:datetimefmt.obj	?dtor$0@?0??ParseTime@wxDateTime@@QEAA_NAEBVwxString@@PEAVconst_iterator@2@@Z@4HA
00000000000c8690	wxbase33u:fileconf.obj	?dtor$10@?0??SetValue@wxFileConfigEntry@@QEAAXAEBVwxString@@_N@Z@4HA
00000000000c8690	wxbase33u:fileconf.obj	?dtor$11@?0??Init@wxFileConfig@@AEAAXXZ@4HA
00000000000c8690	wxbase33u:fileconf.obj	?dtor$15@?0??Init@wxFileConfig@@AEAAXXZ@4HA
00000000000c8690	wxbase33u:fileconf.obj	?dtor$1@?0??SetValue@wxFileConfigEntry@@QEAAXAEBVwxString@@_N@Z@4HA
00000000000c8690	wxbase33u:fileconf.obj	?dtor$22@?0??Init@wxFileConfig@@AEAAXXZ@4HA
00000000000c8690	wxbase33u:fileconf.obj	?dtor$5@?0??Init@wxFileConfig@@AEAAXXZ@4HA
00000000000c8690	wxbase33u:fileconf.obj	?dtor$8@?0??SetValue@wxFileConfigEntry@@QEAAXAEBVwxString@@_N@Z@4HA
00000000000c8690	wxbase33u:filefn.obj	?dtor$39@?0??FindValidPath@wxPathList@@QEBA?AVwxString@@AEBV2@@Z@4HA
00000000000c8690	wxbase33u:filename.obj	?dtor$0@?0??GetShortcutTarget@wxFileName@@QEBA_NAEBVwxString@@AEAV2@PEAV2@@Z@4HA
00000000000c8690	wxbase33u:log.obj	?dtor$0@?0??Format@wxLogFormatter@@UEBA?AVwxString@@KAEBV2@AEBVwxLogRecordInfo@@@Z@4HA
00000000000c8690	wxbase33u:log.obj	?dtor$0@?0??LogLastRepeatIfNeeded@wxLog@@IEAAIXZ@4HA
00000000000c8690	wxbase33u:registry.obj	?dtor$11@?0??QueryValue64@wxRegKey@@QEBA_NAEBVwxString@@PEA_J@Z@4HA
00000000000c8690	wxbase33u:registry.obj	?dtor$11@?0??QueryValue@wxRegKey@@QEBA_NAEBVwxString@@PEAJ@Z@4HA
00000000000c8690	wxbase33u:registry.obj	?dtor$5@?0??QueryValue64@wxRegKey@@QEBA_NAEBVwxString@@PEA_J@Z@4HA
00000000000c8690	wxbase33u:registry.obj	?dtor$5@?0??QueryValue@wxRegKey@@QEBA_NAEBVwxString@@PEAJ@Z@4HA
00000000000c8690	wxbase33u:sysopt.obj	?dtor$1@?0??GetOption@wxSystemOptions@@SA?AVwxString@@AEBV2@@Z@4HA
00000000000c8690	wxbase33u:textfile.obj	?dtor$1@?0??OnWrite@wxTextFile@@MEAA_NW4wxTextFileType@@AEBVwxMBConv@@@Z@4HA
00000000000c8690	wxbase33u:textfile.obj	?dtor$5@?0??OnWrite@wxTextFile@@MEAA_NW4wxTextFileType@@AEBVwxMBConv@@@Z@4HA
00000000000c8690	wxbase33u:textfile.obj	?dtor$8@?0??OnRead@wxTextFile@@MEAA_NAEBVwxMBConv@@@Z@4HA
00000000000c8690	wxbase33u:utilsexc.obj	?dtor$3@?0??Create@wxPipe@@QEAA_NXZ@4HA
00000000000c86a0	wxbase33u:appbase.obj	?dtor$0@?0??wxOnAssert@@YAXPEBDH00AEBVwxString@@@Z@4HA
00000000000c86a0	wxbase33u:appbase.obj	?dtor$10@?0???6wxString@@QEAAAEAV0@_K@Z@4HA
00000000000c86a0	wxbase33u:appbase.obj	?dtor$1@?0??OnAssertFailure@wxAppConsoleBase@@UEAAXPEB_WH000@Z@4HA
00000000000c86a0	wxbase33u:appbase.obj	?dtor$1@?0??wxOnAssert@@YAXPEBDH000@Z@4HA
00000000000c86a0	wxbase33u:appbase.obj	?dtor$2@?0??GetTraits@wxAppConsoleBase@@QEAAPEAVwxAppTraits@@XZ@4HA
00000000000c86a0	wxbase33u:appbase.obj	?dtor$2@?0??wxOnAssert@@YAXPEBDH00PEB_W@Z@4HA
00000000000c86a0	wxbase33u:datetimefmt.obj	?dtor$4@?0??ParseTime@wxDateTime@@QEAA_NAEBVwxString@@PEAVconst_iterator@2@@Z@4HA
00000000000c86a0	wxbase33u:datetimefmt.obj	?dtor$5@?0??ParseTime@wxDateTime@@QEAA_NAEBVwxString@@PEAVconst_iterator@2@@Z@4HA
00000000000c86a0	wxbase33u:dde.obj	?dtor$0@?0??DDEAtomFromString@@YAPEAUHSZ__@@AEBVwxString@@@Z@4HA
00000000000c86a0	wxbase33u:dynlib.obj	?dtor$0@?0??GetSymbol@wxDynamicLibrary@@QEBAPEAXAEBVwxString@@PEA_N@Z@4HA
00000000000c86a0	wxbase33u:file.obj	?dtor$2@?0??Read@wxFile@@QEAA_JPEAX_K@Z@4HA
00000000000c86a0	wxbase33u:file.obj	?dtor$2@?0??Write@wxFile@@QEAA_KPEBX_K@Z@4HA
00000000000c86a0	wxbase33u:fileconf.obj	?dtor$1@?0??GetFullName@wxFileConfigGroup@@QEBA?AVwxString@@XZ@4HA
00000000000c86a0	wxbase33u:fileconf.obj	?dtor$3@?0??HasEntry@wxFileConfig@@UEBA_NAEBVwxString@@@Z@4HA
00000000000c86a0	wxbase33u:fileconf.obj	?dtor$7@?0??SetValue@wxFileConfigEntry@@QEAAXAEBVwxString@@_N@Z@4HA
00000000000c86a0	wxbase33u:filefn.obj	?dtor$1@?0??FindValidPath@wxPathList@@QEBA?AVwxString@@AEBV2@@Z@4HA
00000000000c86a0	wxbase33u:filename.obj	?dtor$2@?0??GetShortcutTarget@wxFileName@@QEBA_NAEBVwxString@@AEAV2@PEAV2@@Z@4HA
00000000000c86a0	wxbase33u:log.obj	?dtor$1@?0??Format@wxLogFormatter@@UEBA?AVwxString@@KAEBV2@AEBVwxLogRecordInfo@@@Z@4HA
00000000000c86a0	wxbase33u:log.obj	?dtor$1@?0??LogLastRepeatIfNeeded@wxLog@@IEAAIXZ@4HA
00000000000c86a0	wxbase33u:log.obj	?dtor$2@?0??Format@wxLogFormatter@@UEBA?AVwxString@@KAEBV2@AEBVwxLogRecordInfo@@@Z@4HA
00000000000c86a0	wxbase33u:log.obj	?dtor$5@?0??Format@wxLogFormatter@@UEBA?AVwxString@@KAEBV2@AEBVwxLogRecordInfo@@@Z@4HA
00000000000c86a0	wxbase33u:log.obj	?dtor$6@?0??LogLastRepeatIfNeeded@wxLog@@IEAAIXZ@4HA
00000000000c86a0	wxbase33u:msgout.obj	?dtor$1@?0??Output@wxMessageOutputDebug@@UEAAXAEBVwxString@@@Z@4HA
00000000000c86a0	wxbase33u:msgout.obj	?dtor$4@?0??Output@wxMessageOutputDebug@@UEAAXAEBVwxString@@@Z@4HA
00000000000c86a0	wxbase33u:sysopt.obj	?dtor$10@?0??GetOption@wxSystemOptions@@SA?AVwxString@@AEBV2@@Z@4HA
00000000000c86a0	wxbase33u:sysopt.obj	?dtor$3@?0??GetOption@wxSystemOptions@@SA?AVwxString@@AEBV2@@Z@4HA
00000000000c86a0	wxbase33u:sysopt.obj	?dtor$4@?0??GetOption@wxSystemOptions@@SA?AVwxString@@AEBV2@@Z@4HA
00000000000c86b0	wxbase33u:appbase.obj	?dtor$0@?0??CheckBuildOptions@wxAppConsoleBase@@SA_NPEBD0@Z@4HA
00000000000c86b0	wxbase33u:datetimefmt.obj	?dtor$1@?0??Format@wxDateTime@@QEBA?AVwxString@@AEBV2@AEBVTimeZone@1@@Z@4HA
00000000000c86b0	wxbase33u:ffile.obj	?dtor$1@?0??Close@wxFFile@@QEAA_NXZ@4HA
00000000000c86b0	wxbase33u:file.obj	?dtor$1@?0??Discard@wxTempFile@@QEAAXXZ@4HA
00000000000c86b0	wxbase33u:file.obj	?dtor$1@?0??Open@wxFile@@QEAA_NAEBVwxString@@W4OpenMode@1@H@Z@4HA
00000000000c86b0	wxbase33u:fileconf.obj	?dtor$10@?0??Parse@wxFileConfig@@AEAAXAEBVwxTextBuffer@@_N@Z@4HA
00000000000c86b0	wxbase33u:fileconf.obj	?dtor$25@?0??Parse@wxFileConfig@@AEAAXAEBVwxTextBuffer@@_N@Z@4HA
00000000000c86b0	wxbase33u:fileconf.obj	?dtor$31@?0??Parse@wxFileConfig@@AEAAXAEBVwxTextBuffer@@_N@Z@4HA
00000000000c86b0	wxbase33u:fileconf.obj	?dtor$39@?0??Parse@wxFileConfig@@AEAAXAEBVwxTextBuffer@@_N@Z@4HA
00000000000c86b0	wxbase33u:fileconf.obj	?dtor$6@?0??DeleteAll@wxFileConfig@@UEAA_NXZ@4HA
00000000000c86b0	wxbase33u:registry.obj	?dtor$1@?0??SetValue64@wxRegKey@@QEAA_NAEBVwxString@@_J@Z@4HA
00000000000c86b0	wxbase33u:registry.obj	?dtor$1@?0??SetValue@wxRegKey@@QEAA_NAEBVwxString@@0@Z@4HA
00000000000c86b0	wxbase33u:registry.obj	?dtor$1@?0??SetValue@wxRegKey@@QEAA_NAEBVwxString@@AEBVwxMemoryBuffer@@@Z@4HA
00000000000c86b0	wxbase33u:registry.obj	?dtor$1@?0??SetValue@wxRegKey@@QEAA_NAEBVwxString@@J@Z@4HA
00000000000c86b0	wxbase33u:textfile.obj	?dtor$72@?0??OnWrite@wxTextFile@@MEAA_NW4wxTextFileType@@AEBVwxMBConv@@@Z@4HA
00000000000c86c0	wxbase33u:appbase.obj	?dtor$1@?0??CheckBuildOptions@wxAppConsoleBase@@SA_NPEBD0@Z@4HA
00000000000c86c0	wxbase33u:ffile.obj	?dtor$5@?0??Close@wxFFile@@QEAA_NXZ@4HA
00000000000c86c0	wxbase33u:file.obj	?dtor$5@?0??Discard@wxTempFile@@QEAAXXZ@4HA
00000000000c86c0	wxbase33u:file.obj	?dtor$5@?0??Open@wxFile@@QEAA_NAEBVwxString@@W4OpenMode@1@H@Z@4HA
00000000000c86c0	wxbase33u:fileconf.obj	?dtor$13@?0??Init@wxFileConfig@@AEAAXXZ@4HA
00000000000c86c0	wxbase33u:fileconf.obj	?dtor$2@?0??Init@wxFileConfig@@AEAAXXZ@4HA
00000000000c86c0	wxbase33u:registry.obj	?dtor$1@?0??GetNextKey@wxRegKey@@QEBA_NAEAVwxString@@AEAJ@Z@4HA
00000000000c86c0	wxbase33u:registry.obj	?dtor$2@?0??QueryValue64@wxRegKey@@QEBA_NAEBVwxString@@PEA_J@Z@4HA
00000000000c86c0	wxbase33u:registry.obj	?dtor$2@?0??QueryValue@wxRegKey@@QEBA_NAEBVwxString@@PEAJ@Z@4HA
00000000000c86c0	wxbase33u:registry.obj	?dtor$5@?0??SetValue64@wxRegKey@@QEAA_NAEBVwxString@@_J@Z@4HA
00000000000c86c0	wxbase33u:registry.obj	?dtor$5@?0??SetValue@wxRegKey@@QEAA_NAEBVwxString@@0@Z@4HA
00000000000c86c0	wxbase33u:registry.obj	?dtor$5@?0??SetValue@wxRegKey@@QEAA_NAEBVwxString@@AEBVwxMemoryBuffer@@@Z@4HA
00000000000c86c0	wxbase33u:registry.obj	?dtor$5@?0??SetValue@wxRegKey@@QEAA_NAEBVwxString@@J@Z@4HA
00000000000c86c0	wxbase33u:utilsexc.obj	?dtor$1@?0??Create@wxPipe@@QEAA_NXZ@4HA
00000000000c86d0	wxbase33u:appbase.obj	?dtor$2@?0??CheckBuildOptions@wxAppConsoleBase@@SA_NPEBD0@Z@4HA
00000000000c86d0	wxbase33u:fileconf.obj	?dtor$16@?0??LineListAppend@wxFileConfig@@QEAAPEAVwxFileConfigLineList@@AEBVwxString@@@Z@4HA
00000000000c86d0	wxbase33u:fileconf.obj	?dtor$16@?0??LineListRemove@wxFileConfig@@QEAAXPEAVwxFileConfigLineList@@@Z@4HA
00000000000c86d0	wxbase33u:fileconf.obj	?dtor$23@?0??LineListRemove@wxFileConfig@@QEAAXPEAVwxFileConfigLineList@@@Z@4HA
00000000000c86d0	wxbase33u:fileconf.obj	?dtor$24@?0??LineListAppend@wxFileConfig@@QEAAPEAVwxFileConfigLineList@@AEBVwxString@@@Z@4HA
00000000000c86d0	wxbase33u:fileconf.obj	?dtor$30@?0??LineListRemove@wxFileConfig@@QEAAXPEAVwxFileConfigLineList@@@Z@4HA
00000000000c86d0	wxbase33u:fileconf.obj	?dtor$31@?0??LineListAppend@wxFileConfig@@QEAAPEAVwxFileConfigLineList@@AEBVwxString@@@Z@4HA
00000000000c86d0	wxbase33u:fileconf.obj	?dtor$9@?0??LineListAppend@wxFileConfig@@QEAAPEAVwxFileConfigLineList@@AEBVwxString@@@Z@4HA
00000000000c86d0	wxbase33u:fileconf.obj	?dtor$9@?0??LineListRemove@wxFileConfig@@QEAAXPEAVwxFileConfigLineList@@@Z@4HA
00000000000c86d0	wxbase33u:filefn.obj	?dtor$14@?0??wxRenameFile@@YA_NAEBVwxString@@0_N@Z@4HA
00000000000c86d0	wxbase33u:filefn.obj	?dtor$2@?0??wxCopyFile@@YA_NAEBVwxString@@0_N@Z@4HA
00000000000c86d0	wxbase33u:filefn.obj	?dtor$5@?0??wxRenameFile@@YA_NAEBVwxString@@0_N@Z@4HA
00000000000c86d0	wxbase33u:registry.obj	?dtor$10@?0??QueryValue64@wxRegKey@@QEBA_NAEBVwxString@@PEA_J@Z@4HA
00000000000c86d0	wxbase33u:registry.obj	?dtor$10@?0??QueryValue@wxRegKey@@QEBA_NAEBVwxString@@PEAJ@Z@4HA
00000000000c86d0	wxbase33u:registry.obj	?dtor$1@?0??QueryValue64@wxRegKey@@QEBA_NAEBVwxString@@PEA_J@Z@4HA
00000000000c86d0	wxbase33u:registry.obj	?dtor$1@?0??QueryValue@wxRegKey@@QEBA_NAEBVwxString@@PEAJ@Z@4HA
00000000000c86d0	wxbase33u:registry.obj	?dtor$5@?0??GetNextKey@wxRegKey@@QEBA_NAEAVwxString@@AEAJ@Z@4HA
00000000000c86d0	wxbase33u:utilsexc.obj	?dtor$5@?0??Create@wxPipe@@QEAA_NXZ@4HA
00000000000c86e0	wxbase33u:appbase.obj	?dtor$5@?0??CheckBuildOptions@wxAppConsoleBase@@SA_NPEBD0@Z@4HA
00000000000c86e0	wxbase33u:cmdline.obj	?dtor$0@?0???$Printf@VwxString@@@wxString@@QEAAHAEBVwxFormatString@@V0@@Z@4HA
00000000000c86e0	wxbase33u:config.obj	?dtor$5@?0??DoReadBool@wxConfigBase@@MEBA_NAEBVwxString@@PEA_N@Z@4HA
00000000000c86e0	wxbase33u:config.obj	?dtor$6@?0??wxSplitPath@@YAXAEAVwxArrayString@@AEBVwxString@@@Z@4HA
00000000000c86e0	wxbase33u:dlmsw.obj	?dtor$52@?0??ReportError@wxDynamicLibrary@@KAXAEBVwxString@@0@Z@4HA
00000000000c86e0	wxbase33u:fileconf.obj	?dtor$120@?0??LineListInsert@wxFileConfig@@QEAAPEAVwxFileConfigLineList@@AEBVwxString@@PEAV2@@Z@4HA
00000000000c86e0	wxbase33u:fileconf.obj	?dtor$190@?0??LineListInsert@wxFileConfig@@QEAAPEAVwxFileConfigLineList@@AEBVwxString@@PEAV2@@Z@4HA
00000000000c86e0	wxbase33u:fileconf.obj	?dtor$203@?0??LineListInsert@wxFileConfig@@QEAAPEAVwxFileConfigLineList@@AEBVwxString@@PEAV2@@Z@4HA
00000000000c86e0	wxbase33u:fileconf.obj	?dtor$50@?0??LineListInsert@wxFileConfig@@QEAAPEAVwxFileConfigLineList@@AEBVwxString@@PEAV2@@Z@4HA
00000000000c86e0	wxbase33u:fileconf.obj	?dtor$5@?0??SetValue@wxFileConfigEntry@@QEAAXAEBVwxString@@_N@Z@4HA
00000000000c86e0	wxbase33u:fileconf.obj	?dtor$79@?0??LineListInsert@wxFileConfig@@QEAAPEAVwxFileConfigLineList@@AEBVwxString@@PEAV2@@Z@4HA
00000000000c86e0	wxbase33u:fileconf.obj	?dtor$7@?0??DeleteAll@wxFileConfig@@UEAA_NXZ@4HA
00000000000c86e0	wxbase33u:fileconf.obj	?dtor$84@?0??Init@wxFileConfig@@AEAAXXZ@4HA
00000000000c86e0	wxbase33u:fileconf.obj	?dtor$9@?0??Init@wxFileConfig@@AEAAXXZ@4HA
00000000000c86e0	wxbase33u:filename.obj	?dtor$20@?0??DoSetPath@wxFileName@@AEAAXAEBVwxString@@W4wxPathFormat@@H@Z@4HA
00000000000c86e0	wxbase33u:filename.obj	?dtor$8@?0??DoSetPath@wxFileName@@AEAAXAEBVwxString@@W4wxPathFormat@@H@Z@4HA
00000000000c86e0	wxbase33u:log.obj	?dtor$60@?0??CallDoLogNow@wxLog@@AEAAXKAEBVwxString@@AEBVwxLogRecordInfo@@@Z@4HA
00000000000c86e0	wxbase33u:regconf.obj	?dtor$16@?0???$DoReadValue@J@wxRegConfig@@IEBA_NAEBVwxString@@PEAJ@Z@4HA
00000000000c86e0	wxbase33u:regconf.obj	?dtor$16@?0???$DoReadValue@VwxMemoryBuffer@@@wxRegConfig@@IEBA_NAEBVwxString@@PEAVwxMemoryBuffer@@@Z@4HA
00000000000c86e0	wxbase33u:regconf.obj	?dtor$16@?0???$DoReadValue@VwxString@@@wxRegConfig@@IEBA_NAEBVwxString@@PEAV1@@Z@4HA
00000000000c86e0	wxbase33u:regconf.obj	?dtor$16@?0???$DoReadValue@_J@wxRegConfig@@IEBA_NAEBVwxString@@PEA_J@Z@4HA
00000000000c86e0	wxbase33u:registry.obj	?dtor$5@?0??QueryValue@wxRegKey@@QEBA_NAEBVwxString@@AEAVwxMemoryBuffer@@@Z@4HA
00000000000c86e0	wxbase33u:stackwalk.obj	?dtor$5@?0??OnParam@wxStackFrame@@QEAAXPEAU_SYMBOL_INFOW@@@Z@4HA
00000000000c86e0	wxbase33u:strconv.obj	?dtor$18@?0??DoCreate@wxCSConv@@AEBAPEAVwxMBConv@@XZ@4HA
00000000000c86e0	wxbase33u:tokenzr.obj	?dtor$4@?0??wxStringTokenize@@YA?AVwxArrayString@@AEBVwxString@@0W4wxStringTokenizerMode@@@Z@4HA
00000000000c86f0	wxbase33u:appbase.obj	?dtor$7@?0??CheckBuildOptions@wxAppConsoleBase@@SA_NPEBD0@Z@4HA
00000000000c86f0	wxbase33u:fileconf.obj	?dtor$11@?0??LineListAppend@wxFileConfig@@QEAAPEAVwxFileConfigLineList@@AEBVwxString@@@Z@4HA
00000000000c86f0	wxbase33u:fileconf.obj	?dtor$11@?0??LineListRemove@wxFileConfig@@QEAAXPEAVwxFileConfigLineList@@@Z@4HA
00000000000c86f0	wxbase33u:fileconf.obj	?dtor$18@?0??LineListAppend@wxFileConfig@@QEAAPEAVwxFileConfigLineList@@AEBVwxString@@@Z@4HA
00000000000c86f0	wxbase33u:fileconf.obj	?dtor$18@?0??LineListRemove@wxFileConfig@@QEAAXPEAVwxFileConfigLineList@@@Z@4HA
00000000000c86f0	wxbase33u:fileconf.obj	?dtor$25@?0??LineListRemove@wxFileConfig@@QEAAXPEAVwxFileConfigLineList@@@Z@4HA
00000000000c86f0	wxbase33u:fileconf.obj	?dtor$26@?0??LineListAppend@wxFileConfig@@QEAAPEAVwxFileConfigLineList@@AEBVwxString@@@Z@4HA
00000000000c86f0	wxbase33u:fileconf.obj	?dtor$32@?0??LineListRemove@wxFileConfig@@QEAAXPEAVwxFileConfigLineList@@@Z@4HA
00000000000c86f0	wxbase33u:fileconf.obj	?dtor$33@?0??LineListAppend@wxFileConfig@@QEAAPEAVwxFileConfigLineList@@AEBVwxString@@@Z@4HA
00000000000c86f0	wxbase33u:fileconf.obj	?dtor$4@?0??LineListAppend@wxFileConfig@@QEAAPEAVwxFileConfigLineList@@AEBVwxString@@@Z@4HA
00000000000c86f0	wxbase33u:fileconf.obj	?dtor$4@?0??LineListRemove@wxFileConfig@@QEAAXPEAVwxFileConfigLineList@@@Z@4HA
00000000000c86f0	wxbase33u:registry.obj	?dtor$16@?0??QueryValue64@wxRegKey@@QEBA_NAEBVwxString@@PEA_J@Z@4HA
00000000000c86f0	wxbase33u:registry.obj	?dtor$16@?0??QueryValue@wxRegKey@@QEBA_NAEBVwxString@@PEAJ@Z@4HA
00000000000c86f0	wxbase33u:registry.obj	?dtor$8@?0??QueryValue64@wxRegKey@@QEBA_NAEBVwxString@@PEA_J@Z@4HA
00000000000c86f0	wxbase33u:registry.obj	?dtor$8@?0??QueryValue@wxRegKey@@QEBA_NAEBVwxString@@PEAJ@Z@4HA
00000000000c86f0	wxbase33u:utilsexc.obj	?dtor$6@?0??Create@wxPipe@@QEAA_NXZ@4HA
00000000000c8700	wxbase33u:appbase.obj	?dtor$18@?0??CheckBuildOptions@wxAppConsoleBase@@SA_NPEBD0@Z@4HA
00000000000c8700	wxbase33u:config.obj	?dtor$22@?0??DoReadBool@wxConfigBase@@MEBA_NAEBVwxString@@PEA_N@Z@4HA
00000000000c8700	wxbase33u:file.obj	?dtor$48@?0??Open@wxFile@@QEAA_NAEBVwxString@@W4OpenMode@1@H@Z@4HA
00000000000c8700	wxbase33u:fileconf.obj	?dtor$10@?0??LineListRemove@wxFileConfig@@QEAAXPEAVwxFileConfigLineList@@@Z@4HA
00000000000c8700	wxbase33u:fileconf.obj	?dtor$121@?0??Init@wxFileConfig@@AEAAXXZ@4HA
00000000000c8700	wxbase33u:fileconf.obj	?dtor$12@?0??DoWriteString@wxFileConfig@@MEAA_NAEBVwxString@@0@Z@4HA
00000000000c8700	wxbase33u:fileconf.obj	?dtor$134@?0??LineListRemove@wxFileConfig@@QEAAXPEAVwxFileConfigLineList@@@Z@4HA
00000000000c8700	wxbase33u:fileconf.obj	?dtor$163@?0??DoWriteString@wxFileConfig@@MEAA_NAEBVwxString@@0@Z@4HA
00000000000c8700	wxbase33u:fileconf.obj	?dtor$18@?0??Parse@wxFileConfig@@AEAAXAEBVwxTextBuffer@@_N@Z@4HA
00000000000c8700	wxbase33u:fileconf.obj	?dtor$19@?0??Init@wxFileConfig@@AEAAXXZ@4HA
00000000000c8700	wxbase33u:fileconf.obj	?dtor$202@?0??Parse@wxFileConfig@@AEAAXAEBVwxTextBuffer@@_N@Z@4HA
00000000000c8700	wxbase33u:fileconf.obj	?dtor$210@?0??LineListRemove@wxFileConfig@@QEAAXPEAVwxFileConfigLineList@@@Z@4HA
00000000000c8700	wxbase33u:fileconf.obj	?dtor$23@?0??DoWriteString@wxFileConfig@@MEAA_NAEBVwxString@@0@Z@4HA
00000000000c8700	wxbase33u:fileconf.obj	?dtor$26@?0??Init@wxFileConfig@@AEAAXXZ@4HA
00000000000c8700	wxbase33u:fileconf.obj	?dtor$27@?0??Parse@wxFileConfig@@AEAAXAEBVwxTextBuffer@@_N@Z@4HA
00000000000c8700	wxbase33u:fileconf.obj	?dtor$28@?0??DoWriteString@wxFileConfig@@MEAA_NAEBVwxString@@0@Z@4HA
00000000000c8700	wxbase33u:fileconf.obj	?dtor$34@?0??Parse@wxFileConfig@@AEAAXAEBVwxTextBuffer@@_N@Z@4HA
00000000000c8700	wxbase33u:fileconf.obj	?dtor$46@?0??LineListRemove@wxFileConfig@@QEAAXPEAVwxFileConfigLineList@@@Z@4HA
00000000000c8700	wxbase33u:fileconf.obj	?dtor$83@?0??LineListRemove@wxFileConfig@@QEAAXPEAVwxFileConfigLineList@@@Z@4HA
00000000000c8700	wxbase33u:fileconf.obj	?dtor$8@?0??Parse@wxFileConfig@@AEAAXAEBVwxTextBuffer@@_N@Z@4HA
00000000000c8700	wxbase33u:registry.obj	?dtor$136@?0??Rename@wxRegKey@@QEAA_NAEBVwxString@@@Z@4HA
00000000000c8700	wxbase33u:registry.obj	?dtor$5@?0??Rename@wxRegKey@@QEAA_NAEBVwxString@@@Z@4HA
00000000000c8700	wxbase33u:textfile.obj	?dtor$6@?0??OnRead@wxTextFile@@MEAA_NAEBVwxMBConv@@@Z@4HA
00000000000c8700	wxbase33u:utilsexc.obj	?dtor$20@?0??wxExecute@@YAJAEBVwxString@@HPEAVwxProcess@@PEBUwxExecuteEnv@@@Z@4HA
00000000000c8700	wxbase33u:utilsexc.obj	?dtor$24@?0??wxExecute@@YAJAEBVwxString@@HPEAVwxProcess@@PEBUwxExecuteEnv@@@Z@4HA
00000000000c8700	wxbase33u:utilsexc.obj	?dtor$28@?0??wxExecute@@YAJAEBVwxString@@HPEAVwxProcess@@PEBUwxExecuteEnv@@@Z@4HA
00000000000c8700	wxbase33u:utilsexc.obj	?dtor$39@?0??wxExecute@@YAJAEBVwxString@@HPEAVwxProcess@@PEBUwxExecuteEnv@@@Z@4HA
00000000000c8710	wxbase33u:appbase.obj	?dtor$19@?0??CheckBuildOptions@wxAppConsoleBase@@SA_NPEBD0@Z@4HA
00000000000c8710	wxbase33u:dlmsw.obj	?dtor$10@?0??ReportError@wxDynamicLibrary@@KAXAEBVwxString@@0@Z@4HA
00000000000c8710	wxbase33u:fileconf.obj	?dtor$174@?0??LineListAppend@wxFileConfig@@QEAAPEAVwxFileConfigLineList@@AEBVwxString@@@Z@4HA
00000000000c8710	wxbase33u:fileconf.obj	?dtor$17@?0??LineListAppend@wxFileConfig@@QEAAPEAVwxFileConfigLineList@@AEBVwxString@@@Z@4HA
00000000000c8710	wxbase33u:fileconf.obj	?dtor$25@?0??LineListAppend@wxFileConfig@@QEAAPEAVwxFileConfigLineList@@AEBVwxString@@@Z@4HA
00000000000c8710	wxbase33u:fileconf.obj	?dtor$32@?0??LineListAppend@wxFileConfig@@QEAAPEAVwxFileConfigLineList@@AEBVwxString@@@Z@4HA
00000000000c8710	wxbase33u:fileconf.obj	?dtor$5@?0??LineListInsert@wxFileConfig@@QEAAPEAVwxFileConfigLineList@@AEBVwxString@@PEAV2@@Z@4HA
00000000000c8710	wxbase33u:registry.obj	?dtor$101@?0??Rename@wxRegKey@@QEAA_NAEBVwxString@@@Z@4HA
00000000000c8710	wxbase33u:registry.obj	?dtor$14@?0??Rename@wxRegKey@@QEAA_NAEBVwxString@@@Z@4HA
00000000000c8710	wxbase33u:registry.obj	?dtor$21@?0??Rename@wxRegKey@@QEAA_NAEBVwxString@@@Z@4HA
00000000000c8720	wxbase33u:appbase.obj	?dtor$20@?0??CheckBuildOptions@wxAppConsoleBase@@SA_NPEBD0@Z@4HA
00000000000c8720	wxbase33u:fileconf.obj	?dtor$13@?0??LineListInsert@wxFileConfig@@QEAAPEAVwxFileConfigLineList@@AEBVwxString@@PEAV2@@Z@4HA
00000000000c8720	wxbase33u:fileconf.obj	?dtor$175@?0??LineListRemove@wxFileConfig@@QEAAXPEAVwxFileConfigLineList@@@Z@4HA
00000000000c8720	wxbase33u:fileconf.obj	?dtor$17@?0??LineListRemove@wxFileConfig@@QEAAXPEAVwxFileConfigLineList@@@Z@4HA
00000000000c8720	wxbase33u:fileconf.obj	?dtor$204@?0??LineListInsert@wxFileConfig@@QEAAPEAVwxFileConfigLineList@@AEBVwxString@@PEAV2@@Z@4HA
00000000000c8720	wxbase33u:fileconf.obj	?dtor$20@?0??LineListInsert@wxFileConfig@@QEAAPEAVwxFileConfigLineList@@AEBVwxString@@PEAV2@@Z@4HA
00000000000c8720	wxbase33u:fileconf.obj	?dtor$24@?0??LineListRemove@wxFileConfig@@QEAAXPEAVwxFileConfigLineList@@@Z@4HA
00000000000c8720	wxbase33u:fileconf.obj	?dtor$28@?0??LineListInsert@wxFileConfig@@QEAAPEAVwxFileConfigLineList@@AEBVwxString@@PEAV2@@Z@4HA
00000000000c8720	wxbase33u:fileconf.obj	?dtor$31@?0??LineListRemove@wxFileConfig@@QEAAXPEAVwxFileConfigLineList@@@Z@4HA
00000000000c8720	wxbase33u:fileconf.obj	?dtor$35@?0??LineListInsert@wxFileConfig@@QEAAPEAVwxFileConfigLineList@@AEBVwxString@@PEAV2@@Z@4HA
00000000000c8720	wxbase33u:fileconf.obj	?dtor$5@?0??DoWriteString@wxFileConfig@@MEAA_NAEBVwxString@@0@Z@4HA
00000000000c8720	wxbase33u:filefn.obj	?dtor$101@?0??wxRenameFile@@YA_NAEBVwxString@@0_N@Z@4HA
00000000000c8720	wxbase33u:registry.obj	?dtor$15@?0??QueryValue64@wxRegKey@@QEBA_NAEBVwxString@@PEA_J@Z@4HA
00000000000c8720	wxbase33u:registry.obj	?dtor$15@?0??QueryValue@wxRegKey@@QEBA_NAEBVwxString@@PEAJ@Z@4HA
00000000000c8720	wxbase33u:registry.obj	?dtor$28@?0??Rename@wxRegKey@@QEAA_NAEBVwxString@@@Z@4HA
00000000000c8730	wxbase33u:appbase.obj	?dtor$0@?0??Clone@wxIdleEvent@@UEBAPEAVwxEvent@@XZ@4HA
00000000000c8730	wxbase33u:process.obj	?dtor$0@?0??Clone@wxProcessEvent@@UEBAPEAVwxEvent@@XZ@4HA
00000000000c8730	wxbase33u:strconv.obj	?dtor$0@?0??Clone@wxMBConv_wxwin@@UEBAPEAVwxMBConv@@XZ@4HA
00000000000c8730	wxbase33u:strconv.obj	?dtor$11@?0??DoCreate@wxCSConv@@AEBAPEAVwxMBConv@@XZ@4HA
00000000000c8730	wxbase33u:strconv.obj	?dtor$12@?0??DoCreate@wxCSConv@@AEBAPEAVwxMBConv@@XZ@4HA
00000000000c8750	wxbase33u:appbase.obj	?dtor$0@?0??CreateFontMapper@wxConsoleAppTraitsBase@@UEAAPEAVwxFontMapper@@XZ@4HA
00000000000c8750	wxbase33u:variant.obj	?dtor$0@?0??Clone@wxVariantDataString@@UEBAPEAVwxVariantData@@XZ@4HA
00000000000c8750	wxbase33u:variant.obj	?dtor$0@?0??wxVariantDataFromConstCharPAny@@YAPEAVwxVariantData@@AEBVwxAny@@@Z@4HA
00000000000c8750	wxbase33u:variant.obj	?dtor$0@?0??wxVariantDataFromConstWchar_tPAny@@YAPEAVwxVariantData@@AEBVwxAny@@@Z@4HA
00000000000c8770	wxbase33u:appbase.obj	?dtor$0@?0??CreateLogTarget@wxConsoleAppTraitsBase@@UEAAPEAVwxLog@@XZ@4HA
00000000000c8770	wxbase33u:basemsw.obj	?dtor$0@?0??CreateEventLoop@wxConsoleAppTraits@@UEAAPEAVwxEventLoopBase@@XZ@4HA
00000000000c8770	wxbase33u:variant.obj	?dtor$0@?0??Clone@wxVariantDataArrayString@@UEBAPEAVwxVariantData@@XZ@4HA
00000000000c8770	wxbase33u:variant.obj	?dtor$0@?0??Clone@wxVariantDataList@@UEBAPEAVwxVariantData@@XZ@4HA
00000000000c8790	wxbase33u:appbase.obj	?dtor$0@?0??CreateMessageOutput@wxConsoleAppTraitsBase@@UEAAPEAVwxMessageOutput@@XZ@4HA
00000000000c8790	wxbase33u:strconv.obj	?dtor$6@?0??DoCreate@wxCSConv@@AEBAPEAVwxMBConv@@XZ@4HA
00000000000c8790	wxbase33u:strconv.obj	?dtor$7@?0??DoCreate@wxCSConv@@AEBAPEAVwxMBConv@@XZ@4HA
00000000000c87b0	wxbase33u:appbase.obj	?dtor$2@?0??GetAppDisplayName@wxAppConsoleBase@@QEBA?AVwxString@@XZ@4HA
00000000000c87b0	wxbase33u:cmdline.obj	?dtor$2@?0??AddUsageText@wxCmdLineParser@@QEAAXAEBVwxString@@@Z@4HA
00000000000c87b0	wxbase33u:config.obj	?dtor$2@?0??CreateConfig@wxAppTraitsBase@@UEAAPEAVwxConfigBase@@XZ@4HA
00000000000c87b0	wxbase33u:registry.obj	?dtor$2@?0??ExtractKeyName@wxRegKey@@SA?AW4StdKey@1@AEAVwxString@@@Z@4HA
00000000000c87e0	wxbase33u:appbase.obj	?dtor$3@?0??GetAppDisplayName@wxAppConsoleBase@@QEBA?AVwxString@@XZ@4HA
00000000000c87e0	wxbase33u:appbase.obj	?dtor$8@?0??GetAppDisplayName@wxAppConsoleBase@@QEBA?AVwxString@@XZ@4HA
00000000000c87e0	wxbase33u:cmdline.obj	?dtor$12@?0??GetTypeName@@YA?AVwxString@@W4wxCmdLineParamType@@@Z@4HA
00000000000c87e0	wxbase33u:cmdline.obj	?dtor$3@?0??GetTypeName@@YA?AVwxString@@W4wxCmdLineParamType@@@Z@4HA
00000000000c87e0	wxbase33u:cmdline.obj	?dtor$6@?0??GetTypeName@@YA?AVwxString@@W4wxCmdLineParamType@@@Z@4HA
00000000000c87e0	wxbase33u:cmdline.obj	?dtor$8@?0??GetTypeName@@YA?AVwxString@@W4wxCmdLineParamType@@@Z@4HA
00000000000c87e0	wxbase33u:dde.obj	?dtor$12@?0??DDEGetErrorMsg@@YA?AVwxString@@I@Z@4HA
00000000000c87e0	wxbase33u:dde.obj	?dtor$14@?0??DDEGetErrorMsg@@YA?AVwxString@@I@Z@4HA
00000000000c87e0	wxbase33u:dde.obj	?dtor$17@?0??DDEGetErrorMsg@@YA?AVwxString@@I@Z@4HA
00000000000c87e0	wxbase33u:dde.obj	?dtor$20@?0??DDEGetErrorMsg@@YA?AVwxString@@I@Z@4HA
00000000000c87e0	wxbase33u:dde.obj	?dtor$23@?0??DDEGetErrorMsg@@YA?AVwxString@@I@Z@4HA
00000000000c87e0	wxbase33u:dde.obj	?dtor$26@?0??DDEGetErrorMsg@@YA?AVwxString@@I@Z@4HA
00000000000c87e0	wxbase33u:dde.obj	?dtor$29@?0??DDEGetErrorMsg@@YA?AVwxString@@I@Z@4HA
00000000000c87e0	wxbase33u:dde.obj	?dtor$2@?0??DDEGetErrorMsg@@YA?AVwxString@@I@Z@4HA
00000000000c87e0	wxbase33u:dde.obj	?dtor$32@?0??DDEGetErrorMsg@@YA?AVwxString@@I@Z@4HA
00000000000c87e0	wxbase33u:dde.obj	?dtor$35@?0??DDEGetErrorMsg@@YA?AVwxString@@I@Z@4HA
00000000000c87e0	wxbase33u:dde.obj	?dtor$38@?0??DDEGetErrorMsg@@YA?AVwxString@@I@Z@4HA
00000000000c87e0	wxbase33u:dde.obj	?dtor$41@?0??DDEGetErrorMsg@@YA?AVwxString@@I@Z@4HA
00000000000c87e0	wxbase33u:dde.obj	?dtor$44@?0??DDEGetErrorMsg@@YA?AVwxString@@I@Z@4HA
00000000000c87e0	wxbase33u:dde.obj	?dtor$47@?0??DDEGetErrorMsg@@YA?AVwxString@@I@Z@4HA
00000000000c87e0	wxbase33u:dde.obj	?dtor$50@?0??DDEGetErrorMsg@@YA?AVwxString@@I@Z@4HA
00000000000c87e0	wxbase33u:dde.obj	?dtor$53@?0??DDEGetErrorMsg@@YA?AVwxString@@I@Z@4HA
00000000000c87e0	wxbase33u:dde.obj	?dtor$57@?0??DDEGetErrorMsg@@YA?AVwxString@@I@Z@4HA
00000000000c87e0	wxbase33u:dde.obj	?dtor$5@?0??DDEGetErrorMsg@@YA?AVwxString@@I@Z@4HA
00000000000c87e0	wxbase33u:dde.obj	?dtor$7@?0??DoAdvise@wxDDEConnection@@MEAA_NAEBVwxString@@PEBX_KW4wxIPCFormat@@@Z@4HA
00000000000c87e0	wxbase33u:dde.obj	?dtor$8@?0??DDEGetErrorMsg@@YA?AVwxString@@I@Z@4HA
00000000000c87e0	wxbase33u:filefn.obj	?dtor$2@?0??FindAbsoluteValidPath@wxPathList@@QEBA?AVwxString@@AEBV2@@Z@4HA
00000000000c87e0	wxbase33u:filename.obj	?dtor$0@?0??SplitVolume@wxFileName@@SAXAEBVwxString@@PEAV2@1W4wxPathFormat@@@Z@4HA
00000000000c87e0	wxbase33u:filename.obj	?dtor$7@?0??SplitPath@wxFileName@@SAXAEBVwxString@@PEAV2@11W4wxPathFormat@@@Z@4HA
00000000000c87e0	wxbase33u:fmapbase.obj	?dtor$0@?0??NonInteractiveCharsetToEncoding@wxFontMapperBase@@IEAAHAEBVwxString@@@Z@4HA
00000000000c87e0	wxbase33u:msgout.obj	?dtor$3@?0??Output@wxMessageOutputStderr@@UEAAXAEBVwxString@@@Z@4HA
00000000000c87e0	wxbase33u:registry.obj	?dtor$11@?0??QueryValue@wxRegKey@@QEBA_NAEBVwxString@@AEAVwxMemoryBuffer@@@Z@4HA
00000000000c87e0	wxbase33u:registry.obj	?dtor$2@?0??QueryValue@wxRegKey@@QEBA_NAEBVwxString@@AEAVwxMemoryBuffer@@@Z@4HA
00000000000c87e0	wxbase33u:txtstrm.obj	?dtor$0@?0??ReadDouble@wxTextInputStream@@QEAANXZ@4HA
00000000000c87e0	wxbase33u:variant.obj	?dtor$0@?0??Eq@wxVariantDataList@@UEBA_NAEAVwxVariantData@@@Z@4HA
